Archive member included because of file (symbol)

C:\Users\nukem419\AppData\Local\V.Micro\Arduino\Builds\IREC_2017\chipKIT_chipkit_pic32_fubarino_sd/core.a(crti.S.o)
                              C:\Users\nukem419\AppData\Local\Temp\ccQDZXfk.o (_init)
C:\Users\nukem419\AppData\Local\V.Micro\Arduino\Builds\IREC_2017\chipKIT_chipkit_pic32_fubarino_sd/core.a(task_manager.c.o)
                              C:\Users\nukem419\AppData\Local\V.Micro\Arduino\Builds\IREC_2017\chipKIT_chipkit_pic32_fubarino_sd\Wire\Wire.cpp.o (getTaskId)
C:\Users\nukem419\AppData\Local\V.Micro\Arduino\Builds\IREC_2017\chipKIT_chipkit_pic32_fubarino_sd/core.a(wiring.c.o)
                              C:\Users\nukem419\AppData\Local\V.Micro\Arduino\Builds\IREC_2017\chipKIT_chipkit_pic32_fubarino_sd\SD\utility\Sd2Card.cpp.o (millis)
C:\Users\nukem419\AppData\Local\V.Micro\Arduino\Builds\IREC_2017\chipKIT_chipkit_pic32_fubarino_sd/core.a(wiring_digital.c.o)
                              C:\Users\nukem419\AppData\Local\V.Micro\Arduino\Builds\IREC_2017\chipKIT_chipkit_pic32_fubarino_sd\SD\utility\Sd2Card.cpp.o (pinMode)
C:\Users\nukem419\AppData\Local\V.Micro\Arduino\Builds\IREC_2017\chipKIT_chipkit_pic32_fubarino_sd/core.a(WSystem.c.o)
                              C:\Users\nukem419\AppData\Local\V.Micro\Arduino\Builds\IREC_2017\chipKIT_chipkit_pic32_fubarino_sd/core.a(wiring.c.o) (initIntVector)
C:\Users\nukem419\AppData\Local\V.Micro\Arduino\Builds\IREC_2017\chipKIT_chipkit_pic32_fubarino_sd/core.a(HardwareSerial.cpp.o)
                              C:\Users\nukem419\AppData\Local\V.Micro\Arduino\Builds\IREC_2017\chipKIT_chipkit_pic32_fubarino_sd\IREC_2017.cpp.o (HardwareSerial::available())
C:\Users\nukem419\AppData\Local\V.Micro\Arduino\Builds\IREC_2017\chipKIT_chipkit_pic32_fubarino_sd/core.a(main.cpp.o)
                              C:\Users\nukem419\AppData\Local\Temp\ccQDZXfk.o (main)
C:\Users\nukem419\AppData\Local\V.Micro\Arduino\Builds\IREC_2017\chipKIT_chipkit_pic32_fubarino_sd/core.a(Print.cpp.o)
                              C:\Users\nukem419\AppData\Local\V.Micro\Arduino\Builds\IREC_2017\chipKIT_chipkit_pic32_fubarino_sd\SD\File.cpp.o (Print::write(unsigned char const*, unsigned long))
C:\Users\nukem419\AppData\Local\V.Micro\Arduino\Builds\IREC_2017\chipKIT_chipkit_pic32_fubarino_sd/core.a(Stream.cpp.o)
                              C:\Users\nukem419\AppData\Local\V.Micro\Arduino\Builds\IREC_2017\chipKIT_chipkit_pic32_fubarino_sd\IREC_2017.cpp.o (Stream::readBytes(char*, unsigned long))
C:\Users\nukem419\AppData\Local\V.Micro\Arduino\Builds\IREC_2017\chipKIT_chipkit_pic32_fubarino_sd/core.a(WString.cpp.o)
                              C:\Users\nukem419\AppData\Local\V.Micro\Arduino\Builds\IREC_2017\chipKIT_chipkit_pic32_fubarino_sd\EM_506.cpp.o (String::~String())
C:\Users\nukem419\AppData\Local\V.Micro\Arduino\Builds\IREC_2017\chipKIT_chipkit_pic32_fubarino_sd/core.a(vector_table.S.o)
                              C:\Users\nukem419\AppData\Local\V.Micro\Arduino\Builds\IREC_2017\chipKIT_chipkit_pic32_fubarino_sd/core.a(main.cpp.o) (__use_isr_install)
C:\Users\nukem419\AppData\Local\V.Micro\Arduino\Builds\IREC_2017\chipKIT_chipkit_pic32_fubarino_sd/core.a(HardwareSerial_cdcacm.c.o)
                              C:\Users\nukem419\AppData\Local\V.Micro\Arduino\Builds\IREC_2017\chipKIT_chipkit_pic32_fubarino_sd/core.a(HardwareSerial.cpp.o) (gCdcacm_active)
C:\Users\nukem419\AppData\Local\V.Micro\Arduino\Builds\IREC_2017\chipKIT_chipkit_pic32_fubarino_sd/core.a(HardwareSerial_usb.c.o)
                              C:\Users\nukem419\AppData\Local\V.Micro\Arduino\Builds\IREC_2017\chipKIT_chipkit_pic32_fubarino_sd/core.a(HardwareSerial_cdcacm.c.o) (usb_device_enqueue)
C:\Users\nukem419\AppData\Local\V.Micro\Arduino\Builds\IREC_2017\chipKIT_chipkit_pic32_fubarino_sd/core.a(pins_arduino.c.o)
                              C:\Users\nukem419\AppData\Local\V.Micro\Arduino\Builds\IREC_2017\chipKIT_chipkit_pic32_fubarino_sd/core.a(wiring.c.o) (_board_init)
C:\Users\nukem419\AppData\Local\V.Micro\Arduino\Builds\IREC_2017\chipKIT_chipkit_pic32_fubarino_sd/core.a(wiring_analog.c.o)
                              C:\Users\nukem419\AppData\Local\V.Micro\Arduino\Builds\IREC_2017\chipKIT_chipkit_pic32_fubarino_sd/core.a(wiring_digital.c.o) (turnOffPWM)
C:\Users\nukem419\AppData\Local\V.Micro\Arduino\Builds\IREC_2017\chipKIT_chipkit_pic32_fubarino_sd/core.a(doprnt.cpp.o)
                              C:\Users\nukem419\AppData\Local\V.Micro\Arduino\Builds\IREC_2017\chipKIT_chipkit_pic32_fubarino_sd/core.a(Print.cpp.o) (_doprnt(char const*, void*, Print*))
c:/users/nukem419/appdata/local/arduino15/packages/chipkit/tools/pic32-tools/1.42-pic32gcc/bin/bin/../../lib/gcc/pic32mx/4.8.3/../../../../pic32mx/lib/size\libsupc++.a(class_type_info.o)
                              C:\Users\nukem419\AppData\Local\V.Micro\Arduino\Builds\IREC_2017\chipKIT_chipkit_pic32_fubarino_sd/core.a(Print.cpp.o) (vtable for __cxxabiv1::__class_type_info)
c:/users/nukem419/appdata/local/arduino15/packages/chipkit/tools/pic32-tools/1.42-pic32gcc/bin/bin/../../lib/gcc/pic32mx/4.8.3/../../../../pic32mx/lib/size\libsupc++.a(del_op.o)
                              C:\Users\nukem419\AppData\Local\V.Micro\Arduino\Builds\IREC_2017\chipKIT_chipkit_pic32_fubarino_sd\Parameters.cpp.o (operator delete(void*))
c:/users/nukem419/appdata/local/arduino15/packages/chipkit/tools/pic32-tools/1.42-pic32gcc/bin/bin/../../lib/gcc/pic32mx/4.8.3/../../../../pic32mx/lib/size\libsupc++.a(eh_personality.o)
                              C:\Users\nukem419\AppData\Local\V.Micro\Arduino\Builds\IREC_2017\chipKIT_chipkit_pic32_fubarino_sd\IREC_2017.cpp.o (__gxx_personality_sj0)
c:/users/nukem419/appdata/local/arduino15/packages/chipkit/tools/pic32-tools/1.42-pic32gcc/bin/bin/../../lib/gcc/pic32mx/4.8.3/../../../../pic32mx/lib/size\libsupc++.a(eh_terminate.o)
                              c:/users/nukem419/appdata/local/arduino15/packages/chipkit/tools/pic32-tools/1.42-pic32gcc/bin/bin/../../lib/gcc/pic32mx/4.8.3/../../../../pic32mx/lib/size\libsupc++.a(eh_personality.o) (std::terminate())
c:/users/nukem419/appdata/local/arduino15/packages/chipkit/tools/pic32-tools/1.42-pic32gcc/bin/bin/../../lib/gcc/pic32mx/4.8.3/../../../../pic32mx/lib/size\libsupc++.a(eh_unex_handler.o)
                              c:/users/nukem419/appdata/local/arduino15/packages/chipkit/tools/pic32-tools/1.42-pic32gcc/bin/bin/../../lib/gcc/pic32mx/4.8.3/../../../../pic32mx/lib/size\libsupc++.a(eh_terminate.o) (__cxxabiv1::__unexpected_handler)
c:/users/nukem419/appdata/local/arduino15/packages/chipkit/tools/pic32-tools/1.42-pic32gcc/bin/bin/../../lib/gcc/pic32mx/4.8.3/../../../../pic32mx/lib/size\libsupc++.a(new_op.o)
                              C:\Users\nukem419\AppData\Local\V.Micro\Arduino\Builds\IREC_2017\chipKIT_chipkit_pic32_fubarino_sd\DataLogger.cpp.o (operator new(unsigned long))
c:/users/nukem419/appdata/local/arduino15/packages/chipkit/tools/pic32-tools/1.42-pic32gcc/bin/bin/../../lib/gcc/pic32mx/4.8.3/../../../../pic32mx/lib/size\libsupc++.a(si_class_type_info.o)
                              C:\Users\nukem419\AppData\Local\V.Micro\Arduino\Builds\IREC_2017\chipKIT_chipkit_pic32_fubarino_sd\SD\File.cpp.o (vtable for __cxxabiv1::__si_class_type_info)
c:/users/nukem419/appdata/local/arduino15/packages/chipkit/tools/pic32-tools/1.42-pic32gcc/bin/bin/../../lib/gcc/pic32mx/4.8.3/../../../../pic32mx/lib/size\libsupc++.a(tinfo.o)
                              c:/users/nukem419/appdata/local/arduino15/packages/chipkit/tools/pic32-tools/1.42-pic32gcc/bin/bin/../../lib/gcc/pic32mx/4.8.3/../../../../pic32mx/lib/size\libsupc++.a(class_type_info.o) (std::type_info::~type_info())
c:/users/nukem419/appdata/local/arduino15/packages/chipkit/tools/pic32-tools/1.42-pic32gcc/bin/bin/../../lib/gcc/pic32mx/4.8.3/../../../../pic32mx/lib/size\libsupc++.a(pure.o)
                              C:\Users\nukem419\AppData\Local\V.Micro\Arduino\Builds\IREC_2017\chipKIT_chipkit_pic32_fubarino_sd\SD\File.cpp.o (__cxa_pure_virtual)
c:/users/nukem419/appdata/local/arduino15/packages/chipkit/tools/pic32-tools/1.42-pic32gcc/bin/bin/../../lib/gcc/pic32mx/4.8.3/../../../../pic32mx/lib/size\libsupc++.a(eh_call.o)
                              c:/users/nukem419/appdata/local/arduino15/packages/chipkit/tools/pic32-tools/1.42-pic32gcc/bin/bin/../../lib/gcc/pic32mx/4.8.3/../../../../pic32mx/lib/size\libsupc++.a(eh_personality.o) (__cxa_call_terminate)
c:/users/nukem419/appdata/local/arduino15/packages/chipkit/tools/pic32-tools/1.42-pic32gcc/bin/bin/../../lib/gcc/pic32mx/4.8.3/../../../../pic32mx/lib/size\libsupc++.a(eh_catch.o)
                              c:/users/nukem419/appdata/local/arduino15/packages/chipkit/tools/pic32-tools/1.42-pic32gcc/bin/bin/../../lib/gcc/pic32mx/4.8.3/../../../../pic32mx/lib/size\libsupc++.a(eh_personality.o) (__cxa_begin_catch)
c:/users/nukem419/appdata/local/arduino15/packages/chipkit/tools/pic32-tools/1.42-pic32gcc/bin/bin/../../lib/gcc/pic32mx/4.8.3/../../../../pic32mx/lib/size\libsupc++.a(eh_globals.o)
                              c:/users/nukem419/appdata/local/arduino15/packages/chipkit/tools/pic32-tools/1.42-pic32gcc/bin/bin/../../lib/gcc/pic32mx/4.8.3/../../../../pic32mx/lib/size\libsupc++.a(eh_catch.o) (__cxa_get_globals_fast)
c:/users/nukem419/appdata/local/arduino15/packages/chipkit/tools/pic32-tools/1.42-pic32gcc/bin/bin/../../lib/gcc/pic32mx/4.8.3/../../../../pic32mx/lib/size\libsupc++.a(eh_term_handler.o)
                              c:/users/nukem419/appdata/local/arduino15/packages/chipkit/tools/pic32-tools/1.42-pic32gcc/bin/bin/../../lib/gcc/pic32mx/4.8.3/../../../../pic32mx/lib/size\libsupc++.a(eh_terminate.o) (__cxxabiv1::__terminate_handler)
c:/users/nukem419/appdata/local/arduino15/packages/chipkit/tools/pic32-tools/1.42-pic32gcc/bin/bin/../../lib/gcc/pic32mx/4.8.3/../../../../pic32mx/lib/size\libsupc++.a(new_handler.o)
                              c:/users/nukem419/appdata/local/arduino15/packages/chipkit/tools/pic32-tools/1.42-pic32gcc/bin/bin/../../lib/gcc/pic32mx/4.8.3/../../../../pic32mx/lib/size\libsupc++.a(new_op.o) (__new_handler)
c:/users/nukem419/appdata/local/arduino15/packages/chipkit/tools/pic32-tools/1.42-pic32gcc/bin/bin/../../lib/gcc/pic32mx/4.8.3/../../../../pic32mx/lib/size\libm.a(lib_a-s_fpclassify.o)
                              C:\Users\nukem419\AppData\Local\V.Micro\Arduino\Builds\IREC_2017\chipKIT_chipkit_pic32_fubarino_sd/core.a(Print.cpp.o) (__fpclassifyd)
c:/users/nukem419/appdata/local/arduino15/packages/chipkit/tools/pic32-tools/1.42-pic32gcc/bin/bin/../../lib/gcc/pic32mx/4.8.3/../../../../pic32mx/lib/size\libm.a(lib_a-s_modf.o)
                              C:\Users\nukem419\AppData\Local\V.Micro\Arduino\Builds\IREC_2017\chipKIT_chipkit_pic32_fubarino_sd/core.a(doprnt.cpp.o) (modf)
c:/users/nukem419/appdata/local/arduino15/packages/chipkit/tools/pic32-tools/1.42-pic32gcc/bin/bin/../../lib/gcc/pic32mx/4.8.3/../../../../pic32mx/lib/size\libm.a(lib_a-w_fmod.o)
                              C:\Users\nukem419\AppData\Local\V.Micro\Arduino\Builds\IREC_2017\chipKIT_chipkit_pic32_fubarino_sd\EM_506.cpp.o (fmod)
c:/users/nukem419/appdata/local/arduino15/packages/chipkit/tools/pic32-tools/1.42-pic32gcc/bin/bin/../../lib/gcc/pic32mx/4.8.3/../../../../pic32mx/lib/size\libm.a(lib_a-w_pow.o)
                              C:\Users\nukem419\AppData\Local\V.Micro\Arduino\Builds\IREC_2017\chipKIT_chipkit_pic32_fubarino_sd\BMP180.cpp.o (pow)
c:/users/nukem419/appdata/local/arduino15/packages/chipkit/tools/pic32-tools/1.42-pic32gcc/bin/bin/../../lib/gcc/pic32mx/4.8.3/../../../../pic32mx/lib/size\libm.a(lib_a-e_fmod.o)
                              c:/users/nukem419/appdata/local/arduino15/packages/chipkit/tools/pic32-tools/1.42-pic32gcc/bin/bin/../../lib/gcc/pic32mx/4.8.3/../../../../pic32mx/lib/size\libm.a(lib_a-w_fmod.o) (__ieee754_fmod)
c:/users/nukem419/appdata/local/arduino15/packages/chipkit/tools/pic32-tools/1.42-pic32gcc/bin/bin/../../lib/gcc/pic32mx/4.8.3/../../../../pic32mx/lib/size\libm.a(lib_a-e_pow.o)
                              c:/users/nukem419/appdata/local/arduino15/packages/chipkit/tools/pic32-tools/1.42-pic32gcc/bin/bin/../../lib/gcc/pic32mx/4.8.3/../../../../pic32mx/lib/size\libm.a(lib_a-w_pow.o) (__ieee754_pow)
c:/users/nukem419/appdata/local/arduino15/packages/chipkit/tools/pic32-tools/1.42-pic32gcc/bin/bin/../../lib/gcc/pic32mx/4.8.3/../../../../pic32mx/lib/size\libm.a(lib_a-e_sqrt.o)
                              c:/users/nukem419/appdata/local/arduino15/packages/chipkit/tools/pic32-tools/1.42-pic32gcc/bin/bin/../../lib/gcc/pic32mx/4.8.3/../../../../pic32mx/lib/size\libm.a(lib_a-e_pow.o) (__ieee754_sqrt)
c:/users/nukem419/appdata/local/arduino15/packages/chipkit/tools/pic32-tools/1.42-pic32gcc/bin/bin/../../lib/gcc/pic32mx/4.8.3/../../../../pic32mx/lib/size\libm.a(lib_a-s_fabs.o)
                              c:/users/nukem419/appdata/local/arduino15/packages/chipkit/tools/pic32-tools/1.42-pic32gcc/bin/bin/../../lib/gcc/pic32mx/4.8.3/../../../../pic32mx/lib/size\libm.a(lib_a-e_pow.o) (fabs)
c:/users/nukem419/appdata/local/arduino15/packages/chipkit/tools/pic32-tools/1.42-pic32gcc/bin/bin/../../lib/gcc/pic32mx/4.8.3/../../../../pic32mx/lib/size\libm.a(lib_a-s_finite.o)
                              c:/users/nukem419/appdata/local/arduino15/packages/chipkit/tools/pic32-tools/1.42-pic32gcc/bin/bin/../../lib/gcc/pic32mx/4.8.3/../../../../pic32mx/lib/size\libm.a(lib_a-w_pow.o) (finite)
c:/users/nukem419/appdata/local/arduino15/packages/chipkit/tools/pic32-tools/1.42-pic32gcc/bin/bin/../../lib/gcc/pic32mx/4.8.3/../../../../pic32mx/lib/size\libm.a(lib_a-s_lib_ver.o)
                              c:/users/nukem419/appdata/local/arduino15/packages/chipkit/tools/pic32-tools/1.42-pic32gcc/bin/bin/../../lib/gcc/pic32mx/4.8.3/../../../../pic32mx/lib/size\libm.a(lib_a-w_fmod.o) (__fdlib_version)
c:/users/nukem419/appdata/local/arduino15/packages/chipkit/tools/pic32-tools/1.42-pic32gcc/bin/bin/../../lib/gcc/pic32mx/4.8.3/../../../../pic32mx/lib/size\libm.a(lib_a-s_matherr.o)
                              c:/users/nukem419/appdata/local/arduino15/packages/chipkit/tools/pic32-tools/1.42-pic32gcc/bin/bin/../../lib/gcc/pic32mx/4.8.3/../../../../pic32mx/lib/size\libm.a(lib_a-w_fmod.o) (matherr)
c:/users/nukem419/appdata/local/arduino15/packages/chipkit/tools/pic32-tools/1.42-pic32gcc/bin/bin/../../lib/gcc/pic32mx/4.8.3/../../../../pic32mx/lib/size\libm.a(lib_a-s_nan.o)
                              c:/users/nukem419/appdata/local/arduino15/packages/chipkit/tools/pic32-tools/1.42-pic32gcc/bin/bin/../../lib/gcc/pic32mx/4.8.3/../../../../pic32mx/lib/size\libm.a(lib_a-e_pow.o) (nan)
c:/users/nukem419/appdata/local/arduino15/packages/chipkit/tools/pic32-tools/1.42-pic32gcc/bin/bin/../../lib/gcc/pic32mx/4.8.3/../../../../pic32mx/lib/size\libm.a(lib_a-s_rint.o)
                              c:/users/nukem419/appdata/local/arduino15/packages/chipkit/tools/pic32-tools/1.42-pic32gcc/bin/bin/../../lib/gcc/pic32mx/4.8.3/../../../../pic32mx/lib/size\libm.a(lib_a-w_pow.o) (rint)
c:/users/nukem419/appdata/local/arduino15/packages/chipkit/tools/pic32-tools/1.42-pic32gcc/bin/bin/../../lib/gcc/pic32mx/4.8.3/../../../../pic32mx/lib/size\libm.a(lib_a-s_scalbn.o)
                              c:/users/nukem419/appdata/local/arduino15/packages/chipkit/tools/pic32-tools/1.42-pic32gcc/bin/bin/../../lib/gcc/pic32mx/4.8.3/../../../../pic32mx/lib/size\libm.a(lib_a-e_pow.o) (scalbn)
c:/users/nukem419/appdata/local/arduino15/packages/chipkit/tools/pic32-tools/1.42-pic32gcc/bin/bin/../../lib/gcc/pic32mx/4.8.3/../../../../pic32mx/lib/size\libm.a(lib_a-s_copysign.o)
                              c:/users/nukem419/appdata/local/arduino15/packages/chipkit/tools/pic32-tools/1.42-pic32gcc/bin/bin/../../lib/gcc/pic32mx/4.8.3/../../../../pic32mx/lib/size\libm.a(lib_a-s_scalbn.o) (copysign)

Optional file libmchp_peripheral_32MX795F512L.a not found

Optional file libmchp_peripheral.a not found
c:/users/nukem419/appdata/local/arduino15/packages/chipkit/tools/pic32-tools/1.42-pic32gcc/bin/bin/../../lib/gcc/pic32mx/4.8.3/size\libgcc.a(addsf3.o)
                              C:\Users\nukem419\AppData\Local\V.Micro\Arduino\Builds\IREC_2017\chipKIT_chipkit_pic32_fubarino_sd\L3GD20TR.cpp.o (__addsf3)
c:/users/nukem419/appdata/local/arduino15/packages/chipkit/tools/pic32-tools/1.42-pic32gcc/bin/bin/../../lib/gcc/pic32mx/4.8.3/size\libgcc.a(divsf3.o)
                              C:\Users\nukem419\AppData\Local\V.Micro\Arduino\Builds\IREC_2017\chipKIT_chipkit_pic32_fubarino_sd\IREC_2017.cpp.o (__divsf3)
c:/users/nukem419/appdata/local/arduino15/packages/chipkit/tools/pic32-tools/1.42-pic32gcc/bin/bin/../../lib/gcc/pic32mx/4.8.3/size\libgcc.a(eqsf2.o)
                              C:\Users\nukem419\AppData\Local\V.Micro\Arduino\Builds\IREC_2017\chipKIT_chipkit_pic32_fubarino_sd\IREC_2017.cpp.o (__eqsf2)
c:/users/nukem419/appdata/local/arduino15/packages/chipkit/tools/pic32-tools/1.42-pic32gcc/bin/bin/../../lib/gcc/pic32mx/4.8.3/size\libgcc.a(gesf2.o)
                              C:\Users\nukem419\AppData\Local\V.Micro\Arduino\Builds\IREC_2017\chipKIT_chipkit_pic32_fubarino_sd\IREC_2017.cpp.o (__gtsf2)
c:/users/nukem419/appdata/local/arduino15/packages/chipkit/tools/pic32-tools/1.42-pic32gcc/bin/bin/../../lib/gcc/pic32mx/4.8.3/size\libgcc.a(mulsf3.o)
                              C:\Users\nukem419\AppData\Local\V.Micro\Arduino\Builds\IREC_2017\chipKIT_chipkit_pic32_fubarino_sd\IREC_2017.cpp.o (__mulsf3)
c:/users/nukem419/appdata/local/arduino15/packages/chipkit/tools/pic32-tools/1.42-pic32gcc/bin/bin/../../lib/gcc/pic32mx/4.8.3/size\libgcc.a(subsf3.o)
                              C:\Users\nukem419\AppData\Local\V.Micro\Arduino\Builds\IREC_2017\chipKIT_chipkit_pic32_fubarino_sd\EM_506.cpp.o (__subsf3)
c:/users/nukem419/appdata/local/arduino15/packages/chipkit/tools/pic32-tools/1.42-pic32gcc/bin/bin/../../lib/gcc/pic32mx/4.8.3/size\libgcc.a(fixsfsi.o)
                              C:\Users\nukem419\AppData\Local\V.Micro\Arduino\Builds\IREC_2017\chipKIT_chipkit_pic32_fubarino_sd\IREC_2017.cpp.o (__fixsfsi)
c:/users/nukem419/appdata/local/arduino15/packages/chipkit/tools/pic32-tools/1.42-pic32gcc/bin/bin/../../lib/gcc/pic32mx/4.8.3/size\libgcc.a(fixunssfsi.o)
                              C:\Users\nukem419\AppData\Local\V.Micro\Arduino\Builds\IREC_2017\chipKIT_chipkit_pic32_fubarino_sd\IREC_2017.cpp.o (__fixunssfsi)
c:/users/nukem419/appdata/local/arduino15/packages/chipkit/tools/pic32-tools/1.42-pic32gcc/bin/bin/../../lib/gcc/pic32mx/4.8.3/size\libgcc.a(floatsisf.o)
                              C:\Users\nukem419\AppData\Local\V.Micro\Arduino\Builds\IREC_2017\chipKIT_chipkit_pic32_fubarino_sd\IREC_2017.cpp.o (__floatsisf)
c:/users/nukem419/appdata/local/arduino15/packages/chipkit/tools/pic32-tools/1.42-pic32gcc/bin/bin/../../lib/gcc/pic32mx/4.8.3/size\libgcc.a(floatunsisf.o)
                              C:\Users\nukem419\AppData\Local\V.Micro\Arduino\Builds\IREC_2017\chipKIT_chipkit_pic32_fubarino_sd\IREC_2017.cpp.o (__floatunsisf)
c:/users/nukem419/appdata/local/arduino15/packages/chipkit/tools/pic32-tools/1.42-pic32gcc/bin/bin/../../lib/gcc/pic32mx/4.8.3/size\libgcc.a(fixunssfdi.o)
                              C:\Users\nukem419\AppData\Local\V.Micro\Arduino\Builds\IREC_2017\chipKIT_chipkit_pic32_fubarino_sd\IREC_2017.cpp.o (__fixunssfdi)
c:/users/nukem419/appdata/local/arduino15/packages/chipkit/tools/pic32-tools/1.42-pic32gcc/bin/bin/../../lib/gcc/pic32mx/4.8.3/size\libgcc.a(adddf3.o)
                              C:\Users\nukem419\AppData\Local\V.Micro\Arduino\Builds\IREC_2017\chipKIT_chipkit_pic32_fubarino_sd\EM_506.cpp.o (__adddf3)
c:/users/nukem419/appdata/local/arduino15/packages/chipkit/tools/pic32-tools/1.42-pic32gcc/bin/bin/../../lib/gcc/pic32mx/4.8.3/size\libgcc.a(divdf3.o)
                              C:\Users\nukem419\AppData\Local\V.Micro\Arduino\Builds\IREC_2017\chipKIT_chipkit_pic32_fubarino_sd\EM_506.cpp.o (__divdf3)
c:/users/nukem419/appdata/local/arduino15/packages/chipkit/tools/pic32-tools/1.42-pic32gcc/bin/bin/../../lib/gcc/pic32mx/4.8.3/size\libgcc.a(eqdf2.o)
                              c:/users/nukem419/appdata/local/arduino15/packages/chipkit/tools/pic32-tools/1.42-pic32gcc/bin/bin/../../lib/gcc/pic32mx/4.8.3/../../../../pic32mx/lib/size\libm.a(lib_a-w_fmod.o) (__eqdf2)
c:/users/nukem419/appdata/local/arduino15/packages/chipkit/tools/pic32-tools/1.42-pic32gcc/bin/bin/../../lib/gcc/pic32mx/4.8.3/size\libgcc.a(gedf2.o)
                              C:\Users\nukem419\AppData\Local\V.Micro\Arduino\Builds\IREC_2017\chipKIT_chipkit_pic32_fubarino_sd/core.a(Print.cpp.o) (__gtdf2)
c:/users/nukem419/appdata/local/arduino15/packages/chipkit/tools/pic32-tools/1.42-pic32gcc/bin/bin/../../lib/gcc/pic32mx/4.8.3/size\libgcc.a(ledf2.o)
                              c:/users/nukem419/appdata/local/arduino15/packages/chipkit/tools/pic32-tools/1.42-pic32gcc/bin/bin/../../lib/gcc/pic32mx/4.8.3/../../../../pic32mx/lib/size\libm.a(lib_a-e_pow.o) (__ledf2)
c:/users/nukem419/appdata/local/arduino15/packages/chipkit/tools/pic32-tools/1.42-pic32gcc/bin/bin/../../lib/gcc/pic32mx/4.8.3/size\libgcc.a(muldf3.o)
                              C:\Users\nukem419\AppData\Local\V.Micro\Arduino\Builds\IREC_2017\chipKIT_chipkit_pic32_fubarino_sd\BMP180.cpp.o (__muldf3)
c:/users/nukem419/appdata/local/arduino15/packages/chipkit/tools/pic32-tools/1.42-pic32gcc/bin/bin/../../lib/gcc/pic32mx/4.8.3/size\libgcc.a(subdf3.o)
                              C:\Users\nukem419\AppData\Local\V.Micro\Arduino\Builds\IREC_2017\chipKIT_chipkit_pic32_fubarino_sd\BMP180.cpp.o (__subdf3)
c:/users/nukem419/appdata/local/arduino15/packages/chipkit/tools/pic32-tools/1.42-pic32gcc/bin/bin/../../lib/gcc/pic32mx/4.8.3/size\libgcc.a(fixdfsi.o)
                              C:\Users\nukem419\AppData\Local\V.Micro\Arduino\Builds\IREC_2017\chipKIT_chipkit_pic32_fubarino_sd\EM_506.cpp.o (__fixdfsi)
c:/users/nukem419/appdata/local/arduino15/packages/chipkit/tools/pic32-tools/1.42-pic32gcc/bin/bin/../../lib/gcc/pic32mx/4.8.3/size\libgcc.a(fixunsdfsi.o)
                              C:\Users\nukem419\AppData\Local\V.Micro\Arduino\Builds\IREC_2017\chipKIT_chipkit_pic32_fubarino_sd/core.a(Print.cpp.o) (__fixunsdfsi)
c:/users/nukem419/appdata/local/arduino15/packages/chipkit/tools/pic32-tools/1.42-pic32gcc/bin/bin/../../lib/gcc/pic32mx/4.8.3/size\libgcc.a(floatsidf.o)
                              C:\Users\nukem419\AppData\Local\V.Micro\Arduino\Builds\IREC_2017\chipKIT_chipkit_pic32_fubarino_sd/core.a(Print.cpp.o) (__floatsidf)
c:/users/nukem419/appdata/local/arduino15/packages/chipkit/tools/pic32-tools/1.42-pic32gcc/bin/bin/../../lib/gcc/pic32mx/4.8.3/size\libgcc.a(floatunsidf.o)
                              C:\Users\nukem419\AppData\Local\V.Micro\Arduino\Builds\IREC_2017\chipKIT_chipkit_pic32_fubarino_sd\EM_506.cpp.o (__floatunsidf)
c:/users/nukem419/appdata/local/arduino15/packages/chipkit/tools/pic32-tools/1.42-pic32gcc/bin/bin/../../lib/gcc/pic32mx/4.8.3/size\libgcc.a(extendsfdf2.o)
                              C:\Users\nukem419\AppData\Local\V.Micro\Arduino\Builds\IREC_2017\chipKIT_chipkit_pic32_fubarino_sd\BMP180.cpp.o (__extendsfdf2)
c:/users/nukem419/appdata/local/arduino15/packages/chipkit/tools/pic32-tools/1.42-pic32gcc/bin/bin/../../lib/gcc/pic32mx/4.8.3/size\libgcc.a(truncdfsf2.o)
                              C:\Users\nukem419\AppData\Local\V.Micro\Arduino\Builds\IREC_2017\chipKIT_chipkit_pic32_fubarino_sd\BMP180.cpp.o (__truncdfsf2)
c:/users/nukem419/appdata/local/arduino15/packages/chipkit/tools/pic32-tools/1.42-pic32gcc/bin/bin/../../lib/gcc/pic32mx/4.8.3/size\libgcc.a(unwind-sjlj.o)
                              C:\Users\nukem419\AppData\Local\V.Micro\Arduino\Builds\IREC_2017\chipKIT_chipkit_pic32_fubarino_sd\IREC_2017.cpp.o (_Unwind_SjLj_Register)
c:/users/nukem419/appdata/local/arduino15/packages/chipkit/tools/pic32-tools/1.42-pic32gcc/bin/bin/../../lib/gcc/pic32mx/4.8.3/size\libgcc.a(_ashldi3.o)
                              c:/users/nukem419/appdata/local/arduino15/packages/chipkit/tools/pic32-tools/1.42-pic32gcc/bin/bin/../../lib/gcc/pic32mx/4.8.3/size\libgcc.a(fixunssfdi.o) (__ashldi3)
c:/users/nukem419/appdata/local/arduino15/packages/chipkit/tools/pic32-tools/1.42-pic32gcc/bin/bin/../../lib/gcc/pic32mx/4.8.3/../../../../pic32mx/lib/size\libc.a(lib_a-abort.o)
                              c:/users/nukem419/appdata/local/arduino15/packages/chipkit/tools/pic32-tools/1.42-pic32gcc/bin/bin/../../lib/gcc/pic32mx/4.8.3/../../../../pic32mx/lib/size\libsupc++.a(eh_personality.o) (abort)
c:/users/nukem419/appdata/local/arduino15/packages/chipkit/tools/pic32-tools/1.42-pic32gcc/bin/bin/../../lib/gcc/pic32mx/4.8.3/../../../../pic32mx/lib/size\libc.a(lib_a-atof.o)
                              C:\Users\nukem419\AppData\Local\V.Micro\Arduino\Builds\IREC_2017\chipKIT_chipkit_pic32_fubarino_sd/core.a(WString.cpp.o) (atof)
c:/users/nukem419/appdata/local/arduino15/packages/chipkit/tools/pic32-tools/1.42-pic32gcc/bin/bin/../../lib/gcc/pic32mx/4.8.3/../../../../pic32mx/lib/size\libc.a(lib_a-atol.o)
                              C:\Users\nukem419\AppData\Local\V.Micro\Arduino\Builds\IREC_2017\chipKIT_chipkit_pic32_fubarino_sd/core.a(WString.cpp.o) (atol)
c:/users/nukem419/appdata/local/arduino15/packages/chipkit/tools/pic32-tools/1.42-pic32gcc/bin/bin/../../lib/gcc/pic32mx/4.8.3/../../../../pic32mx/lib/size\libc.a(lib_a-errno.o)
                              c:/users/nukem419/appdata/local/arduino15/packages/chipkit/tools/pic32-tools/1.42-pic32gcc/bin/bin/../../lib/gcc/pic32mx/4.8.3/../../../../pic32mx/lib/size\libm.a(lib_a-w_fmod.o) (__errno)
c:/users/nukem419/appdata/local/arduino15/packages/chipkit/tools/pic32-tools/1.42-pic32gcc/bin/bin/../../lib/gcc/pic32mx/4.8.3/../../../../pic32mx/lib/size\libc.a(lib_a-impure.o)
                              c:/users/nukem419/appdata/local/arduino15/packages/chipkit/tools/pic32-tools/1.42-pic32gcc/bin/bin/../../lib/gcc/pic32mx/4.8.3/../../../../pic32mx/lib/size\libc.a(lib_a-errno.o) (_impure_ptr)
c:/users/nukem419/appdata/local/arduino15/packages/chipkit/tools/pic32-tools/1.42-pic32gcc/bin/bin/../../lib/gcc/pic32mx/4.8.3/../../../../pic32mx/lib/size\libc.a(lib_a-isspace.o)
                              C:\Users\nukem419\AppData\Local\V.Micro\Arduino\Builds\IREC_2017\chipKIT_chipkit_pic32_fubarino_sd/core.a(WString.cpp.o) (isspace)
c:/users/nukem419/appdata/local/arduino15/packages/chipkit/tools/pic32-tools/1.42-pic32gcc/bin/bin/../../lib/gcc/pic32mx/4.8.3/../../../../pic32mx/lib/size\libc.a(lib_a-malloc.o)
                              C:\Users\nukem419\AppData\Local\V.Micro\Arduino\Builds\IREC_2017\chipKIT_chipkit_pic32_fubarino_sd\SD\File.cpp.o (malloc)
c:/users/nukem419/appdata/local/arduino15/packages/chipkit/tools/pic32-tools/1.42-pic32gcc/bin/bin/../../lib/gcc/pic32mx/4.8.3/../../../../pic32mx/lib/size\libc.a(lib_a-mallocr.o)
                              c:/users/nukem419/appdata/local/arduino15/packages/chipkit/tools/pic32-tools/1.42-pic32gcc/bin/bin/../../lib/gcc/pic32mx/4.8.3/../../../../pic32mx/lib/size\libc.a(lib_a-malloc.o) (_malloc_r)
c:/users/nukem419/appdata/local/arduino15/packages/chipkit/tools/pic32-tools/1.42-pic32gcc/bin/bin/../../lib/gcc/pic32mx/4.8.3/../../../../pic32mx/lib/size\libc.a(lib_a-memcmp.o)
                              C:\Users\nukem419\AppData\Local\V.Micro\Arduino\Builds\IREC_2017\chipKIT_chipkit_pic32_fubarino_sd\SD\utility\SdFile.cpp.o (memcmp)
c:/users/nukem419/appdata/local/arduino15/packages/chipkit/tools/pic32-tools/1.42-pic32gcc/bin/bin/../../lib/gcc/pic32mx/4.8.3/../../../../pic32mx/lib/size\libc.a(lib_a-memcpy.o)
                              C:\Users\nukem419\AppData\Local\V.Micro\Arduino\Builds\IREC_2017\chipKIT_chipkit_pic32_fubarino_sd\Wire\Wire.cpp.o (memcpy)
c:/users/nukem419/appdata/local/arduino15/packages/chipkit/tools/pic32-tools/1.42-pic32gcc/bin/bin/../../lib/gcc/pic32mx/4.8.3/../../../../pic32mx/lib/size\libc.a(lib_a-memmove.o)
                              C:\Users\nukem419\AppData\Local\V.Micro\Arduino\Builds\IREC_2017\chipKIT_chipkit_pic32_fubarino_sd/core.a(WString.cpp.o) (memmove)
c:/users/nukem419/appdata/local/arduino15/packages/chipkit/tools/pic32-tools/1.42-pic32gcc/bin/bin/../../lib/gcc/pic32mx/4.8.3/../../../../pic32mx/lib/size\libc.a(lib_a-memset.o)
                              C:\Users\nukem419\AppData\Local\V.Micro\Arduino\Builds\IREC_2017\chipKIT_chipkit_pic32_fubarino_sd\SD\utility\SdFile.cpp.o (memset)
c:/users/nukem419/appdata/local/arduino15/packages/chipkit/tools/pic32-tools/1.42-pic32gcc/bin/bin/../../lib/gcc/pic32mx/4.8.3/../../../../pic32mx/lib/size\libc.a(lib_a-mlock.o)
                              c:/users/nukem419/appdata/local/arduino15/packages/chipkit/tools/pic32-tools/1.42-pic32gcc/bin/bin/../../lib/gcc/pic32mx/4.8.3/../../../../pic32mx/lib/size\libc.a(lib_a-mallocr.o) (__malloc_lock)
c:/users/nukem419/appdata/local/arduino15/packages/chipkit/tools/pic32-tools/1.42-pic32gcc/bin/bin/../../lib/gcc/pic32mx/4.8.3/../../../../pic32mx/lib/size\libc.a(lib_a-realloc.o)
                              C:\Users\nukem419\AppData\Local\V.Micro\Arduino\Builds\IREC_2017\chipKIT_chipkit_pic32_fubarino_sd/core.a(WString.cpp.o) (realloc)
c:/users/nukem419/appdata/local/arduino15/packages/chipkit/tools/pic32-tools/1.42-pic32gcc/bin/bin/../../lib/gcc/pic32mx/4.8.3/../../../../pic32mx/lib/size\libc.a(lib_a-reallocr.o)
                              c:/users/nukem419/appdata/local/arduino15/packages/chipkit/tools/pic32-tools/1.42-pic32gcc/bin/bin/../../lib/gcc/pic32mx/4.8.3/../../../../pic32mx/lib/size\libc.a(lib_a-realloc.o) (_realloc_r)
c:/users/nukem419/appdata/local/arduino15/packages/chipkit/tools/pic32-tools/1.42-pic32gcc/bin/bin/../../lib/gcc/pic32mx/4.8.3/../../../../pic32mx/lib/size\libc.a(lib_a-sbrkr.o)
                              c:/users/nukem419/appdata/local/arduino15/packages/chipkit/tools/pic32-tools/1.42-pic32gcc/bin/bin/../../lib/gcc/pic32mx/4.8.3/../../../../pic32mx/lib/size\libc.a(lib_a-mallocr.o) (_sbrk_r)
c:/users/nukem419/appdata/local/arduino15/packages/chipkit/tools/pic32-tools/1.42-pic32gcc/bin/bin/../../lib/gcc/pic32mx/4.8.3/../../../../pic32mx/lib/size\libc.a(lib_a-signal.o)
                              c:/users/nukem419/appdata/local/arduino15/packages/chipkit/tools/pic32-tools/1.42-pic32gcc/bin/bin/../../lib/gcc/pic32mx/4.8.3/../../../../pic32mx/lib/size\libc.a(lib_a-abort.o) (raise)
c:/users/nukem419/appdata/local/arduino15/packages/chipkit/tools/pic32-tools/1.42-pic32gcc/bin/bin/../../lib/gcc/pic32mx/4.8.3/../../../../pic32mx/lib/size\libc.a(lib_a-signalr.o)
                              c:/users/nukem419/appdata/local/arduino15/packages/chipkit/tools/pic32-tools/1.42-pic32gcc/bin/bin/../../lib/gcc/pic32mx/4.8.3/../../../../pic32mx/lib/size\libc.a(lib_a-signal.o) (_kill_r)
c:/users/nukem419/appdata/local/arduino15/packages/chipkit/tools/pic32-tools/1.42-pic32gcc/bin/bin/../../lib/gcc/pic32mx/4.8.3/../../../../pic32mx/lib/size\libc.a(lib_a-snprintf.o)
                              C:\Users\nukem419\AppData\Local\V.Micro\Arduino\Builds\IREC_2017\chipKIT_chipkit_pic32_fubarino_sd/core.a(WString.cpp.o) (snprintf)
c:/users/nukem419/appdata/local/arduino15/packages/chipkit/tools/pic32-tools/1.42-pic32gcc/bin/bin/../../lib/gcc/pic32mx/4.8.3/../../../../pic32mx/lib/size\libc.a(lib_a-strchr.o)
                              C:\Users\nukem419\AppData\Local\V.Micro\Arduino\Builds\IREC_2017\chipKIT_chipkit_pic32_fubarino_sd\SD\SD.cpp.o (strchr)
c:/users/nukem419/appdata/local/arduino15/packages/chipkit/tools/pic32-tools/1.42-pic32gcc/bin/bin/../../lib/gcc/pic32mx/4.8.3/../../../../pic32mx/lib/size\libc.a(lib_a-strcmp.o)
                              C:\Users\nukem419\AppData\Local\V.Micro\Arduino\Builds\IREC_2017\chipKIT_chipkit_pic32_fubarino_sd\EM_506.cpp.o (strcmp)
c:/users/nukem419/appdata/local/arduino15/packages/chipkit/tools/pic32-tools/1.42-pic32gcc/bin/bin/../../lib/gcc/pic32mx/4.8.3/../../../../pic32mx/lib/size\libc.a(lib_a-strcpy.o)
                              C:\Users\nukem419\AppData\Local\V.Micro\Arduino\Builds\IREC_2017\chipKIT_chipkit_pic32_fubarino_sd\DataLogger.cpp.o (strcpy)
c:/users/nukem419/appdata/local/arduino15/packages/chipkit/tools/pic32-tools/1.42-pic32gcc/bin/bin/../../lib/gcc/pic32mx/4.8.3/../../../../pic32mx/lib/size\libc.a(lib_a-strlen.o)
                              C:\Users\nukem419\AppData\Local\V.Micro\Arduino\Builds\IREC_2017\chipKIT_chipkit_pic32_fubarino_sd\SD\utility\SdFile.cpp.o (strlen)
c:/users/nukem419/appdata/local/arduino15/packages/chipkit/tools/pic32-tools/1.42-pic32gcc/bin/bin/../../lib/gcc/pic32mx/4.8.3/../../../../pic32mx/lib/size\libc.a(lib_a-strncmp.o)
                              C:\Users\nukem419\AppData\Local\V.Micro\Arduino\Builds\IREC_2017\chipKIT_chipkit_pic32_fubarino_sd/core.a(WString.cpp.o) (strncmp)
c:/users/nukem419/appdata/local/arduino15/packages/chipkit/tools/pic32-tools/1.42-pic32gcc/bin/bin/../../lib/gcc/pic32mx/4.8.3/../../../../pic32mx/lib/size\libc.a(lib_a-strncpy.o)
                              C:\Users\nukem419\AppData\Local\V.Micro\Arduino\Builds\IREC_2017\chipKIT_chipkit_pic32_fubarino_sd\SD\File.cpp.o (strncpy)
c:/users/nukem419/appdata/local/arduino15/packages/chipkit/tools/pic32-tools/1.42-pic32gcc/bin/bin/../../lib/gcc/pic32mx/4.8.3/../../../../pic32mx/lib/size\libc.a(lib_a-strrchr.o)
                              C:\Users\nukem419\AppData\Local\V.Micro\Arduino\Builds\IREC_2017\chipKIT_chipkit_pic32_fubarino_sd/core.a(WString.cpp.o) (strrchr)
c:/users/nukem419/appdata/local/arduino15/packages/chipkit/tools/pic32-tools/1.42-pic32gcc/bin/bin/../../lib/gcc/pic32mx/4.8.3/../../../../pic32mx/lib/size\libc.a(lib_a-strstr.o)
                              C:\Users\nukem419\AppData\Local\V.Micro\Arduino\Builds\IREC_2017\chipKIT_chipkit_pic32_fubarino_sd/core.a(WString.cpp.o) (strstr)
c:/users/nukem419/appdata/local/arduino15/packages/chipkit/tools/pic32-tools/1.42-pic32gcc/bin/bin/../../lib/gcc/pic32mx/4.8.3/../../../../pic32mx/lib/size\libc.a(lib_a-strtod.o)
                              c:/users/nukem419/appdata/local/arduino15/packages/chipkit/tools/pic32-tools/1.42-pic32gcc/bin/bin/../../lib/gcc/pic32mx/4.8.3/../../../../pic32mx/lib/size\libc.a(lib_a-atof.o) (strtod)
c:/users/nukem419/appdata/local/arduino15/packages/chipkit/tools/pic32-tools/1.42-pic32gcc/bin/bin/../../lib/gcc/pic32mx/4.8.3/../../../../pic32mx/lib/size\libc.a(lib_a-strtol.o)
                              c:/users/nukem419/appdata/local/arduino15/packages/chipkit/tools/pic32-tools/1.42-pic32gcc/bin/bin/../../lib/gcc/pic32mx/4.8.3/../../../../pic32mx/lib/size\libc.a(lib_a-atol.o) (_strtol_r)
c:/users/nukem419/appdata/local/arduino15/packages/chipkit/tools/pic32-tools/1.42-pic32gcc/bin/bin/../../lib/gcc/pic32mx/4.8.3/../../../../pic32mx/lib/size\libc.a(lib_a-svfprintf.o)
                              c:/users/nukem419/appdata/local/arduino15/packages/chipkit/tools/pic32-tools/1.42-pic32gcc/bin/bin/../../lib/gcc/pic32mx/4.8.3/../../../../pic32mx/lib/size\libc.a(lib_a-snprintf.o) (_svfprintf_r)
c:/users/nukem419/appdata/local/arduino15/packages/chipkit/tools/pic32-tools/1.42-pic32gcc/bin/bin/../../lib/gcc/pic32mx/4.8.3/../../../../pic32mx/lib/size\libc.a(lib_a-tolower.o)
                              C:\Users\nukem419\AppData\Local\V.Micro\Arduino\Builds\IREC_2017\chipKIT_chipkit_pic32_fubarino_sd/core.a(WString.cpp.o) (tolower)
c:/users/nukem419/appdata/local/arduino15/packages/chipkit/tools/pic32-tools/1.42-pic32gcc/bin/bin/../../lib/gcc/pic32mx/4.8.3/../../../../pic32mx/lib/size\libc.a(lib_a-toupper.o)
                              C:\Users\nukem419\AppData\Local\V.Micro\Arduino\Builds\IREC_2017\chipKIT_chipkit_pic32_fubarino_sd/core.a(WString.cpp.o) (toupper)
c:/users/nukem419/appdata/local/arduino15/packages/chipkit/tools/pic32-tools/1.42-pic32gcc/bin/bin/../../lib/gcc/pic32mx/4.8.3/../../../../pic32mx/lib/size\libc.a(lib_a-ctype_.o)
                              c:/users/nukem419/appdata/local/arduino15/packages/chipkit/tools/pic32-tools/1.42-pic32gcc/bin/bin/../../lib/gcc/pic32mx/4.8.3/../../../../pic32mx/lib/size\libc.a(lib_a-isspace.o) (__ctype_ptr__)
c:/users/nukem419/appdata/local/arduino15/packages/chipkit/tools/pic32-tools/1.42-pic32gcc/bin/bin/../../lib/gcc/pic32mx/4.8.3/../../../../pic32mx/lib/size\libc.a(lib_a-dtoa.o)
                              c:/users/nukem419/appdata/local/arduino15/packages/chipkit/tools/pic32-tools/1.42-pic32gcc/bin/bin/../../lib/gcc/pic32mx/4.8.3/../../../../pic32mx/lib/size\libc.a(lib_a-svfprintf.o) (_dtoa_r)
c:/users/nukem419/appdata/local/arduino15/packages/chipkit/tools/pic32-tools/1.42-pic32gcc/bin/bin/../../lib/gcc/pic32mx/4.8.3/../../../../pic32mx/lib/size\libc.a(lib_a-freer.o)
                              c:/users/nukem419/appdata/local/arduino15/packages/chipkit/tools/pic32-tools/1.42-pic32gcc/bin/bin/../../lib/gcc/pic32mx/4.8.3/../../../../pic32mx/lib/size\libc.a(lib_a-malloc.o) (_free_r)
c:/users/nukem419/appdata/local/arduino15/packages/chipkit/tools/pic32-tools/1.42-pic32gcc/bin/bin/../../lib/gcc/pic32mx/4.8.3/../../../../pic32mx/lib/size\libc.a(lib_a-gdtoa-gethex.o)
                              c:/users/nukem419/appdata/local/arduino15/packages/chipkit/tools/pic32-tools/1.42-pic32gcc/bin/bin/../../lib/gcc/pic32mx/4.8.3/../../../../pic32mx/lib/size\libc.a(lib_a-strtod.o) (__gethex)
c:/users/nukem419/appdata/local/arduino15/packages/chipkit/tools/pic32-tools/1.42-pic32gcc/bin/bin/../../lib/gcc/pic32mx/4.8.3/../../../../pic32mx/lib/size\libc.a(lib_a-gdtoa-hexnan.o)
                              c:/users/nukem419/appdata/local/arduino15/packages/chipkit/tools/pic32-tools/1.42-pic32gcc/bin/bin/../../lib/gcc/pic32mx/4.8.3/../../../../pic32mx/lib/size\libc.a(lib_a-strtod.o) (__hexnan)
c:/users/nukem419/appdata/local/arduino15/packages/chipkit/tools/pic32-tools/1.42-pic32gcc/bin/bin/../../lib/gcc/pic32mx/4.8.3/../../../../pic32mx/lib/size\libc.a(lib_a-locale.o)
                              c:/users/nukem419/appdata/local/arduino15/packages/chipkit/tools/pic32-tools/1.42-pic32gcc/bin/bin/../../lib/gcc/pic32mx/4.8.3/../../../../pic32mx/lib/size\libc.a(lib_a-strtod.o) (_localeconv_r)
c:/users/nukem419/appdata/local/arduino15/packages/chipkit/tools/pic32-tools/1.42-pic32gcc/bin/bin/../../lib/gcc/pic32mx/4.8.3/../../../../pic32mx/lib/size\libc.a(lib_a-memchr.o)
                              c:/users/nukem419/appdata/local/arduino15/packages/chipkit/tools/pic32-tools/1.42-pic32gcc/bin/bin/../../lib/gcc/pic32mx/4.8.3/../../../../pic32mx/lib/size\libc.a(lib_a-svfprintf.o) (memchr)
c:/users/nukem419/appdata/local/arduino15/packages/chipkit/tools/pic32-tools/1.42-pic32gcc/bin/bin/../../lib/gcc/pic32mx/4.8.3/../../../../pic32mx/lib/size\libc.a(lib_a-mprec.o)
                              c:/users/nukem419/appdata/local/arduino15/packages/chipkit/tools/pic32-tools/1.42-pic32gcc/bin/bin/../../lib/gcc/pic32mx/4.8.3/../../../../pic32mx/lib/size\libc.a(lib_a-strtod.o) (_Balloc)
c:/users/nukem419/appdata/local/arduino15/packages/chipkit/tools/pic32-tools/1.42-pic32gcc/bin/bin/../../lib/gcc/pic32mx/4.8.3/../../../../pic32mx/lib/size\libc.a(lib_a-reent.o)
                              c:/users/nukem419/appdata/local/arduino15/packages/chipkit/tools/pic32-tools/1.42-pic32gcc/bin/bin/../../lib/gcc/pic32mx/4.8.3/../../../../pic32mx/lib/size\libc.a(lib_a-sbrkr.o) (errno)
c:/users/nukem419/appdata/local/arduino15/packages/chipkit/tools/pic32-tools/1.42-pic32gcc/bin/bin/../../lib/gcc/pic32mx/4.8.3/../../../../pic32mx/lib/size\libc.a(lib_a-sf_nan.o)
                              c:/users/nukem419/appdata/local/arduino15/packages/chipkit/tools/pic32-tools/1.42-pic32gcc/bin/bin/../../lib/gcc/pic32mx/4.8.3/../../../../pic32mx/lib/size\libc.a(lib_a-strtod.o) (nanf)
c:/users/nukem419/appdata/local/arduino15/packages/chipkit/tools/pic32-tools/1.42-pic32gcc/bin/bin/../../lib/gcc/pic32mx/4.8.3/../../../../pic32mx/lib/size\libc.a(lib_a-svfiprintf.o)
                              c:/users/nukem419/appdata/local/arduino15/packages/chipkit/tools/pic32-tools/1.42-pic32gcc/bin/bin/../../lib/gcc/pic32mx/4.8.3/../../../../pic32mx/lib/size\libc.a(lib_a-svfprintf.o) (__ssprint_r)
c:/users/nukem419/appdata/local/arduino15/packages/chipkit/tools/pic32-tools/1.42-pic32gcc/bin/bin/../../lib/gcc/pic32mx/4.8.3/../../../../pic32mx/lib/size\libc.a(lib_a-callocr.o)
                              c:/users/nukem419/appdata/local/arduino15/packages/chipkit/tools/pic32-tools/1.42-pic32gcc/bin/bin/../../lib/gcc/pic32mx/4.8.3/../../../../pic32mx/lib/size\libc.a(lib_a-mprec.o) (_calloc_r)
c:/users/nukem419/appdata/local/arduino15/packages/chipkit/tools/pic32-tools/1.42-pic32gcc/bin/bin/../../lib/gcc/pic32mx/4.8.3/../../../../pic32mx/lib/size\libpic32.a(sbrk.o)
                              c:/users/nukem419/appdata/local/arduino15/packages/chipkit/tools/pic32-tools/1.42-pic32gcc/bin/bin/../../lib/gcc/pic32mx/4.8.3/../../../../pic32mx/lib/size\libc.a(lib_a-sbrkr.o) (sbrk)
c:/users/nukem419/appdata/local/arduino15/packages/chipkit/tools/pic32-tools/1.42-pic32gcc/bin/bin/../../lib/gcc/pic32mx/4.8.3/../../../../pic32mx/lib/size\libpic32.a(default-bootstrap-exception-handler.o)
                              C:\Users\nukem419\AppData\Local\Temp\ccQDZXfk.o (_bootstrap_exception_handler)
c:/users/nukem419/appdata/local/arduino15/packages/chipkit/tools/pic32-tools/1.42-pic32gcc/bin/bin/../../lib/gcc/pic32mx/4.8.3/../../../../pic32mx/lib/size\libpic32.a(default-on-reset.o)
                              C:\Users\nukem419\AppData\Local\Temp\ccQDZXfk.o (_on_reset)
c:/users/nukem419/appdata/local/arduino15/packages/chipkit/tools/pic32-tools/1.42-pic32gcc/bin/bin/../../lib/gcc/pic32mx/4.8.3/../../../../pic32mx/lib/size\libpic32.a(default-on-bootstrap.o)
                              C:\Users\nukem419\AppData\Local\Temp\ccQDZXfk.o (_on_bootstrap)
c:/users/nukem419/appdata/local/arduino15/packages/chipkit/tools/pic32-tools/1.42-pic32gcc/bin/bin/../../lib/gcc/pic32mx/4.8.3/../../../../pic32mx/lib/size\libpic32.a(default-nmi-handler.o)
                              C:\Users\nukem419\AppData\Local\Temp\ccQDZXfk.o (_nmi_handler)
c:/users/nukem419/appdata/local/arduino15/packages/chipkit/tools/pic32-tools/1.42-pic32gcc/bin/bin/../../lib/gcc/pic32mx/4.8.3/../../../../pic32mx/lib/size\libpic32.a(_exit.o)
                              c:/users/nukem419/appdata/local/arduino15/packages/chipkit/tools/pic32-tools/1.42-pic32gcc/bin/bin/../../lib/gcc/pic32mx/4.8.3/../../../../pic32mx/lib/size\libc.a(lib_a-abort.o) (_exit)
c:/users/nukem419/appdata/local/arduino15/packages/chipkit/tools/pic32-tools/1.42-pic32gcc/bin/bin/../../lib/gcc/pic32mx/4.8.3/../../../../pic32mx/lib/size\libpic32.a(kill.o)
                              c:/users/nukem419/appdata/local/arduino15/packages/chipkit/tools/pic32-tools/1.42-pic32gcc/bin/bin/../../lib/gcc/pic32mx/4.8.3/../../../../pic32mx/lib/size\libc.a(lib_a-signalr.o) (kill)
c:/users/nukem419/appdata/local/arduino15/packages/chipkit/tools/pic32-tools/1.42-pic32gcc/bin/bin/../../lib/gcc/pic32mx/4.8.3/../../../../pic32mx/lib/size\libpic32.a(getpid.o)
                              c:/users/nukem419/appdata/local/arduino15/packages/chipkit/tools/pic32-tools/1.42-pic32gcc/bin/bin/../../lib/gcc/pic32mx/4.8.3/../../../../pic32mx/lib/size\libc.a(lib_a-signalr.o) (getpid)
c:/users/nukem419/appdata/local/arduino15/packages/chipkit/tools/pic32-tools/1.42-pic32gcc/bin/bin/../../lib/gcc/pic32mx/4.8.3/size\libgcc.a(_udivdi3.o)
                              c:/users/nukem419/appdata/local/arduino15/packages/chipkit/tools/pic32-tools/1.42-pic32gcc/bin/bin/../../lib/gcc/pic32mx/4.8.3/../../../../pic32mx/lib/size\libc.a(lib_a-svfprintf.o) (__udivdi3)
c:/users/nukem419/appdata/local/arduino15/packages/chipkit/tools/pic32-tools/1.42-pic32gcc/bin/bin/../../lib/gcc/pic32mx/4.8.3/size\libgcc.a(_umoddi3.o)
                              c:/users/nukem419/appdata/local/arduino15/packages/chipkit/tools/pic32-tools/1.42-pic32gcc/bin/bin/../../lib/gcc/pic32mx/4.8.3/../../../../pic32mx/lib/size\libc.a(lib_a-svfprintf.o) (__umoddi3)

Allocating common symbols
Common symbol       size              file

scsi_attached_count
                    0x4               C:\Users\nukem419\AppData\Local\V.Micro\Arduino\Builds\IREC_2017\chipKIT_chipkit_pic32_fubarino_sd/core.a(HardwareSerial_usb.c.o)
bulk_out_ep         0x1               C:\Users\nukem419\AppData\Local\V.Micro\Arduino\Builds\IREC_2017\chipKIT_chipkit_pic32_fubarino_sd/core.a(HardwareSerial_usb.c.o)
int_ep              0x1               C:\Users\nukem419\AppData\Local\V.Micro\Arduino\Builds\IREC_2017\chipKIT_chipkit_pic32_fubarino_sd/core.a(HardwareSerial_usb.c.o)
other_attached      0x1               C:\Users\nukem419\AppData\Local\V.Micro\Arduino\Builds\IREC_2017\chipKIT_chipkit_pic32_fubarino_sd/core.a(HardwareSerial_usb.c.o)
gCdcacm_attached_count
                    0x4               C:\Users\nukem419\AppData\Local\V.Micro\Arduino\Builds\IREC_2017\chipKIT_chipkit_pic32_fubarino_sd/core.a(HardwareSerial_usb.c.o)
gCdcacm_attached    0x1               C:\Users\nukem419\AppData\Local\V.Micro\Arduino\Builds\IREC_2017\chipKIT_chipkit_pic32_fubarino_sd/core.a(HardwareSerial_usb.c.o)
scsi_attached       0x1               C:\Users\nukem419\AppData\Local\V.Micro\Arduino\Builds\IREC_2017\chipKIT_chipkit_pic32_fubarino_sd/core.a(HardwareSerial_usb.c.o)
_analogRead_channelNumber
                    0x1               C:\Users\nukem419\AppData\Local\V.Micro\Arduino\Builds\IREC_2017\chipKIT_chipkit_pic32_fubarino_sd/core.a(wiring_analog.c.o)
__PIC32_pbClk       0x4               C:\Users\nukem419\AppData\Local\V.Micro\Arduino\Builds\IREC_2017\chipKIT_chipkit_pic32_fubarino_sd/core.a(wiring.c.o)
cdc_attached        0x1               C:\Users\nukem419\AppData\Local\V.Micro\Arduino\Builds\IREC_2017\chipKIT_chipkit_pic32_fubarino_sd/core.a(HardwareSerial_usb.c.o)
endpoints           0x180             C:\Users\nukem419\AppData\Local\V.Micro\Arduino\Builds\IREC_2017\chipKIT_chipkit_pic32_fubarino_sd/core.a(HardwareSerial_usb.c.o)
bulk_in_ep          0x1               C:\Users\nukem419\AppData\Local\V.Micro\Arduino\Builds\IREC_2017\chipKIT_chipkit_pic32_fubarino_sd/core.a(HardwareSerial_usb.c.o)

Microchip PIC32 Memory-Usage Report

kseg0 Program-Memory Usage
section                    address  length [bytes]      (dec)  Description
-------                 ----------  -------------------------  -----------
.reset                  0x9d001000            0x8           8  Reset handler 
.startup                0x9d001008          0x200         512  C startup code 
.text                   0x9d001208          0x3dc         988  App's exec code 
.init                   0x9d0015e4           0x24          36   
.fini                   0x9d001608           0x1c          28   
.ctors                  0x9d001624           0x14          20   
.dtors                  0x9d001638            0x8           8   
.header_info            0x9d001640           0x4c          76   
.rodata                 0x9d00168c          0x18c         396  Read-only const 
.text.loop              0x9d001818         0x1c80        7296   
.text._strtod_r         0x9d003498         0x12dc        4828   
.text.__ieee754_pow     0x9d004774         0x1124        4388   
.dinit                  0x9d005898         0x1010        4112   
.text._mav_finalize_mes 0x9d0068a8          0xbbc        3004   
.text.IntUSB1Handler    0x9d007464          0x844        2116   
.text                   0x9d007ca8          0xfe8        4072  App's exec code 
.text._ZN5EM50610proces 0x9d008c90          0x798        1944   
.text.__gethex          0x9d009428          0x78c        1932   
.text                   0x9d009bb4          0x6ec        1772  App's exec code 
.text._malloc_r         0x9d00a2a0          0x6b4        1716   
.text._ZN5EM50610proces 0x9d00a954          0x66c        1644   
.text._realloc_r        0x9d00afc0          0x5cc        1484   
.text._ZN5EM50610proces 0x9d00b58c          0x5a0        1440   
.text                   0x9d00bb2c          0x524        1316  App's exec code 
.text.pow               0x9d00c050          0x514        1300   
.text                   0x9d00c564          0xdd0        3536  App's exec code 
.text._ZN5EM50610proces 0x9d00d334          0x468        1128   
.text._ZN9MEMS_GyroC2Ev 0x9d00d79c          0x3e8        1000   
.text._ZN6SdFile5writeE 0x9d00db84          0x3a8         936   
.text._ZN5EM50610proces 0x9d00df2c          0x394         916   
.text                   0x9d00e2c0          0x380         896  App's exec code 
.text._ZN9MEMS_Gyro7run 0x9d00e640          0x35c         860   
.text._ZN5EM50610proces 0x9d00e99c          0x31c         796   
.text._ZN5Print10printF 0x9d00ecb8          0x31c         796   
.text._ZN10DataLogger9r 0x9d00efd4          0x30c         780   
.text.__ieee754_fmod    0x9d00f2e0          0x308         776   
.text._ZN5EM5066getLocE 0x9d00f5e8          0x2e0         736   
.text.cdcacm_print      0x9d00f8c8          0x2d4         724   
.text                   0x9d00fb9c          0x2c8         712  App's exec code 
.text._ZN6SdFile4openEP 0x9d00fe64          0x280         640   
.text._free_r           0x9d0100e4          0x280         640   
.text._ZN7Sd2Card4initE 0x9d010364          0x26c         620   
.text._ZN4DTWI12slaveMa 0x9d0105d0          0x26c         620   
.text._ZN6SdFile4readEP 0x9d01083c          0x25c         604   
.text.__ieee754_sqrt    0x9d010a98          0x25c         604   
.text._ZN4DTWI9getStatu 0x9d010cf4          0x258         600   
.text._ZN5EM5068setQuer 0x9d010f4c          0x24c         588   
.text                   0x9d011198          0x24c         588  App's exec code 
.text.CoreTimerHandler  0x9d0113e4          0x240         576   
.text._ZN5EM5066runGPSE 0x9d011624          0x238         568   
.text._ZN4DTWI11startMa 0x9d01185c          0x228         552   
.text._ZN6BMP18012pullP 0x9d011a84          0x224         548   
.text._ZN7SDClass12getP 0x9d011ca8          0x220         544   
.text._ZN7SDClass4openE 0x9d011ec8          0x214         532   
.text.__hexnan          0x9d0120dc          0x214         532   
.text._ZN4DTWI13masterM 0x9d0122f0          0x208         520   
.text.rint              0x9d0124f8          0x204         516   
.text._ZN8SdVolume4init 0x9d0126fc          0x1f0         496   
.text._ZN4DTWI4readEPhm 0x9d0128ec          0x1e0         480   
.text.__multiply        0x9d012acc          0x1e0         480   
.text._ZN4DTWI5writeEPK 0x9d012cac          0x1d4         468   
.text._ZN6BMP18011pullC 0x9d012e80          0x1d4         468   
.text.setStrings        0x9d013054          0x1d4         468   
.text._scheduleTask     0x9d013228          0x1cc         460   
.text                   0x9d0133f4          0x1bc         444  App's exec code 
.text._ZN10DataLogger10 0x9d0135b0          0x1a8         424   
.text._strtol_r         0x9d013758          0x1a8         424   
.text._ZN8SdVolume15all 0x9d013900          0x19c         412   
.text._ZN7Sd2Card8readD 0x9d013a9c          0x180         384   
.text._ZN10MEMS_AccelC2 0x9d013c1c          0x180         384   
.rodata._ctype_b._ctype 0x9d013d9c          0x180         384   
.text._GLOBAL__sub_I__Z 0x9d013f1c          0x16c         364   
.text._Z8walkPathPcR6Sd 0x9d014088          0x164         356   
.text._ZN6SdFile8trunca 0x9d0141ec          0x164         356   
.text._ZN4DTWI11beginMa 0x9d014350          0x164         356   
.text.scalbn            0x9d0144b4          0x164         356   
.text.__mdiff           0x9d014618          0x164         356   
.text.fmod              0x9d01477c          0x160         352   
.text._sbrk_init        0x9d0148dc          0x158         344   
.text._ZN6BMP180C2EP10P 0x9d014a34          0x154         340   
.text.__lshift          0x9d014b88          0x154         340   
.text._ZL28read_encoded 0x9d014cdc          0x150         336   
.text._ZN14HardwareSeri 0x9d014e2c          0x140         320   
.text.IntSer0Handler    0x9d014f6c          0x13c         316   
.text.IntSer1Handler    0x9d0150a8          0x13c         316   
.text.IntSer2Handler    0x9d0151e4          0x13c         316   
.text.IntSer3Handler    0x9d015320          0x13c         316   
.text.IntSer4Handler    0x9d01545c          0x13c         316   
.text.IntSer5Handler    0x9d015598          0x13c         316   
.text.IntDtwi0Handler   0x9d0156d4          0x138         312   
.text._ZN6BMP18012runBa 0x9d01580c          0x134         308   
.text.cdcacm_bulk_trans 0x9d015940          0x130         304   
.text.__d2b             0x9d015a70          0x130         304   
.text._ZN8SdVolume6fatP 0x9d015ba0          0x128         296   
.text._ZNK10__cxxabiv12 0x9d015cc8          0x128         296   
.text._ZN5EM5067getTime 0x9d015df0          0x124         292   
.text.cdcacm_control_tr 0x9d015f14          0x11c         284   
.text                   0x9d016030          0x11c         284  App's exec code 
.text._malloc_trim_r    0x9d01614c          0x11c         284   
.text._ZN6SdFile7seekSe 0x9d016268          0x118         280   
.text.__s2b             0x9d016380          0x118         280   
.text._ZN6SdFile15openC 0x9d016498          0x110         272   
.text._ZN4DTWI12stateMa 0x9d0165a8          0x110         272   
.text._ZN9USBSerial5wri 0x9d0166b8          0x110         272   
.text                   0x9d0167c8          0x110         272  App's exec code 
.text._Z19USBstoreDataR 0x9d0168d8          0x10c         268   
.text                   0x9d0169e4          0x10c         268  App's exec code 
.text.__multadd         0x9d016af0          0x10c         268   
.text.__pow5mult        0x9d016bfc          0x108         264   
.text._ZN4DTWIC2EP7p32_ 0x9d016d04          0x104         260   
.text._ZN4DTWI10stopMas 0x9d016e08          0x100         256   
.rodata._ZZ25mavlink_fr 0x9d016f08          0x100         256   
.text.pinMode           0x9d017008          0x100         256   
.rodata                 0x9d017108          0x100         256  Read-only const 
.text._ZN6SdFile4syncEv 0x9d017208           0xf4         244   
.text._ZN7Sd2Card10writ 0x9d0172fc           0xf0         240   
.text._ZL17parse_lsda_h 0x9d0173ec           0xec         236   
.text.init              0x9d0174d8           0xe8         232   
.text.usb_device_enqueu 0x9d0175c0           0xe8         232   
.text.usb_initialize    0x9d0176a8           0xe8         232   
.text                   0x9d017790           0xe8         232  App's exec code 
.text.__b2d             0x9d017878           0xe4         228   
.text._ZN7Sd2Card11card 0x9d01795c           0xe0         224   
.text._ZNK8SdVolume6fat 0x9d017a3c           0xe0         224   
.text._ZN7TwoWire11requ 0x9d017b1c           0xdc         220   
.text._ZN6Stream15readS 0x9d017bf8           0xdc         220   
.text._ZN6SdFile10make8 0x9d017cd4           0xd4         212   
.text._ZN10Parameters12 0x9d017da8           0xd4         212   
.text._ZN4FileC2E6SdFil 0x9d017e7c           0xd0         208   
.text._ZNK8SdVolume9cha 0x9d017f4c           0xd0         208   
.text.digitalWrite      0x9d01801c           0xd0         208   
.text._ZN5EM506C2Ev     0x9d0180ec           0xcc         204   
.rodata.__mprec_tens.__ 0x9d0181b8           0xc8         200   
.text._ZN6SdFile8openRo 0x9d018280           0xc4         196   
.text._ZN7TwoWire15endT 0x9d018344           0xc4         196   
.text._ZN8SdVolume9free 0x9d018408           0xc0         192   
.text._ZN6SdFile13addDi 0x9d0184c8           0xbc         188   
.text._ZN6String6concat 0x9d018584           0xbc         188   
.text.rshift            0x9d018640           0xbc         188   
.text.__lo0bits         0x9d0186fc           0xbc         188   
.text._sbrk             0x9d0187b8           0xbc         188   
.text._ZL5onI2CiPv      0x9d018874           0xb8         184   
.text._ZN6BMP1808pullTe 0x9d01892c           0xb4         180   
.text._calloc_r         0x9d0189e0           0xb4         180   
.text._ZN7Sd2Card14wait 0x9d018a94           0xb0         176   
.text._ZN6BMP1809pullBy 0x9d018b44           0xb0         176   
.text._ZN5Print11printN 0x9d018bf4           0xb0         176   
.text._ZN5Print5printEl 0x9d018ca4           0xb0         176   
.text._ZNK6String9subst 0x9d018d54           0xb0         176   
.text._ZL15get_ttype_en 0x9d018e04           0xb0         176   
.text                   0x9d018eb4           0xb0         176  App's exec code 
.text._raise_r          0x9d018f64           0xb0         176   
.text._ZN6BMP18012pullA 0x9d019014           0xac         172   
.text._ZN9MEMS_Gyro9pul 0x9d0190c0           0xac         172   
.text._ZN10MEMS_Accel9p 0x9d01916c           0xac         172   
.text._ZN9USBSerial4rea 0x9d019218           0xac         172   
.text._ZN14HardwareSeri 0x9d0192c4           0xac         172   
.text.__cxa_begin_catch 0x9d019370           0xac         172   
.text._Balloc           0x9d01941c           0xac         172   
.text._ZN10ParametersC2 0x9d0194c8           0xa8         168   
.text._ZL21base_of_enco 0x9d019570           0xa0         160   
.text._ZN8SdVolume10cac 0x9d019610           0x9c         156   
.text.cdcacm_command_ac 0x9d0196ac           0x9c         156   
.text._ZN7SDClass5begin 0x9d019748           0x98         152   
.text.setup             0x9d0197e0           0x98         152   
.text._ZN14HardwareSeri 0x9d019878           0x98         152   
.text._Z20getNextPathCo 0x9d019910           0x94         148   
.text._ZN6StringC2Ehh   0x9d0199a4           0x94         148   
.text.cdcacm_register   0x9d019a38           0x94         148   
.text._ZNK10__cxxabiv11 0x9d019acc           0x94         148   
.text._ZN10MEMS_Accel8r 0x9d019b60           0x90         144   
.text._ZN6String4copyEP 0x9d019bf0           0x90         144   
.text.__ratio           0x9d019c80           0x90         144   
.text._ZL16get_adjusted 0x9d019d10           0x8c         140   
.text._ZN4File4peekEv   0x9d019d9c           0x88         136   
.text._Z6spiRecv        0x9d019e24           0x88         136   
.text._Z7spiSendh       0x9d019eac           0x88         136   
.text._ZN7Sd2Card9write 0x9d019f34           0x88         136   
.text._ZN8SdVolume13cac 0x9d019fbc           0x88         136   
.text._ZN7TwoWire17begi 0x9d01a044           0x88         136   
.text._configSystem     0x9d01a0cc           0x88         136   
.text.__any_on          0x9d01a154           0x88         136   
.text._ZN7Sd2Card11wait 0x9d01a1dc           0x84         132   
.text.itoa              0x9d01a260           0x84         132   
.text._ZN6SdFile12readD 0x9d01a2e4           0x80         128   
.text._ZN4DTWI14forceId 0x9d01a364           0x80         128   
.text.micros            0x9d01a3e4           0x80         128   
.text                   0x9d01a464           0x80         128  App's exec code 
.text._ZN4DTWI16primeMa 0x9d01a4e4           0x7c         124   
.text._ZN5EM5068checksu 0x9d01a560           0x7c         124   
.text.digitalRead       0x9d01a5dc           0x7c         124   
.text.initIntVector     0x9d01a658           0x7c         124   
.text._ZNK10__cxxabiv11 0x9d01a6d4           0x7c         124   
.text._ZNK10__cxxabiv12 0x9d01a750           0x7c         124   
.text._ZN5Print5writeEP 0x9d01a7cc           0x78         120   
.text._ZN6StringaSEPKc  0x9d01a844           0x78         120   
.text._ZN6String6remove 0x9d01a8bc           0x78         120   
.text.cdcacm_reset      0x9d01a934           0x78         120   
.text                   0x9d01a9ac           0xf0         240  App's exec code 
.text.memmove           0x9d01aa9c           0x78         120   
.text._ZN6SdFile6remove 0x9d01ab14           0x74         116   
.text._ZN6Stream9readBy 0x9d01ab88           0x74         116   
.text._ZNK10__cxxabiv12 0x9d01abfc           0x74         116   
.text                   0x9d01ac70           0x74         116  App's exec code 
.text.__hi0bits         0x9d01ace4           0x74         116   
.text._ZN6Stream9timedR 0x9d01ad58           0x70         112   
.text._ZN6StringaSERKS_ 0x9d01adc8           0x70         112   
.text._updateTaskEvent  0x9d01ae38           0x6c         108   
.text.destroyTask       0x9d01aea4           0x6c         108   
.text._ZN6String7reserv 0x9d01af10           0x6c         108   
.text                   0x9d01af7c           0x6c         108  App's exec code 
.text._ZNK10__cxxabiv11 0x9d01afe8           0x68         104   
.text._Znwm             0x9d01b050           0x68         104   
.text                   0x9d01b0b8           0xd0         208  App's exec code 
.text._ZN6BMP1809pushBy 0x9d01b188           0x64         100   
.text._ZN9MEMS_Gyro9pus 0x9d01b1ec           0x64         100   
.text._ZN10MEMS_Accel9p 0x9d01b250           0x64         100   
.text.__cxa_call_termin 0x9d01b2b4           0x64         100   
.text.__fpclassifyd     0x9d01b318           0x64         100   
.text.strcmp            0x9d01b37c           0x64         100   
.text.__mcmp            0x9d01b3e0           0x64         100   
.text._ZN6SdFile10addCl 0x9d01b444           0x60          96   
.text._ZN8SdVolume14cac 0x9d01b4a4           0x60          96   
.text._ZN5DTWI0C2Ev     0x9d01b504           0x60          96   
.rodata                 0x9d01b564            0x4           4  Read-only const 
.rodata                 0x9d01b568           0x60          96  Read-only const 
.text._ZplRK15StringSum 0x9d01b5c8           0x60          96   
.text.turnOffPWM        0x9d01b628           0x60          96   
.text.__ulp             0x9d01b688           0x60          96   
.text.setIntPriority    0x9d01b6e8           0x5c          92   
.text._ZN6StringC2EPKc  0x9d01b744           0x5c          92   
.text._ZplRK15StringSum 0x9d01b7a0           0x5c          92   
.rodata.digital_pin_to_ 0x9d01b7fc           0x5c          92   
.rodata.digital_pin_to_ 0x9d01b858           0x5c          92   
.text._ZNK10__cxxabiv11 0x9d01b8b4           0x5c          92   
.text                   0x9d01b910           0x5c          92  App's exec code 
.text.__copybits        0x9d01b96c           0x5c          92   
.text._ZN10ParametersD2 0x9d01b9c8           0x58          88   
.text.delay             0x9d01ba20           0x58          88   
.text._ZN7TwoWire5begin 0x9d01ba78           0x54          84   
.text._ZN9USBSerial5wri 0x9d01bacc           0x54          84   
.text._ZplRK15StringSum 0x9d01bb20           0x54          84   
.text._ZNK6String7index 0x9d01bb74           0x54          84   
.text._kill_r           0x9d01bbc8           0x54          84   
.text._ZN7Sd2Card7readE 0x9d01bc1c           0x50          80   
.text._ZN6SdFile5closeE 0x9d01bc6c           0x50          80   
.text._ZN6SdFile6remove 0x9d01bcbc           0x50          80   
.text._ZN5EM50614getCou 0x9d01bd0c           0x50          80   
.text._ZN5Print5printEP 0x9d01bd5c           0x50          80   
.text._ZplRK15StringSum 0x9d01bdac           0x50          80   
.text._ZL12read_sleb128 0x9d01bdfc           0x50          80   
.text._ZNKSt9type_info1 0x9d01be4c           0x50          80   
.text._sbrk_r           0x9d01be9c           0x50          80   
.text.strncmp           0x9d01beec           0x50          80   
.rodata                 0x9d01bf3c            0x4           4  Read-only const 
.rodata                 0x9d01bf40           0x50          80  Read-only const 
.text.sbrk              0x9d01bf90           0x50          80   
.text._ZN4File4readEv   0x9d01bfe0           0x48          72   
.text._ZN6BMP18011isDat 0x9d01c028           0x48          72   
.text._ZN6String6concat 0x9d01c070           0x48          72   
.text._ZN6String6concat 0x9d01c0b8           0x48          72   
.text._ZNKSt9type_infoe 0x9d01c100           0x90         144   
.text                   0x9d01c190           0x90         144  App's exec code 
.text.match             0x9d01c220           0x48          72   
.text.L_shift           0x9d01c268           0x48          72   
.text._bootstrap_except 0x9d01c2b0           0x48          72   
.text.millisecondCoreTi 0x9d01c2f8           0x44          68   
.text._ZN9USBSerial11ge 0x9d01c33c           0x44          68   
.rodata.cdcacm_configur 0x9d01c380           0x44          68   
.text                   0x9d01c3c4           0x44          68  App's exec code 
.text.__hexdig_init     0x9d01c408           0x44          68   
.text._ZN4File5closeEv  0x9d01c44c           0x40          64   
.text                   0x9d01c48c           0x40          64  App's exec code 
.text._GLOBAL__sub_I__Z 0x9d01c4cc           0x3c          60   
.text._ZN7TwoWire4readE 0x9d01c508           0x3c          60   
.text._ZN5EM50612getAct 0x9d01c544           0x3c          60   
.text._ZN14HardwareSeri 0x9d01c580           0x3c          60   
.text._ZNK6String7toFlo 0x9d01c5bc           0x3c          60   
.text.strncpy           0x9d01c5f8           0x3c          60   
.text._ZN10DataLoggerC2 0x9d01c634           0x38          56   
.text._ZN10Parameters12 0x9d01c66c           0x38          56   
.text._ZN10Parameters13 0x9d01c6a4           0x38          56   
.text.setIntEnable      0x9d01c6dc           0x38          56   
.rodata                 0x9d01c718           0x38          56  Read-only const 
.text.memcmp            0x9d01c750           0x38          56   
.text.strchr            0x9d01c788           0x38          56   
.text.main_entry        0x9d01c7c0           0x34          52   
.text._ZN4File9availabl 0x9d01c7f4           0x34          52   
.text._ZN10Parameters10 0x9d01c828           0x34          52   
.text.getTaskId         0x9d01c85c           0x34          52   
.text._ZN6StringC2Ec    0x9d01c890           0x34          52   
.text._ZL12read_uleb128 0x9d01c8c4           0x34          52   
.text.strtol            0x9d01c8f8           0x34          52   
.text.__i2b             0x9d01c92c           0x34          52   
.text._ZN4File5writeEh  0x9d01c960           0x30          48   
.text.setIntVector      0x9d01c990           0x30          48   
.text.main              0x9d01c9c0           0x30          48   
.rodata                 0x9d01c9f0           0x30          48  Read-only const 
.rodata.digital_pin_to_ 0x9d01ca20           0x30          48   
.text.htinit.constprop. 0x9d01ca50           0x30          48   
.text._ZN7TwoWire5write 0x9d01ca80           0x2c          44   
.text._ZN9USBSerial9ava 0x9d01caac           0x2c          44   
.text._ZN9USBSerial5beg 0x9d01cad8           0x2c          44   
.text._ZN10__cxxabiv117 0x9d01cb04           0x2c          44   
.text._ZN10__cxxabiv120 0x9d01cb30           0x2c          44   
.text.memcpy            0x9d01cb5c           0x2c          44   
.text.realloc           0x9d01cb88           0x2c          44   
.text.strtod            0x9d01cbb4           0x2c          44   
.text._Bfree            0x9d01cbe0           0x2c          44   
.text._stub_sbd_memlayo 0x9d01cc0c           0x2c          44   
.text._ZN6SdFile5writeE 0x9d01cc38           0x28          40   
.text._initTaskManager  0x9d01cc60           0x28          40   
.text._enableMultiVecto 0x9d01cc88           0x28          40   
.text._ZN14HardwareSeri 0x9d01ccb0           0x28          40   
.text._ZN9USBSerial4pee 0x9d01ccd8           0x28          40   
.text._ZN9USBSerial5wri 0x9d01cd00           0x28          40   
.text._ZN6String6concat 0x9d01cd28           0x28          40   
.text._ZNK6String6charA 0x9d01cd50           0x28          40   
.text._ZdlPv            0x9d01cd78           0x28          40   
.rodata.tinytens.tinyte 0x9d01cda0           0x28          40   
.rodata.__mprec_bigtens 0x9d01cdc8           0x28          40   
.text._ZN4FileC2Ev      0x9d01cdf0           0x24          36   
.text._ZN7Sd2Card9readB 0x9d01ce14           0x24          36   
.text._ZN14HardwareSeri 0x9d01ce38           0x24          36   
.rodata                 0x9d01ce5c           0x24          36  Read-only const 
.rodata.port_to_tris_PG 0x9d01ce80           0x24          36   
.text._ZN10__cxxabiv117 0x9d01cea4           0x24          36   
.text._ZN10__cxxabiv120 0x9d01cec8           0x24          36   
.text._ZNSt9type_infoD0 0x9d01ceec           0x24          36   
.text.malloc            0x9d01cf10           0x24          36   
.text.free              0x9d01cf34           0x24          36   
.text.memset            0x9d01cf58           0x24          36   
.text.raise             0x9d01cf7c           0x24          36   
.text.strcpy            0x9d01cfa0           0x24          36   
.text._ZN4FilecvbEv     0x9d01cfc4           0x20          32   
.text._ZN6BMP1809startT 0x9d01cfe4           0x20          32   
.text._ZN6BMP18013start 0x9d01d004           0x20          32   
.rodata                 0x9d01d028           0x20          32  Read-only const 
.text._ZN14HardwareSeri 0x9d01d048           0x20          32   
.rodata                 0x9d01d068           0x20          32  Read-only const 
.text.atol              0x9d01d088           0x20          32   
.text._ZN4File5flushEv  0x9d01d0a8           0x1c          28   
.text._ZN4File4seekEm   0x9d01d0c4           0x1c          28   
.text._Z15callback_remo 0x9d01d0e0           0x1c          28   
.text._ZN7SDClass6remov 0x9d01d0fc           0x1c          28   
.text._ZN6SdFile4syncEv 0x9d01d118           0x1c          28   
.text._ZN6SdFile4openEP 0x9d01d134           0x1c          28   
.text._ZN7TwoWire9avail 0x9d01d150           0x1c          28   
.rodata                 0x9d01d16c           0x1c          28  Read-only const 
.text.restoreInterrupts 0x9d01d188           0x1c          28   
.text.getPeripheralCloc 0x9d01d1a4           0x1c          28   
.text._ZN14HardwareSeri 0x9d01d1c0           0x1c          28   
.text._ZN5Print5printEm 0x9d01d1dc           0x1c          28   
.text._ZNK6String5toInt 0x9d01d1f8           0x1c          28   
.text._ZNK10__cxxabiv11 0x9d01d214           0x1c          28   
.text.copysign          0x9d01d230           0x1c          28   
.text.atof              0x9d01d24c           0x1c          28   
.text._getpid_r         0x9d01d268           0x1c          28   
.rodata                 0x9d01d284           0x34          52  Read-only const 
.text._ZN5Print5printER 0x9d01d2b8           0x18          24   
.rodata                 0x9d01d2d0           0x18          24  Read-only const 
.text._ZN10__cxxabiv111 0x9d01d2e8           0x18          24   
.text._ZN10__cxxabiv112 0x9d01d300           0x18          24   
.text.abort             0x9d01d318           0x18          24   
.text                   0x9d01d330           0x30          48  App's exec code 
.rodata                 0x9d01d360           0x14          20  Read-only const 
.text._ZN6StringC2ERKS_ 0x9d01d374           0x14          20   
.rodata.cdcacm_device_d 0x9d01d388           0x14          20   
.text._board_init       0x9d01d39c           0x14          20   
.text._ZSt9terminatev   0x9d01d3b0           0x14          20   
.text._ZSt10unexpectedv 0x9d01d3c4           0x14          20   
.text.finite            0x9d01d3d8           0x14          20   
.text.nan               0x9d01d3ec           0x14          20   
.rodata                 0x9d01d400           0x14          20  Read-only const 
.text._ZN4FileD2Ev      0x9d01d414           0x10          16   
.rodata                 0x9d01d424           0x10          16  Read-only const 
.text._ZN7TwoWire5write 0x9d01d434           0x10          16   
.text._initCoreTimer    0x9d01d444           0x10          16   
.text._ZN9USBSerial5flu 0x9d01d454           0x10          16   
.rodata                 0x9d01d468           0x10          16  Read-only const 
.text.usb_register      0x9d01d478           0x10          16   
.text._ZNSt9type_infoD2 0x9d01d488           0x10          16   
.rodata.Zero.Zero       0x9d01d498           0x10          16   
.rodata.bp.bp           0x9d01d4a8           0x10          16   
.rodata.dp_h.dp_h       0x9d01d4b8           0x10          16   
.rodata.dp_l.dp_l       0x9d01d4c8           0x10          16   
.text.fabs              0x9d01d4d8           0x10          16   
.rodata.TWO52.TWO52     0x9d01d4e8           0x10          16   
.text._ZN4File5writeEPK 0x9d01d4f8            0xc          12   
.text._GLOBAL__sub_I__Z 0x9d01d504            0xc          12   
.text.millis            0x9d01d510            0xc          12   
.text.disableInterrupts 0x9d01d51c            0xc          12   
.text.readCoreTimer     0x9d01d528            0xc          12   
.text._ZN14HardwareSeri 0x9d01d534            0xc          12   
.text._ZN5Print5printEd 0x9d01d540            0xc          12   
.text._ZNK6String7index 0x9d01d54c            0xc          12   
.text.usb_device_descri 0x9d01d558            0xc          12   
.text.usb_configuration 0x9d01d564            0xc          12   
.text.usb_string_descri 0x9d01d570            0xc          12   
.text.__cxa_get_globals 0x9d01d57c            0xc          12   
.text.__errno           0x9d01d588            0xc          12   
.text._localeconv_r     0x9d01d594            0xc          12   
.rodata.p05.2611.p05    0x9d01d5a0            0xc          12   
.text._ZN7TwoWire15endT 0x9d01d5ac            0x8           8   
.text._ZN6BMP180D2Ev    0x9d01d5b4            0x8           8   
.text._ZN10DataLoggerD2 0x9d01d5bc            0x8           8   
.text._ZN5EM506D2Ev     0x9d01d5c4            0x8           8   
.text._ZN9MEMS_GyroD2Ev 0x9d01d5cc            0x8           8   
.text._ZN10MEMS_AccelD2 0x9d01d5d4            0x8           8   
.text._ZN10Parameters8g 0x9d01d5dc            0x8           8   
.text._Z15USBresetRouti 0x9d01d5e4            0x8           8   
.text._ZN5Print5printEh 0x9d01d5ec            0x8           8   
.text._ZN6StringD2Ev    0x9d01d5f4            0x8           8   
.text.cdcacm_get_line_c 0x9d01d5fc            0x8           8   
.text._ZNKSt9type_info1 0x9d01d604            0x8           8   
.text._ZNKSt9type_info1 0x9d01d60c            0x8           8   
.text._ZNKSt9type_info1 0x9d01d614            0x8           8   
.rodata                 0x9d01d61c            0x8           8  Read-only const 
.text.matherr           0x9d01d624            0x8           8   
.rodata                 0x9d01d630            0x8           8  Read-only const 
.text.__malloc_lock     0x9d01d638            0x8           8   
.text.__malloc_unlock   0x9d01d640            0x8           8   
.text._on_reset         0x9d01d648            0x8           8   
.text._on_bootstrap     0x9d01d650            0x8           8   
.text._exit             0x9d01d658            0x8           8   
.text.kill              0x9d01d660            0x8           8   
.text.getpid            0x9d01d668            0x8           8   
      Total kseg0_program_mem used  :     0x1c660      116320  22.5% of 0x7e000

kseg0 Boot-Memory Usage
section                    address  length [bytes]      (dec)  Description
-------                 ----------  -------------------------  -----------
         Total kseg0_boot_mem used  :           0           0  

Exception-Memory Usage 
section                    address  length [bytes]      (dec)  Description
-------                 ----------  -------------------------  -----------
.image_ptr_table        0x9d0000f8            0x8           8   
.app_excpt              0x9d000180           0x10          16  General-Exception 
.vector_0               0x9d000200           0x14          20  Interrupt Vector 0 
.vector_1               0x9d000220           0x14          20  Interrupt Vector 1 
.vector_2               0x9d000240           0x14          20  Interrupt Vector 2 
.vector_3               0x9d000260           0x14          20  Interrupt Vector 3 
.vector_4               0x9d000280           0x14          20  Interrupt Vector 4 
.vector_5               0x9d0002a0           0x14          20  Interrupt Vector 5 
.vector_6               0x9d0002c0           0x14          20  Interrupt Vector 6 
.vector_7               0x9d0002e0           0x14          20  Interrupt Vector 7 
.vector_8               0x9d000300           0x14          20  Interrupt Vector 8 
.vector_9               0x9d000320           0x14          20  Interrupt Vector 9 
.vector_10              0x9d000340           0x14          20  Interrupt Vector 10 
.vector_11              0x9d000360           0x14          20  Interrupt Vector 11 
.vector_12              0x9d000380           0x14          20  Interrupt Vector 12 
.vector_13              0x9d0003a0           0x14          20  Interrupt Vector 13 
.vector_14              0x9d0003c0           0x14          20  Interrupt Vector 14 
.vector_15              0x9d0003e0           0x14          20  Interrupt Vector 15 
.vector_16              0x9d000400           0x14          20  Interrupt Vector 16 
.vector_17              0x9d000420           0x14          20  Interrupt Vector 17 
.vector_18              0x9d000440           0x14          20  Interrupt Vector 18 
.vector_19              0x9d000460           0x14          20  Interrupt Vector 19 
.vector_20              0x9d000480           0x14          20  Interrupt Vector 20 
.vector_21              0x9d0004a0           0x14          20  Interrupt Vector 21 
.vector_22              0x9d0004c0           0x14          20  Interrupt Vector 22 
.vector_23              0x9d0004e0           0x14          20  Interrupt Vector 23 
.vector_24              0x9d000500           0x14          20  Interrupt Vector 24 
.vector_25              0x9d000520           0x14          20  Interrupt Vector 25 
.vector_26              0x9d000540           0x14          20  Interrupt Vector 26 
.vector_27              0x9d000560           0x14          20  Interrupt Vector 27 
.vector_28              0x9d000580           0x14          20  Interrupt Vector 28 
.vector_29              0x9d0005a0           0x14          20  Interrupt Vector 29 
.vector_30              0x9d0005c0           0x14          20  Interrupt Vector 30 
.vector_31              0x9d0005e0           0x14          20  Interrupt Vector 31 
.vector_32              0x9d000600           0x14          20  Interrupt Vector 32 
.vector_33              0x9d000620           0x14          20  Interrupt Vector 33 
.vector_34              0x9d000640           0x14          20  Interrupt Vector 34 
.vector_35              0x9d000660           0x14          20  Interrupt Vector 35 
.vector_36              0x9d000680           0x14          20  Interrupt Vector 36 
.vector_37              0x9d0006a0           0x14          20  Interrupt Vector 37 
.vector_38              0x9d0006c0           0x14          20  Interrupt Vector 38 
.vector_39              0x9d0006e0           0x14          20  Interrupt Vector 39 
.vector_40              0x9d000700           0x14          20  Interrupt Vector 40 
.vector_41              0x9d000720           0x14          20  Interrupt Vector 41 
.vector_42              0x9d000740           0x14          20  Interrupt Vector 42 
.vector_43              0x9d000760           0x14          20  Interrupt Vector 43 
.vector_44              0x9d000780           0x14          20  Interrupt Vector 44 
.vector_45              0x9d0007a0           0x1c          28  Interrupt Vector 45 
.vector_46              0x9d0007c0           0x14          20  Interrupt Vector 46 
.vector_47              0x9d0007e0           0x14          20  Interrupt Vector 47 
.vector_48              0x9d000800           0x14          20  Interrupt Vector 48 
.vector_49              0x9d000820           0x14          20  Interrupt Vector 49 
.vector_50              0x9d000840           0x14          20  Interrupt Vector 50 
.vector_51              0x9d000860           0x14          20  Interrupt Vector 51 
.vector_52              0x9d000880           0x14          20  Interrupt Vector 52 
.vector_53              0x9d0008a0           0x14          20  Interrupt Vector 53 
.vector_54              0x9d0008c0           0x14          20  Interrupt Vector 54 
.vector_55              0x9d0008e0           0x14          20  Interrupt Vector 55 
.vector_56              0x9d000900           0x14          20  Interrupt Vector 56 
.vector_57              0x9d000920           0x14          20  Interrupt Vector 57 
.vector_58              0x9d000940           0x14          20  Interrupt Vector 58 
.vector_59              0x9d000960           0x14          20  Interrupt Vector 59 
.vector_60              0x9d000980           0x14          20  Interrupt Vector 60 
.vector_61              0x9d0009a0           0x14          20  Interrupt Vector 61 
.vector_62              0x9d0009c0           0x14          20  Interrupt Vector 62 
.vector_63              0x9d0009e0           0x14          20  Interrupt Vector 63 
          Total exception_mem used  :       0x520        1312  32.0% of 0x1000

kseg1 Boot-Memory Usage
section                    address  length [bytes]      (dec)  Description
-------                 ----------  -------------------------  -----------
         Total kseg1_boot_mem used  :           0           0  
        --------------------------------------------------------------------------
         Total Program Memory used  :     0x1cb80      117632  22.6% of 0x7f000
        --------------------------------------------------------------------------


kseg1 Data-Memory Usage
section                    address  length [bytes]      (dec)  Description
-------                 ----------  -------------------------  -----------
.dbg_data               0xa0000000          0x200         512  Memory reserved for debugger exec 
.ram_exchange_data      0xa0000200            0x8           8   
.data                   0xa0000208            0x4           4  Initialized data 
.sdata                  0xa000020c           0x28          40  Small init data 
.sbss                   0xa0000234           0xdc         220  Small uninit data 
.bss                    0xa0000310          0x180         384  Uninitialized data 
.bss.serial_buffer.seri 0xa0000490         0x1000        4096   
.bss._ZZ26mavlink_get_c 0xa0001490          0x440        1088   
.data.impure_data.impur 0xa00018d0          0x418        1048   
.data.__malloc_av_.__ma 0xa0001ce8          0x408        1032   
.bss.gRXbuffer.gRXbuffe 0xa00020f0          0x3f0        1008   
.bss.Serial5.Serial5    0xa00024e0          0x23c         572   
.bss.Serial4.Serial4    0xa000271c          0x23c         572   
.bss.Serial3.Serial3    0xa0002958          0x23c         572   
.bss.Serial2.Serial2    0xa0002b94          0x23c         572   
.bss.Serial1.Serial1    0xa0002dd0          0x23c         572   
.bss.Serial0.Serial0    0xa000300c          0x23c         572   
.bss.rx_bufferUSB.rx_bu 0xa0003248          0x208         520   
.bss._ZN8SdVolume12cach 0xa0003450          0x200         512   
.bss.__hexdig.__hexdig  0xa0003650          0x100         256   
.gcc_except_table       0xa0003750           0xb0         176   
.bss.bdt_ram.18769.bdt_ 0xa0003800          0x200         512   
.data._isr_primary_inst 0xa0003a00           0xd0         208   
.bss.rgtaskTable.rgtask 0xa0003ad0           0xa0         160   
.bss.di2c.di2c          0xa0003b70           0x6c         108   
.bss.SD.SD              0xa0003bdc           0x64         100   
.bss._ZZ26mavlink_get_c 0xa0003c40           0x40          64   
.bss.gRX_length.gRX_len 0xa0003c80           0x40          64   
.bss.gTXbuffer.gTXbuffe 0xa0003cc0           0x40          64   
.data.lconv.lconv       0xa0003d00           0x38          56   
.bss.__malloc_current_m 0xa0003d38           0x28          40   
.bss                    0xa0003d60           0x20          32  Uninitialized data 
.gcc_except_table       0xa0003d80           0x1e          30   
.data.gCoreTimerInfo.gC 0xa0003da0           0x18          24   
.bss.Serial.Serial      0xa0003db8           0x18          24   
.bss.mem.1296.mem       0xa0003dd0           0x18          24   
.data.fpi.2571.fpi      0xa0003de8           0x14          20   
.data.fpinan.2607.fpina 0xa0003dfc           0x14          20   
.gcc_except_table       0xa0003e10           0x1c          28   
.bss._ZL10eh_globals.eh 0xa0003e2c            0x8           8   
.data._ZN10__cxxabiv120 0xa0003e34            0x4           4   
.data._ZN10__cxxabiv119 0xa0003e38            0x4           4   
.bss.__new_handler.__ne 0xa0003e3c            0x4           4   
.libc.data.__fdlib_vers 0xa0003e40            0x4           4   
.bss                    0xa0003e44            0x4           4  Uninitialized data 
.libc.data._impure_ptr  0xa0003e48            0x4           4   
.data.__malloc_trim_thr 0xa0003e4c            0x4           4   
.bss.__malloc_top_pad._ 0xa0003e50            0x4           4   
.data.__malloc_sbrk_bas 0xa0003e54            0x4           4   
.bss.__malloc_max_sbrke 0xa0003e58            0x4           4   
.bss.__malloc_max_total 0xa0003e5c            0x4           4   
.libc.data.__ctype_ptr_ 0xa0003e60            0x4           4   
.bss.errno.errno        0xa0003e64            0x4           4   
.bss._minbrk._minbrk    0xa0003e68            0x4           4   
.bss._maxbrk._maxbrk    0xa0003e6c            0x4           4   
.bss.curbrk.curbrk      0xa0003e70            0x4           4   
         Total kseg1_data_mem used  :      0x3e72       15986  12.2% of 0x20000
        --------------------------------------------------------------------------
            Total Data Memory used  :      0x3e72       15986  12.2% of 0x20000
        --------------------------------------------------------------------------


Dynamic Data-Memory Reservation
section                    address  length [bytes]      (dec)  Description
-------                 ----------  -------------------------  -----------
heap                    0xa0003e78         0x8000       32768  Reserved for heap 
stack                   0xa000be90        0x14160       82272  Reserved for stack 

        --------------------------------------------------------------------------

Discarded input sections

 .text          0x00000000        0x0 C:\Users\nukem419\AppData\Local\Temp\ccQDZXfk.o
 .data          0x00000000        0x0 C:\Users\nukem419\AppData\Local\Temp\ccQDZXfk.o
 .bss           0x00000000        0x0 C:\Users\nukem419\AppData\Local\Temp\ccQDZXfk.o
 .reginfo       0x00000000       0x18 C:\Users\nukem419\AppData\Local\Temp\ccQDZXfk.o
 .text          0x00000000        0x0 C:\Users\nukem419\AppData\Local\V.Micro\Arduino\Builds\IREC_2017\chipKIT_chipkit_pic32_fubarino_sd\SD\File.cpp.o
 .data          0x00000000        0x0 C:\Users\nukem419\AppData\Local\V.Micro\Arduino\Builds\IREC_2017\chipKIT_chipkit_pic32_fubarino_sd\SD\File.cpp.o
 .bss           0x00000000        0x0 C:\Users\nukem419\AppData\Local\V.Micro\Arduino\Builds\IREC_2017\chipKIT_chipkit_pic32_fubarino_sd\SD\File.cpp.o
 .reginfo       0x00000000       0x18 C:\Users\nukem419\AppData\Local\V.Micro\Arduino\Builds\IREC_2017\chipKIT_chipkit_pic32_fubarino_sd\SD\File.cpp.o
 .text._ZN4File4nameEv
                0x00000000        0x8 C:\Users\nukem419\AppData\Local\V.Micro\Arduino\Builds\IREC_2017\chipKIT_chipkit_pic32_fubarino_sd\SD\File.cpp.o
 .text._ZN4File11isDirectoryEv
                0x00000000       0x24 C:\Users\nukem419\AppData\Local\V.Micro\Arduino\Builds\IREC_2017\chipKIT_chipkit_pic32_fubarino_sd\SD\File.cpp.o
 .text._ZN4File4readEPvt
                0x00000000       0x30 C:\Users\nukem419\AppData\Local\V.Micro\Arduino\Builds\IREC_2017\chipKIT_chipkit_pic32_fubarino_sd\SD\File.cpp.o
 .text._ZN4File8positionEv
                0x00000000       0x1c C:\Users\nukem419\AppData\Local\V.Micro\Arduino\Builds\IREC_2017\chipKIT_chipkit_pic32_fubarino_sd\SD\File.cpp.o
 .text._ZN4File4sizeEv
                0x00000000       0x1c C:\Users\nukem419\AppData\Local\V.Micro\Arduino\Builds\IREC_2017\chipKIT_chipkit_pic32_fubarino_sd\SD\File.cpp.o
 .gnu.linkonce.r._ZTV6Stream._ZTV6Stream
                0x00000000       0x20 C:\Users\nukem419\AppData\Local\V.Micro\Arduino\Builds\IREC_2017\chipKIT_chipkit_pic32_fubarino_sd\SD\File.cpp.o
 .text          0x00000000        0x0 C:\Users\nukem419\AppData\Local\V.Micro\Arduino\Builds\IREC_2017\chipKIT_chipkit_pic32_fubarino_sd\SD\SD.cpp.o
 .data          0x00000000        0x0 C:\Users\nukem419\AppData\Local\V.Micro\Arduino\Builds\IREC_2017\chipKIT_chipkit_pic32_fubarino_sd\SD\SD.cpp.o
 .bss           0x00000000        0x0 C:\Users\nukem419\AppData\Local\V.Micro\Arduino\Builds\IREC_2017\chipKIT_chipkit_pic32_fubarino_sd\SD\SD.cpp.o
 .reginfo       0x00000000       0x18 C:\Users\nukem419\AppData\Local\V.Micro\Arduino\Builds\IREC_2017\chipKIT_chipkit_pic32_fubarino_sd\SD\SD.cpp.o
 .text._Z19callback_pathExistsR6SdFilePchPv
                0x00000000       0x5c C:\Users\nukem419\AppData\Local\V.Micro\Arduino\Builds\IREC_2017\chipKIT_chipkit_pic32_fubarino_sd\SD\SD.cpp.o
 .text._Z20callback_makeDirPathR6SdFilePchPv
                0x00000000       0x60 C:\Users\nukem419\AppData\Local\V.Micro\Arduino\Builds\IREC_2017\chipKIT_chipkit_pic32_fubarino_sd\SD\SD.cpp.o
 .text._Z14callback_rmdirR6SdFilePchPv
                0x00000000       0x7c C:\Users\nukem419\AppData\Local\V.Micro\Arduino\Builds\IREC_2017\chipKIT_chipkit_pic32_fubarino_sd\SD\SD.cpp.o
 .text._ZN7SDClass6existsEPc
                0x00000000       0x1c C:\Users\nukem419\AppData\Local\V.Micro\Arduino\Builds\IREC_2017\chipKIT_chipkit_pic32_fubarino_sd\SD\SD.cpp.o
 .text._ZN7SDClass5mkdirEPc
                0x00000000       0x1c C:\Users\nukem419\AppData\Local\V.Micro\Arduino\Builds\IREC_2017\chipKIT_chipkit_pic32_fubarino_sd\SD\SD.cpp.o
 .text._ZN7SDClass5rmdirEPc
                0x00000000       0x1c C:\Users\nukem419\AppData\Local\V.Micro\Arduino\Builds\IREC_2017\chipKIT_chipkit_pic32_fubarino_sd\SD\SD.cpp.o
 .text._ZN4File12openNextFileEh
                0x00000000      0x154 C:\Users\nukem419\AppData\Local\V.Micro\Arduino\Builds\IREC_2017\chipKIT_chipkit_pic32_fubarino_sd\SD\SD.cpp.o
 .text._ZN4File15rewindDirectoryEv
                0x00000000       0x38 C:\Users\nukem419\AppData\Local\V.Micro\Arduino\Builds\IREC_2017\chipKIT_chipkit_pic32_fubarino_sd\SD\SD.cpp.o
 .text          0x00000000        0x0 C:\Users\nukem419\AppData\Local\V.Micro\Arduino\Builds\IREC_2017\chipKIT_chipkit_pic32_fubarino_sd\SD\utility\Sd2Card.cpp.o
 .data          0x00000000        0x0 C:\Users\nukem419\AppData\Local\V.Micro\Arduino\Builds\IREC_2017\chipKIT_chipkit_pic32_fubarino_sd\SD\utility\Sd2Card.cpp.o
 .bss           0x00000000        0x0 C:\Users\nukem419\AppData\Local\V.Micro\Arduino\Builds\IREC_2017\chipKIT_chipkit_pic32_fubarino_sd\SD\utility\Sd2Card.cpp.o
 .reginfo       0x00000000       0x18 C:\Users\nukem419\AppData\Local\V.Micro\Arduino\Builds\IREC_2017\chipKIT_chipkit_pic32_fubarino_sd\SD\utility\Sd2Card.cpp.o
 .text._ZN7Sd2Card14chipSelectHighEv
                0x00000000        0xc C:\Users\nukem419\AppData\Local\V.Micro\Arduino\Builds\IREC_2017\chipKIT_chipkit_pic32_fubarino_sd\SD\utility\Sd2Card.cpp.o
 .text._ZN7Sd2Card13chipSelectLowEv
                0x00000000        0xc C:\Users\nukem419\AppData\Local\V.Micro\Arduino\Builds\IREC_2017\chipKIT_chipkit_pic32_fubarino_sd\SD\utility\Sd2Card.cpp.o
 .text._ZN7Sd2Card16partialBlockReadEh
                0x00000000       0x40 C:\Users\nukem419\AppData\Local\V.Micro\Arduino\Builds\IREC_2017\chipKIT_chipkit_pic32_fubarino_sd\SD\utility\Sd2Card.cpp.o
 .text._ZN7Sd2Card7readEndEv
                0x00000000       0x1c C:\Users\nukem419\AppData\Local\V.Micro\Arduino\Builds\IREC_2017\chipKIT_chipkit_pic32_fubarino_sd\SD\utility\Sd2Card.cpp.o
 .text._ZN7Sd2Card12readRegisterEhPv
                0x00000000       0xb8 C:\Users\nukem419\AppData\Local\V.Micro\Arduino\Builds\IREC_2017\chipKIT_chipkit_pic32_fubarino_sd\SD\utility\Sd2Card.cpp.o
 .text._ZN7Sd2Card8cardSizeEv
                0x00000000       0xdc C:\Users\nukem419\AppData\Local\V.Micro\Arduino\Builds\IREC_2017\chipKIT_chipkit_pic32_fubarino_sd\SD\utility\Sd2Card.cpp.o
 .text._ZN7Sd2Card22eraseSingleBlockEnableEv
                0x00000000       0x34 C:\Users\nukem419\AppData\Local\V.Micro\Arduino\Builds\IREC_2017\chipKIT_chipkit_pic32_fubarino_sd\SD\utility\Sd2Card.cpp.o
 .text._ZN7Sd2Card5eraseEmm
                0x00000000      0x104 C:\Users\nukem419\AppData\Local\V.Micro\Arduino\Builds\IREC_2017\chipKIT_chipkit_pic32_fubarino_sd\SD\utility\Sd2Card.cpp.o
 .text._ZN7Sd2Card9writeDataEPKh
                0x00000000       0x70 C:\Users\nukem419\AppData\Local\V.Micro\Arduino\Builds\IREC_2017\chipKIT_chipkit_pic32_fubarino_sd\SD\utility\Sd2Card.cpp.o
 .text._ZN7Sd2Card10writeStartEmm
                0x00000000       0xb8 C:\Users\nukem419\AppData\Local\V.Micro\Arduino\Builds\IREC_2017\chipKIT_chipkit_pic32_fubarino_sd\SD\utility\Sd2Card.cpp.o
 .text._ZN7Sd2Card9writeStopEv
                0x00000000       0x7c C:\Users\nukem419\AppData\Local\V.Micro\Arduino\Builds\IREC_2017\chipKIT_chipkit_pic32_fubarino_sd\SD\utility\Sd2Card.cpp.o
 .text          0x00000000        0x0 C:\Users\nukem419\AppData\Local\V.Micro\Arduino\Builds\IREC_2017\chipKIT_chipkit_pic32_fubarino_sd\SD\utility\SdFile.cpp.o
 .data          0x00000000        0x0 C:\Users\nukem419\AppData\Local\V.Micro\Arduino\Builds\IREC_2017\chipKIT_chipkit_pic32_fubarino_sd\SD\utility\SdFile.cpp.o
 .bss           0x00000000        0x0 C:\Users\nukem419\AppData\Local\V.Micro\Arduino\Builds\IREC_2017\chipKIT_chipkit_pic32_fubarino_sd\SD\utility\SdFile.cpp.o
 .reginfo       0x00000000       0x18 C:\Users\nukem419\AppData\Local\V.Micro\Arduino\Builds\IREC_2017\chipKIT_chipkit_pic32_fubarino_sd\SD\utility\SdFile.cpp.o
 .text._ZN6SdFile13cacheDirEntryEh
                0x00000000       0x58 C:\Users\nukem419\AppData\Local\V.Micro\Arduino\Builds\IREC_2017\chipKIT_chipkit_pic32_fubarino_sd\SD\utility\SdFile.cpp.o
 .text._ZN6SdFile15contiguousRangeEPmS0_
                0x00000000      0x104 C:\Users\nukem419\AppData\Local\V.Micro\Arduino\Builds\IREC_2017\chipKIT_chipkit_pic32_fubarino_sd\SD\utility\SdFile.cpp.o
 .text._ZN6SdFile8dirEntryEP14directoryEntry
                0x00000000      0x104 C:\Users\nukem419\AppData\Local\V.Micro\Arduino\Builds\IREC_2017\chipKIT_chipkit_pic32_fubarino_sd\SD\utility\SdFile.cpp.o
 .text._ZN6SdFile7dirNameERK14directoryEntryPc
                0x00000000       0x68 C:\Users\nukem419\AppData\Local\V.Micro\Arduino\Builds\IREC_2017\chipKIT_chipkit_pic32_fubarino_sd\SD\utility\SdFile.cpp.o
 .text._ZN6SdFile14printTwoDigitsEh
                0x00000000       0x60 C:\Users\nukem419\AppData\Local\V.Micro\Arduino\Builds\IREC_2017\chipKIT_chipkit_pic32_fubarino_sd\SD\utility\SdFile.cpp.o
 .text._ZN6SdFile12printFatDateEt
                0x00000000       0x64 C:\Users\nukem419\AppData\Local\V.Micro\Arduino\Builds\IREC_2017\chipKIT_chipkit_pic32_fubarino_sd\SD\utility\SdFile.cpp.o
 .text._ZN6SdFile12printFatTimeEt
                0x00000000       0x5c C:\Users\nukem419\AppData\Local\V.Micro\Arduino\Builds\IREC_2017\chipKIT_chipkit_pic32_fubarino_sd\SD\utility\SdFile.cpp.o
 .text._ZN6SdFile7readDirEP14directoryEntry
                0x00000000       0xf0 C:\Users\nukem419\AppData\Local\V.Micro\Arduino\Builds\IREC_2017\chipKIT_chipkit_pic32_fubarino_sd\SD\utility\SdFile.cpp.o
 .text._ZN6SdFile9timestampEhthhhhh
                0x00000000      0x1d0 C:\Users\nukem419\AppData\Local\V.Micro\Arduino\Builds\IREC_2017\chipKIT_chipkit_pic32_fubarino_sd\SD\utility\SdFile.cpp.o
 .text._ZN6SdFile7makeDirEPS_PKc
                0x00000000      0x2a4 C:\Users\nukem419\AppData\Local\V.Micro\Arduino\Builds\IREC_2017\chipKIT_chipkit_pic32_fubarino_sd\SD\utility\SdFile.cpp.o
 .text._ZN6SdFile4openEPS_th
                0x00000000       0xc8 C:\Users\nukem419\AppData\Local\V.Micro\Arduino\Builds\IREC_2017\chipKIT_chipkit_pic32_fubarino_sd\SD\utility\SdFile.cpp.o
 .text._ZN6SdFile16createContiguousEPS_PKcm
                0x00000000       0xb4 C:\Users\nukem419\AppData\Local\V.Micro\Arduino\Builds\IREC_2017\chipKIT_chipkit_pic32_fubarino_sd\SD\utility\SdFile.cpp.o
 .text._ZN6SdFile5rmDirEv
                0x00000000       0xe4 C:\Users\nukem419\AppData\Local\V.Micro\Arduino\Builds\IREC_2017\chipKIT_chipkit_pic32_fubarino_sd\SD\utility\SdFile.cpp.o
 .text._ZN6SdFile8rmRfStarEv
                0x00000000      0x1b8 C:\Users\nukem419\AppData\Local\V.Micro\Arduino\Builds\IREC_2017\chipKIT_chipkit_pic32_fubarino_sd\SD\utility\SdFile.cpp.o
 .text._ZN6SdFile5writeEPKc
                0x00000000       0x4c C:\Users\nukem419\AppData\Local\V.Micro\Arduino\Builds\IREC_2017\chipKIT_chipkit_pic32_fubarino_sd\SD\utility\SdFile.cpp.o
 .text._ZN6SdFile7write_PEPc
                0x00000000        0x8 C:\Users\nukem419\AppData\Local\V.Micro\Arduino\Builds\IREC_2017\chipKIT_chipkit_pic32_fubarino_sd\SD\utility\SdFile.cpp.o
 .text._ZN6SdFile9writeln_PEPc
                0x00000000       0x3c C:\Users\nukem419\AppData\Local\V.Micro\Arduino\Builds\IREC_2017\chipKIT_chipkit_pic32_fubarino_sd\SD\utility\SdFile.cpp.o
 .text._ZN6SdFile12printDirNameERK14directoryEntryh
                0x00000000      0x130 C:\Users\nukem419\AppData\Local\V.Micro\Arduino\Builds\IREC_2017\chipKIT_chipkit_pic32_fubarino_sd\SD\utility\SdFile.cpp.o
 .text._ZN6SdFile2lsEhh
                0x00000000      0x208 C:\Users\nukem419\AppData\Local\V.Micro\Arduino\Builds\IREC_2017\chipKIT_chipkit_pic32_fubarino_sd\SD\utility\SdFile.cpp.o
 .text          0x00000000        0x0 C:\Users\nukem419\AppData\Local\V.Micro\Arduino\Builds\IREC_2017\chipKIT_chipkit_pic32_fubarino_sd\SD\utility\SdVolume.cpp.o
 .data          0x00000000        0x0 C:\Users\nukem419\AppData\Local\V.Micro\Arduino\Builds\IREC_2017\chipKIT_chipkit_pic32_fubarino_sd\SD\utility\SdVolume.cpp.o
 .bss           0x00000000        0x0 C:\Users\nukem419\AppData\Local\V.Micro\Arduino\Builds\IREC_2017\chipKIT_chipkit_pic32_fubarino_sd\SD\utility\SdVolume.cpp.o
 .reginfo       0x00000000       0x18 C:\Users\nukem419\AppData\Local\V.Micro\Arduino\Builds\IREC_2017\chipKIT_chipkit_pic32_fubarino_sd\SD\utility\SdVolume.cpp.o
 .text          0x00000000        0x0 C:\Users\nukem419\AppData\Local\V.Micro\Arduino\Builds\IREC_2017\chipKIT_chipkit_pic32_fubarino_sd\Wire\Wire.cpp.o
 .data          0x00000000        0x0 C:\Users\nukem419\AppData\Local\V.Micro\Arduino\Builds\IREC_2017\chipKIT_chipkit_pic32_fubarino_sd\Wire\Wire.cpp.o
 .bss           0x00000000        0x0 C:\Users\nukem419\AppData\Local\V.Micro\Arduino\Builds\IREC_2017\chipKIT_chipkit_pic32_fubarino_sd\Wire\Wire.cpp.o
 .reginfo       0x00000000       0x18 C:\Users\nukem419\AppData\Local\V.Micro\Arduino\Builds\IREC_2017\chipKIT_chipkit_pic32_fubarino_sd\Wire\Wire.cpp.o
 .text._ZN7TwoWire16onReceiveServiceEPhi
                0x00000000       0x1c C:\Users\nukem419\AppData\Local\V.Micro\Arduino\Builds\IREC_2017\chipKIT_chipkit_pic32_fubarino_sd\Wire\Wire.cpp.o
 .text._ZN7TwoWire16onRequestServiceEv
                0x00000000       0x1c C:\Users\nukem419\AppData\Local\V.Micro\Arduino\Builds\IREC_2017\chipKIT_chipkit_pic32_fubarino_sd\Wire\Wire.cpp.o
 .text._ZN4DTWI5abortEv
                0x00000000       0x60 C:\Users\nukem419\AppData\Local\V.Micro\Arduino\Builds\IREC_2017\chipKIT_chipkit_pic32_fubarino_sd\Wire\Wire.cpp.o
 .text._ZN4DTWI6setNAKEm
                0x00000000       0x48 C:\Users\nukem419\AppData\Local\V.Micro\Arduino\Builds\IREC_2017\chipKIT_chipkit_pic32_fubarino_sd\Wire\Wire.cpp.o
 .text._ZN4DTWI7discardEv
                0x00000000       0xac C:\Users\nukem419\AppData\Local\V.Micro\Arduino\Builds\IREC_2017\chipKIT_chipkit_pic32_fubarino_sd\Wire\Wire.cpp.o
 .text._ZN4DTWI9endMasterEv
                0x00000000       0x60 C:\Users\nukem419\AppData\Local\V.Micro\Arduino\Builds\IREC_2017\chipKIT_chipkit_pic32_fubarino_sd\Wire\Wire.cpp.o
 .text._ZN4DTWI10beginSlaveEhmb
                0x00000000      0x14c C:\Users\nukem419\AppData\Local\V.Micro\Arduino\Builds\IREC_2017\chipKIT_chipkit_pic32_fubarino_sd\Wire\Wire.cpp.o
 .text._ZN4DTWI8endSlaveEb
                0x00000000       0xd8 C:\Users\nukem419\AppData\Local\V.Micro\Arduino\Builds\IREC_2017\chipKIT_chipkit_pic32_fubarino_sd\Wire\Wire.cpp.o
 .text.IntDtwi1Handler
                0x00000000      0x138 C:\Users\nukem419\AppData\Local\V.Micro\Arduino\Builds\IREC_2017\chipKIT_chipkit_pic32_fubarino_sd\Wire\Wire.cpp.o
 .text._ZN5DTWI1C2Ev
                0x00000000       0x60 C:\Users\nukem419\AppData\Local\V.Micro\Arduino\Builds\IREC_2017\chipKIT_chipkit_pic32_fubarino_sd\Wire\Wire.cpp.o
 .text._ZN7TwoWireC2Ev
                0x00000000        0x8 C:\Users\nukem419\AppData\Local\V.Micro\Arduino\Builds\IREC_2017\chipKIT_chipkit_pic32_fubarino_sd\Wire\Wire.cpp.o
 .text._ZN7TwoWire5beginEh
                0x00000000       0xb0 C:\Users\nukem419\AppData\Local\V.Micro\Arduino\Builds\IREC_2017\chipKIT_chipkit_pic32_fubarino_sd\Wire\Wire.cpp.o
 .text._ZN7TwoWire3endEv
                0x00000000       0xfc C:\Users\nukem419\AppData\Local\V.Micro\Arduino\Builds\IREC_2017\chipKIT_chipkit_pic32_fubarino_sd\Wire\Wire.cpp.o
 .text._ZN7TwoWire5beginEi
                0x00000000        0x8 C:\Users\nukem419\AppData\Local\V.Micro\Arduino\Builds\IREC_2017\chipKIT_chipkit_pic32_fubarino_sd\Wire\Wire.cpp.o
 .text._ZN7TwoWire11requestFromEii
                0x00000000        0xc C:\Users\nukem419\AppData\Local\V.Micro\Arduino\Builds\IREC_2017\chipKIT_chipkit_pic32_fubarino_sd\Wire\Wire.cpp.o
 .text._ZN7TwoWire17beginTransmissionEi
                0x00000000        0x8 C:\Users\nukem419\AppData\Local\V.Micro\Arduino\Builds\IREC_2017\chipKIT_chipkit_pic32_fubarino_sd\Wire\Wire.cpp.o
 .text._ZN7TwoWire4sendEh
                0x00000000       0x2c C:\Users\nukem419\AppData\Local\V.Micro\Arduino\Builds\IREC_2017\chipKIT_chipkit_pic32_fubarino_sd\Wire\Wire.cpp.o
 .text._ZN7TwoWire4sendEPhh
                0x00000000       0x10 C:\Users\nukem419\AppData\Local\V.Micro\Arduino\Builds\IREC_2017\chipKIT_chipkit_pic32_fubarino_sd\Wire\Wire.cpp.o
 .text._ZN7TwoWire5writeEPc
                0x00000000       0x30 C:\Users\nukem419\AppData\Local\V.Micro\Arduino\Builds\IREC_2017\chipKIT_chipkit_pic32_fubarino_sd\Wire\Wire.cpp.o
 .text._ZN7TwoWire4sendEPc
                0x00000000        0x8 C:\Users\nukem419\AppData\Local\V.Micro\Arduino\Builds\IREC_2017\chipKIT_chipkit_pic32_fubarino_sd\Wire\Wire.cpp.o
 .text._ZN7TwoWire5writeEi
                0x00000000       0x2c C:\Users\nukem419\AppData\Local\V.Micro\Arduino\Builds\IREC_2017\chipKIT_chipkit_pic32_fubarino_sd\Wire\Wire.cpp.o
 .text._ZN7TwoWire4sendEi
                0x00000000       0x2c C:\Users\nukem419\AppData\Local\V.Micro\Arduino\Builds\IREC_2017\chipKIT_chipkit_pic32_fubarino_sd\Wire\Wire.cpp.o
 .text._ZN7TwoWire7receiveEv
                0x00000000       0x3c C:\Users\nukem419\AppData\Local\V.Micro\Arduino\Builds\IREC_2017\chipKIT_chipkit_pic32_fubarino_sd\Wire\Wire.cpp.o
 .text._ZN7TwoWire9onReceiveEPFviE
                0x00000000        0x8 C:\Users\nukem419\AppData\Local\V.Micro\Arduino\Builds\IREC_2017\chipKIT_chipkit_pic32_fubarino_sd\Wire\Wire.cpp.o
 .text._ZN7TwoWire9onRequestEPFvvE
                0x00000000        0x8 C:\Users\nukem419\AppData\Local\V.Micro\Arduino\Builds\IREC_2017\chipKIT_chipkit_pic32_fubarino_sd\Wire\Wire.cpp.o
 .bss._ZN7TwoWire8txBufferE.txBuffer
                0x00000000       0x20 C:\Users\nukem419\AppData\Local\V.Micro\Arduino\Builds\IREC_2017\chipKIT_chipkit_pic32_fubarino_sd\Wire\Wire.cpp.o
 .bss._ZN7TwoWire8rxBufferE.rxBuffer
                0x00000000       0x20 C:\Users\nukem419\AppData\Local\V.Micro\Arduino\Builds\IREC_2017\chipKIT_chipkit_pic32_fubarino_sd\Wire\Wire.cpp.o
 .text          0x00000000        0x0 C:\Users\nukem419\AppData\Local\V.Micro\Arduino\Builds\IREC_2017\chipKIT_chipkit_pic32_fubarino_sd\IREC_2017.cpp.o
 .data          0x00000000        0x0 C:\Users\nukem419\AppData\Local\V.Micro\Arduino\Builds\IREC_2017\chipKIT_chipkit_pic32_fubarino_sd\IREC_2017.cpp.o
 .bss           0x00000000        0x0 C:\Users\nukem419\AppData\Local\V.Micro\Arduino\Builds\IREC_2017\chipKIT_chipkit_pic32_fubarino_sd\IREC_2017.cpp.o
 .reginfo       0x00000000       0x18 C:\Users\nukem419\AppData\Local\V.Micro\Arduino\Builds\IREC_2017\chipKIT_chipkit_pic32_fubarino_sd\IREC_2017.cpp.o
 .text          0x00000000        0x0 C:\Users\nukem419\AppData\Local\V.Micro\Arduino\Builds\IREC_2017\chipKIT_chipkit_pic32_fubarino_sd\BMP180.cpp.o
 .data          0x00000000        0x0 C:\Users\nukem419\AppData\Local\V.Micro\Arduino\Builds\IREC_2017\chipKIT_chipkit_pic32_fubarino_sd\BMP180.cpp.o
 .bss           0x00000000        0x0 C:\Users\nukem419\AppData\Local\V.Micro\Arduino\Builds\IREC_2017\chipKIT_chipkit_pic32_fubarino_sd\BMP180.cpp.o
 .reginfo       0x00000000       0x18 C:\Users\nukem419\AppData\Local\V.Micro\Arduino\Builds\IREC_2017\chipKIT_chipkit_pic32_fubarino_sd\BMP180.cpp.o
 .text._ZN6BMP1805getIDEv
                0x00000000        0x8 C:\Users\nukem419\AppData\Local\V.Micro\Arduino\Builds\IREC_2017\chipKIT_chipkit_pic32_fubarino_sd\BMP180.cpp.o
 .text._ZN6BMP18013setOverSampleEh
                0x00000000        0x8 C:\Users\nukem419\AppData\Local\V.Micro\Arduino\Builds\IREC_2017\chipKIT_chipkit_pic32_fubarino_sd\BMP180.cpp.o
 .text._ZN6BMP1808testComsEv
                0x00000000       0x40 C:\Users\nukem419\AppData\Local\V.Micro\Arduino\Builds\IREC_2017\chipKIT_chipkit_pic32_fubarino_sd\BMP180.cpp.o
 .text._ZN6BMP1809softResetEv
                0x00000000       0x10 C:\Users\nukem419\AppData\Local\V.Micro\Arduino\Builds\IREC_2017\chipKIT_chipkit_pic32_fubarino_sd\BMP180.cpp.o
 .text          0x00000000        0x0 C:\Users\nukem419\AppData\Local\V.Micro\Arduino\Builds\IREC_2017\chipKIT_chipkit_pic32_fubarino_sd\DataLogger.cpp.o
 .data          0x00000000        0x0 C:\Users\nukem419\AppData\Local\V.Micro\Arduino\Builds\IREC_2017\chipKIT_chipkit_pic32_fubarino_sd\DataLogger.cpp.o
 .bss           0x00000000        0x0 C:\Users\nukem419\AppData\Local\V.Micro\Arduino\Builds\IREC_2017\chipKIT_chipkit_pic32_fubarino_sd\DataLogger.cpp.o
 .reginfo       0x00000000       0x18 C:\Users\nukem419\AppData\Local\V.Micro\Arduino\Builds\IREC_2017\chipKIT_chipkit_pic32_fubarino_sd\DataLogger.cpp.o
 .text._ZN10DataLogger7readLogEv
                0x00000000       0xb8 C:\Users\nukem419\AppData\Local\V.Micro\Arduino\Builds\IREC_2017\chipKIT_chipkit_pic32_fubarino_sd\DataLogger.cpp.o
 .text._ZN10DataLogger8writeLogEPc
                0x00000000       0xdc C:\Users\nukem419\AppData\Local\V.Micro\Arduino\Builds\IREC_2017\chipKIT_chipkit_pic32_fubarino_sd\DataLogger.cpp.o
 .text          0x00000000        0x0 C:\Users\nukem419\AppData\Local\V.Micro\Arduino\Builds\IREC_2017\chipKIT_chipkit_pic32_fubarino_sd\EM_506.cpp.o
 .data          0x00000000        0x0 C:\Users\nukem419\AppData\Local\V.Micro\Arduino\Builds\IREC_2017\chipKIT_chipkit_pic32_fubarino_sd\EM_506.cpp.o
 .bss           0x00000000        0x0 C:\Users\nukem419\AppData\Local\V.Micro\Arduino\Builds\IREC_2017\chipKIT_chipkit_pic32_fubarino_sd\EM_506.cpp.o
 .reginfo       0x00000000       0x18 C:\Users\nukem419\AppData\Local\V.Micro\Arduino\Builds\IREC_2017\chipKIT_chipkit_pic32_fubarino_sd\EM_506.cpp.o
 .text._ZN5EM50610hotStartXYEPNS_5_TimeEPNS_4_LocE
                0x00000000        0x8 C:\Users\nukem419\AppData\Local\V.Micro\Arduino\Builds\IREC_2017\chipKIT_chipkit_pic32_fubarino_sd\EM_506.cpp.o
 .text._ZN5EM50611hotStartXYZEPNS_5_TimeEPNS_4_LocE
                0x00000000        0x8 C:\Users\nukem419\AppData\Local\V.Micro\Arduino\Builds\IREC_2017\chipKIT_chipkit_pic32_fubarino_sd\EM_506.cpp.o
 .text._ZN5EM5068setPortAEv
                0x00000000        0x8 C:\Users\nukem419\AppData\Local\V.Micro\Arduino\Builds\IREC_2017\chipKIT_chipkit_pic32_fubarino_sd\EM_506.cpp.o
 .text._ZN5EM5068setPortBEv
                0x00000000        0x8 C:\Users\nukem419\AppData\Local\V.Micro\Arduino\Builds\IREC_2017\chipKIT_chipkit_pic32_fubarino_sd\EM_506.cpp.o
 .text._ZN5EM5068setDatumEv
                0x00000000        0x8 C:\Users\nukem419\AppData\Local\V.Micro\Arduino\Builds\IREC_2017\chipKIT_chipkit_pic32_fubarino_sd\EM_506.cpp.o
 .text._ZN5EM50610processGSVEP6String
                0x00000000        0x8 C:\Users\nukem419\AppData\Local\V.Micro\Arduino\Builds\IREC_2017\chipKIT_chipkit_pic32_fubarino_sd\EM_506.cpp.o
 .text          0x00000000        0x0 C:\Users\nukem419\AppData\Local\V.Micro\Arduino\Builds\IREC_2017\chipKIT_chipkit_pic32_fubarino_sd\L3GD20TR.cpp.o
 .data          0x00000000        0x0 C:\Users\nukem419\AppData\Local\V.Micro\Arduino\Builds\IREC_2017\chipKIT_chipkit_pic32_fubarino_sd\L3GD20TR.cpp.o
 .bss           0x00000000        0x0 C:\Users\nukem419\AppData\Local\V.Micro\Arduino\Builds\IREC_2017\chipKIT_chipkit_pic32_fubarino_sd\L3GD20TR.cpp.o
 .reginfo       0x00000000       0x18 C:\Users\nukem419\AppData\Local\V.Micro\Arduino\Builds\IREC_2017\chipKIT_chipkit_pic32_fubarino_sd\L3GD20TR.cpp.o
 .text          0x00000000        0x0 C:\Users\nukem419\AppData\Local\V.Micro\Arduino\Builds\IREC_2017\chipKIT_chipkit_pic32_fubarino_sd\LIS331HH.cpp.o
 .data          0x00000000        0x0 C:\Users\nukem419\AppData\Local\V.Micro\Arduino\Builds\IREC_2017\chipKIT_chipkit_pic32_fubarino_sd\LIS331HH.cpp.o
 .bss           0x00000000        0x0 C:\Users\nukem419\AppData\Local\V.Micro\Arduino\Builds\IREC_2017\chipKIT_chipkit_pic32_fubarino_sd\LIS331HH.cpp.o
 .reginfo       0x00000000       0x18 C:\Users\nukem419\AppData\Local\V.Micro\Arduino\Builds\IREC_2017\chipKIT_chipkit_pic32_fubarino_sd\LIS331HH.cpp.o
 .text          0x00000000        0x0 C:\Users\nukem419\AppData\Local\V.Micro\Arduino\Builds\IREC_2017\chipKIT_chipkit_pic32_fubarino_sd\Parameters.cpp.o
 .data          0x00000000        0x0 C:\Users\nukem419\AppData\Local\V.Micro\Arduino\Builds\IREC_2017\chipKIT_chipkit_pic32_fubarino_sd\Parameters.cpp.o
 .bss           0x00000000        0x0 C:\Users\nukem419\AppData\Local\V.Micro\Arduino\Builds\IREC_2017\chipKIT_chipkit_pic32_fubarino_sd\Parameters.cpp.o
 .reginfo       0x00000000       0x18 C:\Users\nukem419\AppData\Local\V.Micro\Arduino\Builds\IREC_2017\chipKIT_chipkit_pic32_fubarino_sd\Parameters.cpp.o
 .text._ZN10Parameters14saveParametersEv
                0x00000000        0x8 C:\Users\nukem419\AppData\Local\V.Micro\Arduino\Builds\IREC_2017\chipKIT_chipkit_pic32_fubarino_sd\Parameters.cpp.o
 .text          0x00000000        0x0 C:\Users\nukem419\AppData\Local\V.Micro\Arduino\Builds\IREC_2017\chipKIT_chipkit_pic32_fubarino_sd\WSU_mavlink.cpp.o
 .data          0x00000000        0x0 C:\Users\nukem419\AppData\Local\V.Micro\Arduino\Builds\IREC_2017\chipKIT_chipkit_pic32_fubarino_sd\WSU_mavlink.cpp.o
 .bss           0x00000000        0x0 C:\Users\nukem419\AppData\Local\V.Micro\Arduino\Builds\IREC_2017\chipKIT_chipkit_pic32_fubarino_sd\WSU_mavlink.cpp.o
 .reginfo       0x00000000       0x18 C:\Users\nukem419\AppData\Local\V.Micro\Arduino\Builds\IREC_2017\chipKIT_chipkit_pic32_fubarino_sd\WSU_mavlink.cpp.o
 .text          0x00000000        0x0 C:\Users\nukem419\AppData\Local\V.Micro\Arduino\Builds\IREC_2017\chipKIT_chipkit_pic32_fubarino_sd/core.a(crti.S.o)
 .data          0x00000000        0x0 C:\Users\nukem419\AppData\Local\V.Micro\Arduino\Builds\IREC_2017\chipKIT_chipkit_pic32_fubarino_sd/core.a(crti.S.o)
 .bss           0x00000000        0x0 C:\Users\nukem419\AppData\Local\V.Micro\Arduino\Builds\IREC_2017\chipKIT_chipkit_pic32_fubarino_sd/core.a(crti.S.o)
 .reginfo       0x00000000       0x18 C:\Users\nukem419\AppData\Local\V.Micro\Arduino\Builds\IREC_2017\chipKIT_chipkit_pic32_fubarino_sd/core.a(crti.S.o)
 .text          0x00000000        0x0 C:\Users\nukem419\AppData\Local\V.Micro\Arduino\Builds\IREC_2017\chipKIT_chipkit_pic32_fubarino_sd/core.a(task_manager.c.o)
 .data          0x00000000        0x0 C:\Users\nukem419\AppData\Local\V.Micro\Arduino\Builds\IREC_2017\chipKIT_chipkit_pic32_fubarino_sd/core.a(task_manager.c.o)
 .bss           0x00000000        0x0 C:\Users\nukem419\AppData\Local\V.Micro\Arduino\Builds\IREC_2017\chipKIT_chipkit_pic32_fubarino_sd/core.a(task_manager.c.o)
 .reginfo       0x00000000       0x18 C:\Users\nukem419\AppData\Local\V.Micro\Arduino\Builds\IREC_2017\chipKIT_chipkit_pic32_fubarino_sd/core.a(task_manager.c.o)
 .text.getTaskNextExec
                0x00000000       0x44 C:\Users\nukem419\AppData\Local\V.Micro\Arduino\Builds\IREC_2017\chipKIT_chipkit_pic32_fubarino_sd/core.a(task_manager.c.o)
 .text.getTaskState
                0x00000000       0x38 C:\Users\nukem419\AppData\Local\V.Micro\Arduino\Builds\IREC_2017\chipKIT_chipkit_pic32_fubarino_sd/core.a(task_manager.c.o)
 .text.getTaskPeriod
                0x00000000       0x38 C:\Users\nukem419\AppData\Local\V.Micro\Arduino\Builds\IREC_2017\chipKIT_chipkit_pic32_fubarino_sd/core.a(task_manager.c.o)
 .text.setTaskVar
                0x00000000       0x34 C:\Users\nukem419\AppData\Local\V.Micro\Arduino\Builds\IREC_2017\chipKIT_chipkit_pic32_fubarino_sd/core.a(task_manager.c.o)
 .text.getTaskVar
                0x00000000       0x40 C:\Users\nukem419\AppData\Local\V.Micro\Arduino\Builds\IREC_2017\chipKIT_chipkit_pic32_fubarino_sd/core.a(task_manager.c.o)
 .text.createTask
                0x00000000      0x124 C:\Users\nukem419\AppData\Local\V.Micro\Arduino\Builds\IREC_2017\chipKIT_chipkit_pic32_fubarino_sd/core.a(task_manager.c.o)
 .text.startTaskAt
                0x00000000       0x5c C:\Users\nukem419\AppData\Local\V.Micro\Arduino\Builds\IREC_2017\chipKIT_chipkit_pic32_fubarino_sd/core.a(task_manager.c.o)
 .text.setTaskState
                0x00000000       0x80 C:\Users\nukem419\AppData\Local\V.Micro\Arduino\Builds\IREC_2017\chipKIT_chipkit_pic32_fubarino_sd/core.a(task_manager.c.o)
 .text.setTaskPeriod
                0x00000000       0x80 C:\Users\nukem419\AppData\Local\V.Micro\Arduino\Builds\IREC_2017\chipKIT_chipkit_pic32_fubarino_sd/core.a(task_manager.c.o)
 .text          0x00000000        0x0 C:\Users\nukem419\AppData\Local\V.Micro\Arduino\Builds\IREC_2017\chipKIT_chipkit_pic32_fubarino_sd/core.a(wiring.c.o)
 .data          0x00000000        0x0 C:\Users\nukem419\AppData\Local\V.Micro\Arduino\Builds\IREC_2017\chipKIT_chipkit_pic32_fubarino_sd/core.a(wiring.c.o)
 .bss           0x00000000        0x0 C:\Users\nukem419\AppData\Local\V.Micro\Arduino\Builds\IREC_2017\chipKIT_chipkit_pic32_fubarino_sd/core.a(wiring.c.o)
 .reginfo       0x00000000       0x18 C:\Users\nukem419\AppData\Local\V.Micro\Arduino\Builds\IREC_2017\chipKIT_chipkit_pic32_fubarino_sd/core.a(wiring.c.o)
 .text.delayMicroseconds
                0x00000000       0x44 C:\Users\nukem419\AppData\Local\V.Micro\Arduino\Builds\IREC_2017\chipKIT_chipkit_pic32_fubarino_sd/core.a(wiring.c.o)
 .text.executeSoftReset
                0x00000000       0x9c C:\Users\nukem419\AppData\Local\V.Micro\Arduino\Builds\IREC_2017\chipKIT_chipkit_pic32_fubarino_sd/core.a(wiring.c.o)
 .text.attachCoreTimerService
                0x00000000       0xb0 C:\Users\nukem419\AppData\Local\V.Micro\Arduino\Builds\IREC_2017\chipKIT_chipkit_pic32_fubarino_sd/core.a(wiring.c.o)
 .text.detachCoreTimerService
                0x00000000       0x4c C:\Users\nukem419\AppData\Local\V.Micro\Arduino\Builds\IREC_2017\chipKIT_chipkit_pic32_fubarino_sd/core.a(wiring.c.o)
 .text.callCoreTimerServiceNow
                0x00000000       0x78 C:\Users\nukem419\AppData\Local\V.Micro\Arduino\Builds\IREC_2017\chipKIT_chipkit_pic32_fubarino_sd/core.a(wiring.c.o)
 .text          0x00000000        0x0 C:\Users\nukem419\AppData\Local\V.Micro\Arduino\Builds\IREC_2017\chipKIT_chipkit_pic32_fubarino_sd/core.a(wiring_digital.c.o)
 .data          0x00000000        0x0 C:\Users\nukem419\AppData\Local\V.Micro\Arduino\Builds\IREC_2017\chipKIT_chipkit_pic32_fubarino_sd/core.a(wiring_digital.c.o)
 .bss           0x00000000        0x0 C:\Users\nukem419\AppData\Local\V.Micro\Arduino\Builds\IREC_2017\chipKIT_chipkit_pic32_fubarino_sd/core.a(wiring_digital.c.o)
 .reginfo       0x00000000       0x18 C:\Users\nukem419\AppData\Local\V.Micro\Arduino\Builds\IREC_2017\chipKIT_chipkit_pic32_fubarino_sd/core.a(wiring_digital.c.o)
 .text.getPinMode
                0x00000000       0x80 C:\Users\nukem419\AppData\Local\V.Micro\Arduino\Builds\IREC_2017\chipKIT_chipkit_pic32_fubarino_sd/core.a(wiring_digital.c.o)
 .text          0x00000000        0x0 C:\Users\nukem419\AppData\Local\V.Micro\Arduino\Builds\IREC_2017\chipKIT_chipkit_pic32_fubarino_sd/core.a(WSystem.c.o)
 .data          0x00000000        0x0 C:\Users\nukem419\AppData\Local\V.Micro\Arduino\Builds\IREC_2017\chipKIT_chipkit_pic32_fubarino_sd/core.a(WSystem.c.o)
 .bss           0x00000000        0x0 C:\Users\nukem419\AppData\Local\V.Micro\Arduino\Builds\IREC_2017\chipKIT_chipkit_pic32_fubarino_sd/core.a(WSystem.c.o)
 .reginfo       0x00000000       0x18 C:\Users\nukem419\AppData\Local\V.Micro\Arduino\Builds\IREC_2017\chipKIT_chipkit_pic32_fubarino_sd/core.a(WSystem.c.o)
 .text.getIntVector
                0x00000000       0x2c C:\Users\nukem419\AppData\Local\V.Micro\Arduino\Builds\IREC_2017\chipKIT_chipkit_pic32_fubarino_sd/core.a(WSystem.c.o)
 .text.clearIntVector
                0x00000000       0x80 C:\Users\nukem419\AppData\Local\V.Micro\Arduino\Builds\IREC_2017\chipKIT_chipkit_pic32_fubarino_sd/core.a(WSystem.c.o)
 .text.enableInterrupts
                0x00000000        0xc C:\Users\nukem419\AppData\Local\V.Micro\Arduino\Builds\IREC_2017\chipKIT_chipkit_pic32_fubarino_sd/core.a(WSystem.c.o)
 .text.getIntFlag
                0x00000000       0x38 C:\Users\nukem419\AppData\Local\V.Micro\Arduino\Builds\IREC_2017\chipKIT_chipkit_pic32_fubarino_sd/core.a(WSystem.c.o)
 .text.clearIntFlag
                0x00000000       0x34 C:\Users\nukem419\AppData\Local\V.Micro\Arduino\Builds\IREC_2017\chipKIT_chipkit_pic32_fubarino_sd/core.a(WSystem.c.o)
 .text.clearIntEnable
                0x00000000       0x38 C:\Users\nukem419\AppData\Local\V.Micro\Arduino\Builds\IREC_2017\chipKIT_chipkit_pic32_fubarino_sd/core.a(WSystem.c.o)
 .text.restoreIntEnable
                0x00000000       0x48 C:\Users\nukem419\AppData\Local\V.Micro\Arduino\Builds\IREC_2017\chipKIT_chipkit_pic32_fubarino_sd/core.a(WSystem.c.o)
 .text.getIntPriority
                0x00000000       0x60 C:\Users\nukem419\AppData\Local\V.Micro\Arduino\Builds\IREC_2017\chipKIT_chipkit_pic32_fubarino_sd/core.a(WSystem.c.o)
 .text.writeCoreTimer
                0x00000000        0xc C:\Users\nukem419\AppData\Local\V.Micro\Arduino\Builds\IREC_2017\chipKIT_chipkit_pic32_fubarino_sd/core.a(WSystem.c.o)
 .text._softwareReset
                0x00000000       0x40 C:\Users\nukem419\AppData\Local\V.Micro\Arduino\Builds\IREC_2017\chipKIT_chipkit_pic32_fubarino_sd/core.a(WSystem.c.o)
 .text._disableSeconaryOscillator
                0x00000000       0x58 C:\Users\nukem419\AppData\Local\V.Micro\Arduino\Builds\IREC_2017\chipKIT_chipkit_pic32_fubarino_sd/core.a(WSystem.c.o)
 .text          0x00000000        0x0 C:\Users\nukem419\AppData\Local\V.Micro\Arduino\Builds\IREC_2017\chipKIT_chipkit_pic32_fubarino_sd/core.a(HardwareSerial.cpp.o)
 .data          0x00000000        0x0 C:\Users\nukem419\AppData\Local\V.Micro\Arduino\Builds\IREC_2017\chipKIT_chipkit_pic32_fubarino_sd/core.a(HardwareSerial.cpp.o)
 .bss           0x00000000        0x0 C:\Users\nukem419\AppData\Local\V.Micro\Arduino\Builds\IREC_2017\chipKIT_chipkit_pic32_fubarino_sd/core.a(HardwareSerial.cpp.o)
 .reginfo       0x00000000       0x18 C:\Users\nukem419\AppData\Local\V.Micro\Arduino\Builds\IREC_2017\chipKIT_chipkit_pic32_fubarino_sd/core.a(HardwareSerial.cpp.o)
 .text._ZN14HardwareSerial5beginEmh
                0x00000000      0x164 C:\Users\nukem419\AppData\Local\V.Micro\Arduino\Builds\IREC_2017\chipKIT_chipkit_pic32_fubarino_sd/core.a(HardwareSerial.cpp.o)
 .text._ZN14HardwareSerial3endEv
                0x00000000       0x40 C:\Users\nukem419\AppData\Local\V.Micro\Arduino\Builds\IREC_2017\chipKIT_chipkit_pic32_fubarino_sd/core.a(HardwareSerial.cpp.o)
 .text._ZN14HardwareSerialcviEv
                0x00000000        0x8 C:\Users\nukem419\AppData\Local\V.Micro\Arduino\Builds\IREC_2017\chipKIT_chipkit_pic32_fubarino_sd/core.a(HardwareSerial.cpp.o)
 .text._ZN14HardwareSerial15attachInterruptEPFviE
                0x00000000        0x8 C:\Users\nukem419\AppData\Local\V.Micro\Arduino\Builds\IREC_2017\chipKIT_chipkit_pic32_fubarino_sd/core.a(HardwareSerial.cpp.o)
 .text._ZN14HardwareSerial15detachInterruptEv
                0x00000000        0x8 C:\Users\nukem419\AppData\Local\V.Micro\Arduino\Builds\IREC_2017\chipKIT_chipkit_pic32_fubarino_sd/core.a(HardwareSerial.cpp.o)
 .text._ZN14HardwareSerial22enableAddressDetectionEv
                0x00000000       0x14 C:\Users\nukem419\AppData\Local\V.Micro\Arduino\Builds\IREC_2017\chipKIT_chipkit_pic32_fubarino_sd/core.a(HardwareSerial.cpp.o)
 .text._ZN14HardwareSerial23disableAddressDetectionEv
                0x00000000       0x14 C:\Users\nukem419\AppData\Local\V.Micro\Arduino\Builds\IREC_2017\chipKIT_chipkit_pic32_fubarino_sd/core.a(HardwareSerial.cpp.o)
 .text._ZN9USBSerialC2EP11ring_buffer
                0x00000000       0x2c C:\Users\nukem419\AppData\Local\V.Micro\Arduino\Builds\IREC_2017\chipKIT_chipkit_pic32_fubarino_sd/core.a(HardwareSerial.cpp.o)
 .text._ZN9USBSerialcviEv
                0x00000000        0xc C:\Users\nukem419\AppData\Local\V.Micro\Arduino\Builds\IREC_2017\chipKIT_chipkit_pic32_fubarino_sd/core.a(HardwareSerial.cpp.o)
 .text._ZN9USBSerial3endEv
                0x00000000        0x8 C:\Users\nukem419\AppData\Local\V.Micro\Arduino\Builds\IREC_2017\chipKIT_chipkit_pic32_fubarino_sd/core.a(HardwareSerial.cpp.o)
 .text._ZN9USBSerial15attachInterruptEPFviE
                0x00000000        0x8 C:\Users\nukem419\AppData\Local\V.Micro\Arduino\Builds\IREC_2017\chipKIT_chipkit_pic32_fubarino_sd/core.a(HardwareSerial.cpp.o)
 .text._ZN9USBSerial15detachInterruptEv
                0x00000000        0x8 C:\Users\nukem419\AppData\Local\V.Micro\Arduino\Builds\IREC_2017\chipKIT_chipkit_pic32_fubarino_sd/core.a(HardwareSerial.cpp.o)
 .gnu.linkonce.r._ZTI6Stream._ZTI6Stream
                0x00000000        0xc C:\Users\nukem419\AppData\Local\V.Micro\Arduino\Builds\IREC_2017\chipKIT_chipkit_pic32_fubarino_sd/core.a(HardwareSerial.cpp.o)
 .gnu.linkonce.r._ZTS6Stream._ZTS6Stream
                0x00000000        0x8 C:\Users\nukem419\AppData\Local\V.Micro\Arduino\Builds\IREC_2017\chipKIT_chipkit_pic32_fubarino_sd/core.a(HardwareSerial.cpp.o)
 .gnu.linkonce.r._ZTV6Stream._ZTV6Stream
                0x00000000       0x20 C:\Users\nukem419\AppData\Local\V.Micro\Arduino\Builds\IREC_2017\chipKIT_chipkit_pic32_fubarino_sd/core.a(HardwareSerial.cpp.o)
 .text          0x00000000        0x0 C:\Users\nukem419\AppData\Local\V.Micro\Arduino\Builds\IREC_2017\chipKIT_chipkit_pic32_fubarino_sd/core.a(main.cpp.o)
 .data          0x00000000        0x0 C:\Users\nukem419\AppData\Local\V.Micro\Arduino\Builds\IREC_2017\chipKIT_chipkit_pic32_fubarino_sd/core.a(main.cpp.o)
 .bss           0x00000000        0x0 C:\Users\nukem419\AppData\Local\V.Micro\Arduino\Builds\IREC_2017\chipKIT_chipkit_pic32_fubarino_sd/core.a(main.cpp.o)
 .reginfo       0x00000000       0x18 C:\Users\nukem419\AppData\Local\V.Micro\Arduino\Builds\IREC_2017\chipKIT_chipkit_pic32_fubarino_sd/core.a(main.cpp.o)
 .comment.__use_force_isr_install
                0x00000000        0x4 C:\Users\nukem419\AppData\Local\V.Micro\Arduino\Builds\IREC_2017\chipKIT_chipkit_pic32_fubarino_sd/core.a(main.cpp.o)
 .text          0x00000000        0x0 C:\Users\nukem419\AppData\Local\V.Micro\Arduino\Builds\IREC_2017\chipKIT_chipkit_pic32_fubarino_sd/core.a(Print.cpp.o)
 .data          0x00000000        0x0 C:\Users\nukem419\AppData\Local\V.Micro\Arduino\Builds\IREC_2017\chipKIT_chipkit_pic32_fubarino_sd/core.a(Print.cpp.o)
 .bss           0x00000000        0x0 C:\Users\nukem419\AppData\Local\V.Micro\Arduino\Builds\IREC_2017\chipKIT_chipkit_pic32_fubarino_sd/core.a(Print.cpp.o)
 .reginfo       0x00000000       0x18 C:\Users\nukem419\AppData\Local\V.Micro\Arduino\Builds\IREC_2017\chipKIT_chipkit_pic32_fubarino_sd/core.a(Print.cpp.o)
 .text._ZN5Print5printEPK19__FlashStringHelper
                0x00000000       0x50 C:\Users\nukem419\AppData\Local\V.Micro\Arduino\Builds\IREC_2017\chipKIT_chipkit_pic32_fubarino_sd/core.a(Print.cpp.o)
 .text._ZN5Print5printEc
                0x00000000       0x10 C:\Users\nukem419\AppData\Local\V.Micro\Arduino\Builds\IREC_2017\chipKIT_chipkit_pic32_fubarino_sd/core.a(Print.cpp.o)
 .text._ZN5Print5printERK9Printable
                0x00000000       0x18 C:\Users\nukem419\AppData\Local\V.Micro\Arduino\Builds\IREC_2017\chipKIT_chipkit_pic32_fubarino_sd/core.a(Print.cpp.o)
 .text._ZN5Print7printlnEv
                0x00000000       0x54 C:\Users\nukem419\AppData\Local\V.Micro\Arduino\Builds\IREC_2017\chipKIT_chipkit_pic32_fubarino_sd/core.a(Print.cpp.o)
 .text._ZN5Print7printlnERK6String
                0x00000000       0x50 C:\Users\nukem419\AppData\Local\V.Micro\Arduino\Builds\IREC_2017\chipKIT_chipkit_pic32_fubarino_sd/core.a(Print.cpp.o)
 .text._ZN5Print7printlnEPKc
                0x00000000       0x84 C:\Users\nukem419\AppData\Local\V.Micro\Arduino\Builds\IREC_2017\chipKIT_chipkit_pic32_fubarino_sd/core.a(Print.cpp.o)
 .text._ZN5Print7printlnEPK19__FlashStringHelper
                0x00000000        0x8 C:\Users\nukem419\AppData\Local\V.Micro\Arduino\Builds\IREC_2017\chipKIT_chipkit_pic32_fubarino_sd/core.a(Print.cpp.o)
 .text._ZN5Print7printlnEc
                0x00000000       0x48 C:\Users\nukem419\AppData\Local\V.Micro\Arduino\Builds\IREC_2017\chipKIT_chipkit_pic32_fubarino_sd/core.a(Print.cpp.o)
 .text._ZN5Print7printlnERK9Printable
                0x00000000       0x50 C:\Users\nukem419\AppData\Local\V.Micro\Arduino\Builds\IREC_2017\chipKIT_chipkit_pic32_fubarino_sd/core.a(Print.cpp.o)
 .text._ZN5Print5printEii
                0x00000000        0x8 C:\Users\nukem419\AppData\Local\V.Micro\Arduino\Builds\IREC_2017\chipKIT_chipkit_pic32_fubarino_sd/core.a(Print.cpp.o)
 .text._ZN5Print7printlnEii
                0x00000000       0x3c C:\Users\nukem419\AppData\Local\V.Micro\Arduino\Builds\IREC_2017\chipKIT_chipkit_pic32_fubarino_sd/core.a(Print.cpp.o)
 .text._ZN5Print7printlnEli
                0x00000000       0x3c C:\Users\nukem419\AppData\Local\V.Micro\Arduino\Builds\IREC_2017\chipKIT_chipkit_pic32_fubarino_sd/core.a(Print.cpp.o)
 .text._ZN5Print7printlnEhi
                0x00000000       0x40 C:\Users\nukem419\AppData\Local\V.Micro\Arduino\Builds\IREC_2017\chipKIT_chipkit_pic32_fubarino_sd/core.a(Print.cpp.o)
 .text._ZN5Print5printEji
                0x00000000        0x8 C:\Users\nukem419\AppData\Local\V.Micro\Arduino\Builds\IREC_2017\chipKIT_chipkit_pic32_fubarino_sd/core.a(Print.cpp.o)
 .text._ZN5Print7printlnEji
                0x00000000       0x3c C:\Users\nukem419\AppData\Local\V.Micro\Arduino\Builds\IREC_2017\chipKIT_chipkit_pic32_fubarino_sd/core.a(Print.cpp.o)
 .text._ZN5Print7printlnEmi
                0x00000000       0x3c C:\Users\nukem419\AppData\Local\V.Micro\Arduino\Builds\IREC_2017\chipKIT_chipkit_pic32_fubarino_sd/core.a(Print.cpp.o)
 .text._ZN5Print7printlnEdi
                0x00000000       0x44 C:\Users\nukem419\AppData\Local\V.Micro\Arduino\Builds\IREC_2017\chipKIT_chipkit_pic32_fubarino_sd/core.a(Print.cpp.o)
 .text._ZN5Print6printfEPKcz
                0x00000000       0x38 C:\Users\nukem419\AppData\Local\V.Micro\Arduino\Builds\IREC_2017\chipKIT_chipkit_pic32_fubarino_sd/core.a(Print.cpp.o)
 .gnu.linkonce.r._ZTV5Print._ZTV5Print
                0x00000000       0x10 C:\Users\nukem419\AppData\Local\V.Micro\Arduino\Builds\IREC_2017\chipKIT_chipkit_pic32_fubarino_sd/core.a(Print.cpp.o)
 .text          0x00000000        0x0 C:\Users\nukem419\AppData\Local\V.Micro\Arduino\Builds\IREC_2017\chipKIT_chipkit_pic32_fubarino_sd/core.a(Stream.cpp.o)
 .data          0x00000000        0x0 C:\Users\nukem419\AppData\Local\V.Micro\Arduino\Builds\IREC_2017\chipKIT_chipkit_pic32_fubarino_sd/core.a(Stream.cpp.o)
 .bss           0x00000000        0x0 C:\Users\nukem419\AppData\Local\V.Micro\Arduino\Builds\IREC_2017\chipKIT_chipkit_pic32_fubarino_sd/core.a(Stream.cpp.o)
 .reginfo       0x00000000       0x18 C:\Users\nukem419\AppData\Local\V.Micro\Arduino\Builds\IREC_2017\chipKIT_chipkit_pic32_fubarino_sd/core.a(Stream.cpp.o)
 .text._ZN6Stream9findUntilEPKcmS1_m.part.0
                0x00000000      0x110 C:\Users\nukem419\AppData\Local\V.Micro\Arduino\Builds\IREC_2017\chipKIT_chipkit_pic32_fubarino_sd/core.a(Stream.cpp.o)
 .text._ZN6Stream9timedPeekEv
                0x00000000       0x70 C:\Users\nukem419\AppData\Local\V.Micro\Arduino\Builds\IREC_2017\chipKIT_chipkit_pic32_fubarino_sd/core.a(Stream.cpp.o)
 .text._ZN6Stream13peekNextDigitEv
                0x00000000       0x68 C:\Users\nukem419\AppData\Local\V.Micro\Arduino\Builds\IREC_2017\chipKIT_chipkit_pic32_fubarino_sd/core.a(Stream.cpp.o)
 .text._ZN6Stream10setTimeoutEm
                0x00000000        0x8 C:\Users\nukem419\AppData\Local\V.Micro\Arduino\Builds\IREC_2017\chipKIT_chipkit_pic32_fubarino_sd/core.a(Stream.cpp.o)
 .text._ZN6Stream4findEPKcm
                0x00000000       0x34 C:\Users\nukem419\AppData\Local\V.Micro\Arduino\Builds\IREC_2017\chipKIT_chipkit_pic32_fubarino_sd/core.a(Stream.cpp.o)
 .text._ZN6Stream9findUntilEPKcS1_
                0x00000000       0x80 C:\Users\nukem419\AppData\Local\V.Micro\Arduino\Builds\IREC_2017\chipKIT_chipkit_pic32_fubarino_sd/core.a(Stream.cpp.o)
 .text._ZN6Stream4findEPKc
                0x00000000        0xc C:\Users\nukem419\AppData\Local\V.Micro\Arduino\Builds\IREC_2017\chipKIT_chipkit_pic32_fubarino_sd/core.a(Stream.cpp.o)
 .text._ZN6Stream9findUntilEPKcmS1_m
                0x00000000       0x1c C:\Users\nukem419\AppData\Local\V.Micro\Arduino\Builds\IREC_2017\chipKIT_chipkit_pic32_fubarino_sd/core.a(Stream.cpp.o)
 .text._ZN6Stream8parseIntEc
                0x00000000       0xe4 C:\Users\nukem419\AppData\Local\V.Micro\Arduino\Builds\IREC_2017\chipKIT_chipkit_pic32_fubarino_sd/core.a(Stream.cpp.o)
 .text._ZN6Stream8parseIntEv
                0x00000000        0x8 C:\Users\nukem419\AppData\Local\V.Micro\Arduino\Builds\IREC_2017\chipKIT_chipkit_pic32_fubarino_sd/core.a(Stream.cpp.o)
 .text._ZN6Stream10parseFloatEc
                0x00000000      0x1bc C:\Users\nukem419\AppData\Local\V.Micro\Arduino\Builds\IREC_2017\chipKIT_chipkit_pic32_fubarino_sd/core.a(Stream.cpp.o)
 .text._ZN6Stream10parseFloatEv
                0x00000000        0x8 C:\Users\nukem419\AppData\Local\V.Micro\Arduino\Builds\IREC_2017\chipKIT_chipkit_pic32_fubarino_sd/core.a(Stream.cpp.o)
 .text._ZN6Stream14readBytesUntilEcPcm
                0x00000000       0x84 C:\Users\nukem419\AppData\Local\V.Micro\Arduino\Builds\IREC_2017\chipKIT_chipkit_pic32_fubarino_sd/core.a(Stream.cpp.o)
 .text._ZN6Stream10readStringEv
                0x00000000       0xcc C:\Users\nukem419\AppData\Local\V.Micro\Arduino\Builds\IREC_2017\chipKIT_chipkit_pic32_fubarino_sd/core.a(Stream.cpp.o)
 .text          0x00000000        0x0 C:\Users\nukem419\AppData\Local\V.Micro\Arduino\Builds\IREC_2017\chipKIT_chipkit_pic32_fubarino_sd/core.a(WString.cpp.o)
 .data          0x00000000        0x0 C:\Users\nukem419\AppData\Local\V.Micro\Arduino\Builds\IREC_2017\chipKIT_chipkit_pic32_fubarino_sd/core.a(WString.cpp.o)
 .bss           0x00000000        0x0 C:\Users\nukem419\AppData\Local\V.Micro\Arduino\Builds\IREC_2017\chipKIT_chipkit_pic32_fubarino_sd/core.a(WString.cpp.o)
 .reginfo       0x00000000       0x18 C:\Users\nukem419\AppData\Local\V.Micro\Arduino\Builds\IREC_2017\chipKIT_chipkit_pic32_fubarino_sd/core.a(WString.cpp.o)
 .text.ltoa     0x00000000       0x84 C:\Users\nukem419\AppData\Local\V.Micro\Arduino\Builds\IREC_2017\chipKIT_chipkit_pic32_fubarino_sd/core.a(WString.cpp.o)
 .text._Z7dtostrfdahPc
                0x00000000      0x144 C:\Users\nukem419\AppData\Local\V.Micro\Arduino\Builds\IREC_2017\chipKIT_chipkit_pic32_fubarino_sd/core.a(WString.cpp.o)
 .text._ZN6StringC2EOS_
                0x00000000       0x38 C:\Users\nukem419\AppData\Local\V.Micro\Arduino\Builds\IREC_2017\chipKIT_chipkit_pic32_fubarino_sd/core.a(WString.cpp.o)
 .text._ZN6StringC2EO15StringSumHelper
                0x00000000       0x38 C:\Users\nukem419\AppData\Local\V.Micro\Arduino\Builds\IREC_2017\chipKIT_chipkit_pic32_fubarino_sd/core.a(WString.cpp.o)
 .text._ZN6String10invalidateEv
                0x00000000       0x40 C:\Users\nukem419\AppData\Local\V.Micro\Arduino\Builds\IREC_2017\chipKIT_chipkit_pic32_fubarino_sd/core.a(WString.cpp.o)
 .text._ZN6String12changeBufferEj
                0x00000000       0x60 C:\Users\nukem419\AppData\Local\V.Micro\Arduino\Builds\IREC_2017\chipKIT_chipkit_pic32_fubarino_sd/core.a(WString.cpp.o)
 .text._ZN6String4copyEPK19__FlashStringHelperj
                0x00000000       0x90 C:\Users\nukem419\AppData\Local\V.Micro\Arduino\Builds\IREC_2017\chipKIT_chipkit_pic32_fubarino_sd/core.a(WString.cpp.o)
 .text._ZN6String4moveERS_
                0x00000000       0x9c C:\Users\nukem419\AppData\Local\V.Micro\Arduino\Builds\IREC_2017\chipKIT_chipkit_pic32_fubarino_sd/core.a(WString.cpp.o)
 .text._ZN6StringaSEOS_
                0x00000000       0x30 C:\Users\nukem419\AppData\Local\V.Micro\Arduino\Builds\IREC_2017\chipKIT_chipkit_pic32_fubarino_sd/core.a(WString.cpp.o)
 .text._ZN6StringaSEO15StringSumHelper
                0x00000000       0x30 C:\Users\nukem419\AppData\Local\V.Micro\Arduino\Builds\IREC_2017\chipKIT_chipkit_pic32_fubarino_sd/core.a(WString.cpp.o)
 .text._ZN6StringC2Eih
                0x00000000       0x44 C:\Users\nukem419\AppData\Local\V.Micro\Arduino\Builds\IREC_2017\chipKIT_chipkit_pic32_fubarino_sd/core.a(WString.cpp.o)
 .text._ZN6StringC2Ejh
                0x00000000       0x90 C:\Users\nukem419\AppData\Local\V.Micro\Arduino\Builds\IREC_2017\chipKIT_chipkit_pic32_fubarino_sd/core.a(WString.cpp.o)
 .text._ZN6StringC2Elh
                0x00000000       0x44 C:\Users\nukem419\AppData\Local\V.Micro\Arduino\Builds\IREC_2017\chipKIT_chipkit_pic32_fubarino_sd/core.a(WString.cpp.o)
 .text._ZN6StringC2Emh
                0x00000000       0x90 C:\Users\nukem419\AppData\Local\V.Micro\Arduino\Builds\IREC_2017\chipKIT_chipkit_pic32_fubarino_sd/core.a(WString.cpp.o)
 .text._ZN6StringC2Efh
                0x00000000       0x70 C:\Users\nukem419\AppData\Local\V.Micro\Arduino\Builds\IREC_2017\chipKIT_chipkit_pic32_fubarino_sd/core.a(WString.cpp.o)
 .text._ZN6StringC2Edh
                0x00000000       0x60 C:\Users\nukem419\AppData\Local\V.Micro\Arduino\Builds\IREC_2017\chipKIT_chipkit_pic32_fubarino_sd/core.a(WString.cpp.o)
 .text._ZN6StringaSEPK19__FlashStringHelper
                0x00000000       0x78 C:\Users\nukem419\AppData\Local\V.Micro\Arduino\Builds\IREC_2017\chipKIT_chipkit_pic32_fubarino_sd/core.a(WString.cpp.o)
 .text._ZN6StringC2EPK19__FlashStringHelper
                0x00000000       0x14 C:\Users\nukem419\AppData\Local\V.Micro\Arduino\Builds\IREC_2017\chipKIT_chipkit_pic32_fubarino_sd/core.a(WString.cpp.o)
 .text._ZN6String6concatERKS_
                0x00000000       0x10 C:\Users\nukem419\AppData\Local\V.Micro\Arduino\Builds\IREC_2017\chipKIT_chipkit_pic32_fubarino_sd/core.a(WString.cpp.o)
 .text._ZN6String6concatEPKc
                0x00000000       0x48 C:\Users\nukem419\AppData\Local\V.Micro\Arduino\Builds\IREC_2017\chipKIT_chipkit_pic32_fubarino_sd/core.a(WString.cpp.o)
 .text._ZN6String6concatEj
                0x00000000       0xa0 C:\Users\nukem419\AppData\Local\V.Micro\Arduino\Builds\IREC_2017\chipKIT_chipkit_pic32_fubarino_sd/core.a(WString.cpp.o)
 .text._ZN6String6concatEl
                0x00000000       0x48 C:\Users\nukem419\AppData\Local\V.Micro\Arduino\Builds\IREC_2017\chipKIT_chipkit_pic32_fubarino_sd/core.a(WString.cpp.o)
 .text._ZN6String6concatEm
                0x00000000       0xa0 C:\Users\nukem419\AppData\Local\V.Micro\Arduino\Builds\IREC_2017\chipKIT_chipkit_pic32_fubarino_sd/core.a(WString.cpp.o)
 .text._ZN6String6concatEf
                0x00000000       0x68 C:\Users\nukem419\AppData\Local\V.Micro\Arduino\Builds\IREC_2017\chipKIT_chipkit_pic32_fubarino_sd/core.a(WString.cpp.o)
 .text._ZN6String6concatEd
                0x00000000       0x60 C:\Users\nukem419\AppData\Local\V.Micro\Arduino\Builds\IREC_2017\chipKIT_chipkit_pic32_fubarino_sd/core.a(WString.cpp.o)
 .text._ZN6String6concatEPK19__FlashStringHelper
                0x00000000       0xc8 C:\Users\nukem419\AppData\Local\V.Micro\Arduino\Builds\IREC_2017\chipKIT_chipkit_pic32_fubarino_sd/core.a(WString.cpp.o)
 .text._ZplRK15StringSumHelperPKc
                0x00000000       0x6c C:\Users\nukem419\AppData\Local\V.Micro\Arduino\Builds\IREC_2017\chipKIT_chipkit_pic32_fubarino_sd/core.a(WString.cpp.o)
 .text._ZplRK15StringSumHelperj
                0x00000000       0x50 C:\Users\nukem419\AppData\Local\V.Micro\Arduino\Builds\IREC_2017\chipKIT_chipkit_pic32_fubarino_sd/core.a(WString.cpp.o)
 .text._ZplRK15StringSumHelperl
                0x00000000       0x50 C:\Users\nukem419\AppData\Local\V.Micro\Arduino\Builds\IREC_2017\chipKIT_chipkit_pic32_fubarino_sd/core.a(WString.cpp.o)
 .text._ZplRK15StringSumHelperm
                0x00000000       0x50 C:\Users\nukem419\AppData\Local\V.Micro\Arduino\Builds\IREC_2017\chipKIT_chipkit_pic32_fubarino_sd/core.a(WString.cpp.o)
 .text._ZplRK15StringSumHelperf
                0x00000000       0x50 C:\Users\nukem419\AppData\Local\V.Micro\Arduino\Builds\IREC_2017\chipKIT_chipkit_pic32_fubarino_sd/core.a(WString.cpp.o)
 .text._ZplRK15StringSumHelperd
                0x00000000       0x50 C:\Users\nukem419\AppData\Local\V.Micro\Arduino\Builds\IREC_2017\chipKIT_chipkit_pic32_fubarino_sd/core.a(WString.cpp.o)
 .text._ZplRK15StringSumHelperPK19__FlashStringHelper
                0x00000000       0x50 C:\Users\nukem419\AppData\Local\V.Micro\Arduino\Builds\IREC_2017\chipKIT_chipkit_pic32_fubarino_sd/core.a(WString.cpp.o)
 .text._ZNK6String9compareToERKS_
                0x00000000       0x58 C:\Users\nukem419\AppData\Local\V.Micro\Arduino\Builds\IREC_2017\chipKIT_chipkit_pic32_fubarino_sd/core.a(WString.cpp.o)
 .text._ZNK6String6equalsERKS_
                0x00000000       0x38 C:\Users\nukem419\AppData\Local\V.Micro\Arduino\Builds\IREC_2017\chipKIT_chipkit_pic32_fubarino_sd/core.a(WString.cpp.o)
 .text._ZNK6String6equalsEPKc
                0x00000000       0x50 C:\Users\nukem419\AppData\Local\V.Micro\Arduino\Builds\IREC_2017\chipKIT_chipkit_pic32_fubarino_sd/core.a(WString.cpp.o)
 .text._ZNK6StringltERKS_
                0x00000000       0x20 C:\Users\nukem419\AppData\Local\V.Micro\Arduino\Builds\IREC_2017\chipKIT_chipkit_pic32_fubarino_sd/core.a(WString.cpp.o)
 .text._ZNK6StringgtERKS_
                0x00000000       0x20 C:\Users\nukem419\AppData\Local\V.Micro\Arduino\Builds\IREC_2017\chipKIT_chipkit_pic32_fubarino_sd/core.a(WString.cpp.o)
 .text._ZNK6StringleERKS_
                0x00000000       0x20 C:\Users\nukem419\AppData\Local\V.Micro\Arduino\Builds\IREC_2017\chipKIT_chipkit_pic32_fubarino_sd/core.a(WString.cpp.o)
 .text._ZNK6StringgeERKS_
                0x00000000       0x24 C:\Users\nukem419\AppData\Local\V.Micro\Arduino\Builds\IREC_2017\chipKIT_chipkit_pic32_fubarino_sd/core.a(WString.cpp.o)
 .text._ZNK6String16equalsIgnoreCaseERKS_
                0x00000000       0x9c C:\Users\nukem419\AppData\Local\V.Micro\Arduino\Builds\IREC_2017\chipKIT_chipkit_pic32_fubarino_sd/core.a(WString.cpp.o)
 .text._ZNK6String10startsWithERKS_j
                0x00000000       0x54 C:\Users\nukem419\AppData\Local\V.Micro\Arduino\Builds\IREC_2017\chipKIT_chipkit_pic32_fubarino_sd/core.a(WString.cpp.o)
 .text._ZNK6String10startsWithERKS_
                0x00000000       0x24 C:\Users\nukem419\AppData\Local\V.Micro\Arduino\Builds\IREC_2017\chipKIT_chipkit_pic32_fubarino_sd/core.a(WString.cpp.o)
 .text._ZNK6String8endsWithERKS_
                0x00000000       0x50 C:\Users\nukem419\AppData\Local\V.Micro\Arduino\Builds\IREC_2017\chipKIT_chipkit_pic32_fubarino_sd/core.a(WString.cpp.o)
 .text._ZN6String9setCharAtEjc
                0x00000000       0x24 C:\Users\nukem419\AppData\Local\V.Micro\Arduino\Builds\IREC_2017\chipKIT_chipkit_pic32_fubarino_sd/core.a(WString.cpp.o)
 .text._ZN6StringixEj
                0x00000000       0x30 C:\Users\nukem419\AppData\Local\V.Micro\Arduino\Builds\IREC_2017\chipKIT_chipkit_pic32_fubarino_sd/core.a(WString.cpp.o)
 .text._ZNK6StringixEj
                0x00000000       0x28 C:\Users\nukem419\AppData\Local\V.Micro\Arduino\Builds\IREC_2017\chipKIT_chipkit_pic32_fubarino_sd/core.a(WString.cpp.o)
 .text._ZNK6String8getBytesEPhjj
                0x00000000       0x74 C:\Users\nukem419\AppData\Local\V.Micro\Arduino\Builds\IREC_2017\chipKIT_chipkit_pic32_fubarino_sd/core.a(WString.cpp.o)
 .text._ZNK6String7indexOfERKS_j
                0x00000000       0x54 C:\Users\nukem419\AppData\Local\V.Micro\Arduino\Builds\IREC_2017\chipKIT_chipkit_pic32_fubarino_sd/core.a(WString.cpp.o)
 .text._ZNK6String7indexOfERKS_
                0x00000000        0x8 C:\Users\nukem419\AppData\Local\V.Micro\Arduino\Builds\IREC_2017\chipKIT_chipkit_pic32_fubarino_sd/core.a(WString.cpp.o)
 .text._ZNK6String11lastIndexOfEcj
                0x00000000       0x84 C:\Users\nukem419\AppData\Local\V.Micro\Arduino\Builds\IREC_2017\chipKIT_chipkit_pic32_fubarino_sd/core.a(WString.cpp.o)
 .text._ZNK6String11lastIndexOfEc
                0x00000000       0x10 C:\Users\nukem419\AppData\Local\V.Micro\Arduino\Builds\IREC_2017\chipKIT_chipkit_pic32_fubarino_sd/core.a(WString.cpp.o)
 .text._ZNK6String11lastIndexOfERKS_j
                0x00000000       0xc0 C:\Users\nukem419\AppData\Local\V.Micro\Arduino\Builds\IREC_2017\chipKIT_chipkit_pic32_fubarino_sd/core.a(WString.cpp.o)
 .text._ZNK6String11lastIndexOfERKS_
                0x00000000       0x10 C:\Users\nukem419\AppData\Local\V.Micro\Arduino\Builds\IREC_2017\chipKIT_chipkit_pic32_fubarino_sd/core.a(WString.cpp.o)
 .text._ZNK6String9substringEj
                0x00000000       0x2c C:\Users\nukem419\AppData\Local\V.Micro\Arduino\Builds\IREC_2017\chipKIT_chipkit_pic32_fubarino_sd/core.a(WString.cpp.o)
 .text._ZN6String7replaceEcc
                0x00000000       0x48 C:\Users\nukem419\AppData\Local\V.Micro\Arduino\Builds\IREC_2017\chipKIT_chipkit_pic32_fubarino_sd/core.a(WString.cpp.o)
 .text._ZN6String7replaceERKS_S1_
                0x00000000      0x238 C:\Users\nukem419\AppData\Local\V.Micro\Arduino\Builds\IREC_2017\chipKIT_chipkit_pic32_fubarino_sd/core.a(WString.cpp.o)
 .text._ZN6String6removeEj
                0x00000000       0x38 C:\Users\nukem419\AppData\Local\V.Micro\Arduino\Builds\IREC_2017\chipKIT_chipkit_pic32_fubarino_sd/core.a(WString.cpp.o)
 .text._ZN6String11toLowerCaseEv
                0x00000000       0x54 C:\Users\nukem419\AppData\Local\V.Micro\Arduino\Builds\IREC_2017\chipKIT_chipkit_pic32_fubarino_sd/core.a(WString.cpp.o)
 .text._ZN6String11toUpperCaseEv
                0x00000000       0x54 C:\Users\nukem419\AppData\Local\V.Micro\Arduino\Builds\IREC_2017\chipKIT_chipkit_pic32_fubarino_sd/core.a(WString.cpp.o)
 .text._ZN6String4trimEv
                0x00000000       0xc4 C:\Users\nukem419\AppData\Local\V.Micro\Arduino\Builds\IREC_2017\chipKIT_chipkit_pic32_fubarino_sd/core.a(WString.cpp.o)
 .text          0x00000000        0x0 C:\Users\nukem419\AppData\Local\V.Micro\Arduino\Builds\IREC_2017\chipKIT_chipkit_pic32_fubarino_sd/core.a(vector_table.S.o)
 .data          0x00000000        0x0 C:\Users\nukem419\AppData\Local\V.Micro\Arduino\Builds\IREC_2017\chipKIT_chipkit_pic32_fubarino_sd/core.a(vector_table.S.o)
 .bss           0x00000000        0x0 C:\Users\nukem419\AppData\Local\V.Micro\Arduino\Builds\IREC_2017\chipKIT_chipkit_pic32_fubarino_sd/core.a(vector_table.S.o)
 .reginfo       0x00000000       0x18 C:\Users\nukem419\AppData\Local\V.Micro\Arduino\Builds\IREC_2017\chipKIT_chipkit_pic32_fubarino_sd/core.a(vector_table.S.o)
 .text          0x00000000        0x0 C:\Users\nukem419\AppData\Local\V.Micro\Arduino\Builds\IREC_2017\chipKIT_chipkit_pic32_fubarino_sd/core.a(HardwareSerial_cdcacm.c.o)
 .data          0x00000000        0x0 C:\Users\nukem419\AppData\Local\V.Micro\Arduino\Builds\IREC_2017\chipKIT_chipkit_pic32_fubarino_sd/core.a(HardwareSerial_cdcacm.c.o)
 .bss           0x00000000        0x0 C:\Users\nukem419\AppData\Local\V.Micro\Arduino\Builds\IREC_2017\chipKIT_chipkit_pic32_fubarino_sd/core.a(HardwareSerial_cdcacm.c.o)
 .reginfo       0x00000000       0x18 C:\Users\nukem419\AppData\Local\V.Micro\Arduino\Builds\IREC_2017\chipKIT_chipkit_pic32_fubarino_sd/core.a(HardwareSerial_cdcacm.c.o)
 .text          0x00000000        0x0 C:\Users\nukem419\AppData\Local\V.Micro\Arduino\Builds\IREC_2017\chipKIT_chipkit_pic32_fubarino_sd/core.a(HardwareSerial_usb.c.o)
 .data          0x00000000        0x0 C:\Users\nukem419\AppData\Local\V.Micro\Arduino\Builds\IREC_2017\chipKIT_chipkit_pic32_fubarino_sd/core.a(HardwareSerial_usb.c.o)
 .bss           0x00000000        0x0 C:\Users\nukem419\AppData\Local\V.Micro\Arduino\Builds\IREC_2017\chipKIT_chipkit_pic32_fubarino_sd/core.a(HardwareSerial_usb.c.o)
 .reginfo       0x00000000       0x18 C:\Users\nukem419\AppData\Local\V.Micro\Arduino\Builds\IREC_2017\chipKIT_chipkit_pic32_fubarino_sd/core.a(HardwareSerial_usb.c.o)
 .text.usb_uninitialize
                0x00000000       0x2c C:\Users\nukem419\AppData\Local\V.Micro\Arduino\Builds\IREC_2017\chipKIT_chipkit_pic32_fubarino_sd/core.a(HardwareSerial_usb.c.o)
 .text          0x00000000        0x0 C:\Users\nukem419\AppData\Local\V.Micro\Arduino\Builds\IREC_2017\chipKIT_chipkit_pic32_fubarino_sd/core.a(pins_arduino.c.o)
 .data          0x00000000        0x0 C:\Users\nukem419\AppData\Local\V.Micro\Arduino\Builds\IREC_2017\chipKIT_chipkit_pic32_fubarino_sd/core.a(pins_arduino.c.o)
 .bss           0x00000000        0x0 C:\Users\nukem419\AppData\Local\V.Micro\Arduino\Builds\IREC_2017\chipKIT_chipkit_pic32_fubarino_sd/core.a(pins_arduino.c.o)
 .reginfo       0x00000000       0x18 C:\Users\nukem419\AppData\Local\V.Micro\Arduino\Builds\IREC_2017\chipKIT_chipkit_pic32_fubarino_sd/core.a(pins_arduino.c.o)
 .rodata.analog_pin_to_channel_PGM.analog_pin_to_channel_PGM
                0x00000000       0x10 C:\Users\nukem419\AppData\Local\V.Micro\Arduino\Builds\IREC_2017\chipKIT_chipkit_pic32_fubarino_sd/core.a(pins_arduino.c.o)
 .rodata.digital_pin_to_analog_PGM.digital_pin_to_analog_PGM
                0x00000000       0x30 C:\Users\nukem419\AppData\Local\V.Micro\Arduino\Builds\IREC_2017\chipKIT_chipkit_pic32_fubarino_sd/core.a(pins_arduino.c.o)
 .text          0x00000000        0x0 C:\Users\nukem419\AppData\Local\V.Micro\Arduino\Builds\IREC_2017\chipKIT_chipkit_pic32_fubarino_sd/core.a(wiring_analog.c.o)
 .data          0x00000000        0x0 C:\Users\nukem419\AppData\Local\V.Micro\Arduino\Builds\IREC_2017\chipKIT_chipkit_pic32_fubarino_sd/core.a(wiring_analog.c.o)
 .bss           0x00000000        0x0 C:\Users\nukem419\AppData\Local\V.Micro\Arduino\Builds\IREC_2017\chipKIT_chipkit_pic32_fubarino_sd/core.a(wiring_analog.c.o)
 .reginfo       0x00000000       0x18 C:\Users\nukem419\AppData\Local\V.Micro\Arduino\Builds\IREC_2017\chipKIT_chipkit_pic32_fubarino_sd/core.a(wiring_analog.c.o)
 .text.configurePWM
                0x00000000      0x100 C:\Users\nukem419\AppData\Local\V.Micro\Arduino\Builds\IREC_2017\chipKIT_chipkit_pic32_fubarino_sd/core.a(wiring_analog.c.o)
 .text.analogReference
                0x00000000       0x44 C:\Users\nukem419\AppData\Local\V.Micro\Arduino\Builds\IREC_2017\chipKIT_chipkit_pic32_fubarino_sd/core.a(wiring_analog.c.o)
 .text.analogReadConversionStart
                0x00000000       0xe8 C:\Users\nukem419\AppData\Local\V.Micro\Arduino\Builds\IREC_2017\chipKIT_chipkit_pic32_fubarino_sd/core.a(wiring_analog.c.o)
 .text.analogReadConversionComplete
                0x00000000       0x10 C:\Users\nukem419\AppData\Local\V.Micro\Arduino\Builds\IREC_2017\chipKIT_chipkit_pic32_fubarino_sd/core.a(wiring_analog.c.o)
 .text.analogReadConversion
                0x00000000       0x10 C:\Users\nukem419\AppData\Local\V.Micro\Arduino\Builds\IREC_2017\chipKIT_chipkit_pic32_fubarino_sd/core.a(wiring_analog.c.o)
 .text.analogRead
                0x00000000       0x34 C:\Users\nukem419\AppData\Local\V.Micro\Arduino\Builds\IREC_2017\chipKIT_chipkit_pic32_fubarino_sd/core.a(wiring_analog.c.o)
 .text.analogWrite
                0x00000000      0x154 C:\Users\nukem419\AppData\Local\V.Micro\Arduino\Builds\IREC_2017\chipKIT_chipkit_pic32_fubarino_sd/core.a(wiring_analog.c.o)
 .text.analogWriteFrequency
                0x00000000      0x124 C:\Users\nukem419\AppData\Local\V.Micro\Arduino\Builds\IREC_2017\chipKIT_chipkit_pic32_fubarino_sd/core.a(wiring_analog.c.o)
 .text.analogWriteResolution
                0x00000000      0x134 C:\Users\nukem419\AppData\Local\V.Micro\Arduino\Builds\IREC_2017\chipKIT_chipkit_pic32_fubarino_sd/core.a(wiring_analog.c.o)
 .rodata.psval.psval
                0x00000000       0x20 C:\Users\nukem419\AppData\Local\V.Micro\Arduino\Builds\IREC_2017\chipKIT_chipkit_pic32_fubarino_sd/core.a(wiring_analog.c.o)
 .text          0x00000000        0x0 C:\Users\nukem419\AppData\Local\V.Micro\Arduino\Builds\IREC_2017\chipKIT_chipkit_pic32_fubarino_sd/core.a(doprnt.cpp.o)
 .data          0x00000000        0x0 C:\Users\nukem419\AppData\Local\V.Micro\Arduino\Builds\IREC_2017\chipKIT_chipkit_pic32_fubarino_sd/core.a(doprnt.cpp.o)
 .bss           0x00000000        0x0 C:\Users\nukem419\AppData\Local\V.Micro\Arduino\Builds\IREC_2017\chipKIT_chipkit_pic32_fubarino_sd/core.a(doprnt.cpp.o)
 .reginfo       0x00000000       0x18 C:\Users\nukem419\AppData\Local\V.Micro\Arduino\Builds\IREC_2017\chipKIT_chipkit_pic32_fubarino_sd/core.a(doprnt.cpp.o)
 .text._ZL8cvtrounddPiPhS0_hS0_
                0x00000000      0x1c0 C:\Users\nukem419\AppData\Local\V.Micro\Arduino\Builds\IREC_2017\chipKIT_chipkit_pic32_fubarino_sd/core.a(doprnt.cpp.o)
 .rodata        0x00000000       0x40 C:\Users\nukem419\AppData\Local\V.Micro\Arduino\Builds\IREC_2017\chipKIT_chipkit_pic32_fubarino_sd/core.a(doprnt.cpp.o)
 .text._Z7_doprntPKcPvP5Print
                0x00000000     0x1df0 C:\Users\nukem419\AppData\Local\V.Micro\Arduino\Builds\IREC_2017\chipKIT_chipkit_pic32_fubarino_sd/core.a(doprnt.cpp.o)
 .text          0x00000000        0x0 c:/users/nukem419/appdata/local/arduino15/packages/chipkit/tools/pic32-tools/1.42-pic32gcc/bin/bin/../../lib/gcc/pic32mx/4.8.3/../../../../pic32mx/lib/size\libsupc++.a(class_type_info.o)
 .data          0x00000000        0x0 c:/users/nukem419/appdata/local/arduino15/packages/chipkit/tools/pic32-tools/1.42-pic32gcc/bin/bin/../../lib/gcc/pic32mx/4.8.3/../../../../pic32mx/lib/size\libsupc++.a(class_type_info.o)
 .bss           0x00000000        0x0 c:/users/nukem419/appdata/local/arduino15/packages/chipkit/tools/pic32-tools/1.42-pic32gcc/bin/bin/../../lib/gcc/pic32mx/4.8.3/../../../../pic32mx/lib/size\libsupc++.a(class_type_info.o)
 .reginfo       0x00000000       0x18 c:/users/nukem419/appdata/local/arduino15/packages/chipkit/tools/pic32-tools/1.42-pic32gcc/bin/bin/../../lib/gcc/pic32mx/4.8.3/../../../../pic32mx/lib/size\libsupc++.a(class_type_info.o)
 .rodata._ZN10__cxxabiv112_GLOBAL__N_1L20nonvirtual_base_typeE.nonvirtual_base_type
                0x00000000        0x4 c:/users/nukem419/appdata/local/arduino15/packages/chipkit/tools/pic32-tools/1.42-pic32gcc/bin/bin/../../lib/gcc/pic32mx/4.8.3/../../../../pic32mx/lib/size\libsupc++.a(class_type_info.o)
 .text          0x00000000        0x0 c:/users/nukem419/appdata/local/arduino15/packages/chipkit/tools/pic32-tools/1.42-pic32gcc/bin/bin/../../lib/gcc/pic32mx/4.8.3/../../../../pic32mx/lib/size\libsupc++.a(del_op.o)
 .data          0x00000000        0x0 c:/users/nukem419/appdata/local/arduino15/packages/chipkit/tools/pic32-tools/1.42-pic32gcc/bin/bin/../../lib/gcc/pic32mx/4.8.3/../../../../pic32mx/lib/size\libsupc++.a(del_op.o)
 .bss           0x00000000        0x0 c:/users/nukem419/appdata/local/arduino15/packages/chipkit/tools/pic32-tools/1.42-pic32gcc/bin/bin/../../lib/gcc/pic32mx/4.8.3/../../../../pic32mx/lib/size\libsupc++.a(del_op.o)
 .reginfo       0x00000000       0x18 c:/users/nukem419/appdata/local/arduino15/packages/chipkit/tools/pic32-tools/1.42-pic32gcc/bin/bin/../../lib/gcc/pic32mx/4.8.3/../../../../pic32mx/lib/size\libsupc++.a(del_op.o)
 .text          0x00000000        0x0 c:/users/nukem419/appdata/local/arduino15/packages/chipkit/tools/pic32-tools/1.42-pic32gcc/bin/bin/../../lib/gcc/pic32mx/4.8.3/../../../../pic32mx/lib/size\libsupc++.a(eh_personality.o)
 .data          0x00000000        0x0 c:/users/nukem419/appdata/local/arduino15/packages/chipkit/tools/pic32-tools/1.42-pic32gcc/bin/bin/../../lib/gcc/pic32mx/4.8.3/../../../../pic32mx/lib/size\libsupc++.a(eh_personality.o)
 .bss           0x00000000        0x0 c:/users/nukem419/appdata/local/arduino15/packages/chipkit/tools/pic32-tools/1.42-pic32gcc/bin/bin/../../lib/gcc/pic32mx/4.8.3/../../../../pic32mx/lib/size\libsupc++.a(eh_personality.o)
 .reginfo       0x00000000       0x18 c:/users/nukem419/appdata/local/arduino15/packages/chipkit/tools/pic32-tools/1.42-pic32gcc/bin/bin/../../lib/gcc/pic32mx/4.8.3/../../../../pic32mx/lib/size\libsupc++.a(eh_personality.o)
 .text.__cxa_call_unexpected
                0x00000000       0x1c c:/users/nukem419/appdata/local/arduino15/packages/chipkit/tools/pic32-tools/1.42-pic32gcc/bin/bin/../../lib/gcc/pic32mx/4.8.3/../../../../pic32mx/lib/size\libsupc++.a(eh_personality.o)
 .rodata._ZN10__cxxabiv1L29__gxx_primary_exception_classE.__gxx_primary_exception_class
                0x00000000        0x8 c:/users/nukem419/appdata/local/arduino15/packages/chipkit/tools/pic32-tools/1.42-pic32gcc/bin/bin/../../lib/gcc/pic32mx/4.8.3/../../../../pic32mx/lib/size\libsupc++.a(eh_personality.o)
 .rodata._ZN10__cxxabiv1L31__gxx_dependent_exception_classE.__gxx_dependent_exception_class
                0x00000000        0x8 c:/users/nukem419/appdata/local/arduino15/packages/chipkit/tools/pic32-tools/1.42-pic32gcc/bin/bin/../../lib/gcc/pic32mx/4.8.3/../../../../pic32mx/lib/size\libsupc++.a(eh_personality.o)
 .text          0x00000000        0x0 c:/users/nukem419/appdata/local/arduino15/packages/chipkit/tools/pic32-tools/1.42-pic32gcc/bin/bin/../../lib/gcc/pic32mx/4.8.3/../../../../pic32mx/lib/size\libsupc++.a(eh_terminate.o)
 .data          0x00000000        0x0 c:/users/nukem419/appdata/local/arduino15/packages/chipkit/tools/pic32-tools/1.42-pic32gcc/bin/bin/../../lib/gcc/pic32mx/4.8.3/../../../../pic32mx/lib/size\libsupc++.a(eh_terminate.o)
 .bss           0x00000000        0x0 c:/users/nukem419/appdata/local/arduino15/packages/chipkit/tools/pic32-tools/1.42-pic32gcc/bin/bin/../../lib/gcc/pic32mx/4.8.3/../../../../pic32mx/lib/size\libsupc++.a(eh_terminate.o)
 .reginfo       0x00000000       0x18 c:/users/nukem419/appdata/local/arduino15/packages/chipkit/tools/pic32-tools/1.42-pic32gcc/bin/bin/../../lib/gcc/pic32mx/4.8.3/../../../../pic32mx/lib/size\libsupc++.a(eh_terminate.o)
 .text._ZSt13set_terminatePFvvE
                0x00000000       0x10 c:/users/nukem419/appdata/local/arduino15/packages/chipkit/tools/pic32-tools/1.42-pic32gcc/bin/bin/../../lib/gcc/pic32mx/4.8.3/../../../../pic32mx/lib/size\libsupc++.a(eh_terminate.o)
 .text._ZSt14set_unexpectedPFvvE
                0x00000000       0x10 c:/users/nukem419/appdata/local/arduino15/packages/chipkit/tools/pic32-tools/1.42-pic32gcc/bin/bin/../../lib/gcc/pic32mx/4.8.3/../../../../pic32mx/lib/size\libsupc++.a(eh_terminate.o)
 .rodata._ZN10__cxxabiv1L29__gxx_primary_exception_classE.__gxx_primary_exception_class
                0x00000000        0x8 c:/users/nukem419/appdata/local/arduino15/packages/chipkit/tools/pic32-tools/1.42-pic32gcc/bin/bin/../../lib/gcc/pic32mx/4.8.3/../../../../pic32mx/lib/size\libsupc++.a(eh_terminate.o)
 .rodata._ZN10__cxxabiv1L31__gxx_dependent_exception_classE.__gxx_dependent_exception_class
                0x00000000        0x8 c:/users/nukem419/appdata/local/arduino15/packages/chipkit/tools/pic32-tools/1.42-pic32gcc/bin/bin/../../lib/gcc/pic32mx/4.8.3/../../../../pic32mx/lib/size\libsupc++.a(eh_terminate.o)
 .text          0x00000000        0x0 c:/users/nukem419/appdata/local/arduino15/packages/chipkit/tools/pic32-tools/1.42-pic32gcc/bin/bin/../../lib/gcc/pic32mx/4.8.3/../../../../pic32mx/lib/size\libsupc++.a(eh_unex_handler.o)
 .data          0x00000000        0x0 c:/users/nukem419/appdata/local/arduino15/packages/chipkit/tools/pic32-tools/1.42-pic32gcc/bin/bin/../../lib/gcc/pic32mx/4.8.3/../../../../pic32mx/lib/size\libsupc++.a(eh_unex_handler.o)
 .bss           0x00000000        0x0 c:/users/nukem419/appdata/local/arduino15/packages/chipkit/tools/pic32-tools/1.42-pic32gcc/bin/bin/../../lib/gcc/pic32mx/4.8.3/../../../../pic32mx/lib/size\libsupc++.a(eh_unex_handler.o)
 .reginfo       0x00000000       0x18 c:/users/nukem419/appdata/local/arduino15/packages/chipkit/tools/pic32-tools/1.42-pic32gcc/bin/bin/../../lib/gcc/pic32mx/4.8.3/../../../../pic32mx/lib/size\libsupc++.a(eh_unex_handler.o)
 .rodata._ZN10__cxxabiv1L29__gxx_primary_exception_classE.__gxx_primary_exception_class
                0x00000000        0x8 c:/users/nukem419/appdata/local/arduino15/packages/chipkit/tools/pic32-tools/1.42-pic32gcc/bin/bin/../../lib/gcc/pic32mx/4.8.3/../../../../pic32mx/lib/size\libsupc++.a(eh_unex_handler.o)
 .rodata._ZN10__cxxabiv1L31__gxx_dependent_exception_classE.__gxx_dependent_exception_class
                0x00000000        0x8 c:/users/nukem419/appdata/local/arduino15/packages/chipkit/tools/pic32-tools/1.42-pic32gcc/bin/bin/../../lib/gcc/pic32mx/4.8.3/../../../../pic32mx/lib/size\libsupc++.a(eh_unex_handler.o)
 .text          0x00000000        0x0 c:/users/nukem419/appdata/local/arduino15/packages/chipkit/tools/pic32-tools/1.42-pic32gcc/bin/bin/../../lib/gcc/pic32mx/4.8.3/../../../../pic32mx/lib/size\libsupc++.a(new_op.o)
 .data          0x00000000        0x0 c:/users/nukem419/appdata/local/arduino15/packages/chipkit/tools/pic32-tools/1.42-pic32gcc/bin/bin/../../lib/gcc/pic32mx/4.8.3/../../../../pic32mx/lib/size\libsupc++.a(new_op.o)
 .bss           0x00000000        0x0 c:/users/nukem419/appdata/local/arduino15/packages/chipkit/tools/pic32-tools/1.42-pic32gcc/bin/bin/../../lib/gcc/pic32mx/4.8.3/../../../../pic32mx/lib/size\libsupc++.a(new_op.o)
 .reginfo       0x00000000       0x18 c:/users/nukem419/appdata/local/arduino15/packages/chipkit/tools/pic32-tools/1.42-pic32gcc/bin/bin/../../lib/gcc/pic32mx/4.8.3/../../../../pic32mx/lib/size\libsupc++.a(new_op.o)
 .text          0x00000000        0x0 c:/users/nukem419/appdata/local/arduino15/packages/chipkit/tools/pic32-tools/1.42-pic32gcc/bin/bin/../../lib/gcc/pic32mx/4.8.3/../../../../pic32mx/lib/size\libsupc++.a(si_class_type_info.o)
 .data          0x00000000        0x0 c:/users/nukem419/appdata/local/arduino15/packages/chipkit/tools/pic32-tools/1.42-pic32gcc/bin/bin/../../lib/gcc/pic32mx/4.8.3/../../../../pic32mx/lib/size\libsupc++.a(si_class_type_info.o)
 .bss           0x00000000        0x0 c:/users/nukem419/appdata/local/arduino15/packages/chipkit/tools/pic32-tools/1.42-pic32gcc/bin/bin/../../lib/gcc/pic32mx/4.8.3/../../../../pic32mx/lib/size\libsupc++.a(si_class_type_info.o)
 .reginfo       0x00000000       0x18 c:/users/nukem419/appdata/local/arduino15/packages/chipkit/tools/pic32-tools/1.42-pic32gcc/bin/bin/../../lib/gcc/pic32mx/4.8.3/../../../../pic32mx/lib/size\libsupc++.a(si_class_type_info.o)
 .text          0x00000000        0x0 c:/users/nukem419/appdata/local/arduino15/packages/chipkit/tools/pic32-tools/1.42-pic32gcc/bin/bin/../../lib/gcc/pic32mx/4.8.3/../../../../pic32mx/lib/size\libsupc++.a(tinfo.o)
 .data          0x00000000        0x0 c:/users/nukem419/appdata/local/arduino15/packages/chipkit/tools/pic32-tools/1.42-pic32gcc/bin/bin/../../lib/gcc/pic32mx/4.8.3/../../../../pic32mx/lib/size\libsupc++.a(tinfo.o)
 .bss           0x00000000        0x0 c:/users/nukem419/appdata/local/arduino15/packages/chipkit/tools/pic32-tools/1.42-pic32gcc/bin/bin/../../lib/gcc/pic32mx/4.8.3/../../../../pic32mx/lib/size\libsupc++.a(tinfo.o)
 .reginfo       0x00000000       0x18 c:/users/nukem419/appdata/local/arduino15/packages/chipkit/tools/pic32-tools/1.42-pic32gcc/bin/bin/../../lib/gcc/pic32mx/4.8.3/../../../../pic32mx/lib/size\libsupc++.a(tinfo.o)
 .text          0x00000000        0x0 c:/users/nukem419/appdata/local/arduino15/packages/chipkit/tools/pic32-tools/1.42-pic32gcc/bin/bin/../../lib/gcc/pic32mx/4.8.3/../../../../pic32mx/lib/size\libsupc++.a(pure.o)
 .data          0x00000000        0x0 c:/users/nukem419/appdata/local/arduino15/packages/chipkit/tools/pic32-tools/1.42-pic32gcc/bin/bin/../../lib/gcc/pic32mx/4.8.3/../../../../pic32mx/lib/size\libsupc++.a(pure.o)
 .bss           0x00000000        0x0 c:/users/nukem419/appdata/local/arduino15/packages/chipkit/tools/pic32-tools/1.42-pic32gcc/bin/bin/../../lib/gcc/pic32mx/4.8.3/../../../../pic32mx/lib/size\libsupc++.a(pure.o)
 .reginfo       0x00000000       0x18 c:/users/nukem419/appdata/local/arduino15/packages/chipkit/tools/pic32-tools/1.42-pic32gcc/bin/bin/../../lib/gcc/pic32mx/4.8.3/../../../../pic32mx/lib/size\libsupc++.a(pure.o)
 .text.__cxa_pure_virtual
                0x00000000       0x10 c:/users/nukem419/appdata/local/arduino15/packages/chipkit/tools/pic32-tools/1.42-pic32gcc/bin/bin/../../lib/gcc/pic32mx/4.8.3/../../../../pic32mx/lib/size\libsupc++.a(pure.o)
 .text.__cxa_deleted_virtual
                0x00000000       0x10 c:/users/nukem419/appdata/local/arduino15/packages/chipkit/tools/pic32-tools/1.42-pic32gcc/bin/bin/../../lib/gcc/pic32mx/4.8.3/../../../../pic32mx/lib/size\libsupc++.a(pure.o)
 .rodata._ZN10__cxxabiv1L29__gxx_primary_exception_classE.__gxx_primary_exception_class
                0x00000000        0x8 c:/users/nukem419/appdata/local/arduino15/packages/chipkit/tools/pic32-tools/1.42-pic32gcc/bin/bin/../../lib/gcc/pic32mx/4.8.3/../../../../pic32mx/lib/size\libsupc++.a(pure.o)
 .rodata._ZN10__cxxabiv1L31__gxx_dependent_exception_classE.__gxx_dependent_exception_class
                0x00000000        0x8 c:/users/nukem419/appdata/local/arduino15/packages/chipkit/tools/pic32-tools/1.42-pic32gcc/bin/bin/../../lib/gcc/pic32mx/4.8.3/../../../../pic32mx/lib/size\libsupc++.a(pure.o)
 .text          0x00000000        0x0 c:/users/nukem419/appdata/local/arduino15/packages/chipkit/tools/pic32-tools/1.42-pic32gcc/bin/bin/../../lib/gcc/pic32mx/4.8.3/../../../../pic32mx/lib/size\libsupc++.a(eh_call.o)
 .data          0x00000000        0x0 c:/users/nukem419/appdata/local/arduino15/packages/chipkit/tools/pic32-tools/1.42-pic32gcc/bin/bin/../../lib/gcc/pic32mx/4.8.3/../../../../pic32mx/lib/size\libsupc++.a(eh_call.o)
 .bss           0x00000000        0x0 c:/users/nukem419/appdata/local/arduino15/packages/chipkit/tools/pic32-tools/1.42-pic32gcc/bin/bin/../../lib/gcc/pic32mx/4.8.3/../../../../pic32mx/lib/size\libsupc++.a(eh_call.o)
 .reginfo       0x00000000       0x18 c:/users/nukem419/appdata/local/arduino15/packages/chipkit/tools/pic32-tools/1.42-pic32gcc/bin/bin/../../lib/gcc/pic32mx/4.8.3/../../../../pic32mx/lib/size\libsupc++.a(eh_call.o)
 .rodata._ZN10__cxxabiv1L29__gxx_primary_exception_classE.__gxx_primary_exception_class
                0x00000000        0x8 c:/users/nukem419/appdata/local/arduino15/packages/chipkit/tools/pic32-tools/1.42-pic32gcc/bin/bin/../../lib/gcc/pic32mx/4.8.3/../../../../pic32mx/lib/size\libsupc++.a(eh_call.o)
 .rodata._ZN10__cxxabiv1L31__gxx_dependent_exception_classE.__gxx_dependent_exception_class
                0x00000000        0x8 c:/users/nukem419/appdata/local/arduino15/packages/chipkit/tools/pic32-tools/1.42-pic32gcc/bin/bin/../../lib/gcc/pic32mx/4.8.3/../../../../pic32mx/lib/size\libsupc++.a(eh_call.o)
 .text          0x00000000        0x0 c:/users/nukem419/appdata/local/arduino15/packages/chipkit/tools/pic32-tools/1.42-pic32gcc/bin/bin/../../lib/gcc/pic32mx/4.8.3/../../../../pic32mx/lib/size\libsupc++.a(eh_catch.o)
 .data          0x00000000        0x0 c:/users/nukem419/appdata/local/arduino15/packages/chipkit/tools/pic32-tools/1.42-pic32gcc/bin/bin/../../lib/gcc/pic32mx/4.8.3/../../../../pic32mx/lib/size\libsupc++.a(eh_catch.o)
 .bss           0x00000000        0x0 c:/users/nukem419/appdata/local/arduino15/packages/chipkit/tools/pic32-tools/1.42-pic32gcc/bin/bin/../../lib/gcc/pic32mx/4.8.3/../../../../pic32mx/lib/size\libsupc++.a(eh_catch.o)
 .reginfo       0x00000000       0x18 c:/users/nukem419/appdata/local/arduino15/packages/chipkit/tools/pic32-tools/1.42-pic32gcc/bin/bin/../../lib/gcc/pic32mx/4.8.3/../../../../pic32mx/lib/size\libsupc++.a(eh_catch.o)
 .text.__cxa_get_exception_ptr
                0x00000000        0x8 c:/users/nukem419/appdata/local/arduino15/packages/chipkit/tools/pic32-tools/1.42-pic32gcc/bin/bin/../../lib/gcc/pic32mx/4.8.3/../../../../pic32mx/lib/size\libsupc++.a(eh_catch.o)
 .text.__cxa_end_catch
                0x00000000       0xb8 c:/users/nukem419/appdata/local/arduino15/packages/chipkit/tools/pic32-tools/1.42-pic32gcc/bin/bin/../../lib/gcc/pic32mx/4.8.3/../../../../pic32mx/lib/size\libsupc++.a(eh_catch.o)
 .text._ZSt18uncaught_exceptionv
                0x00000000       0x24 c:/users/nukem419/appdata/local/arduino15/packages/chipkit/tools/pic32-tools/1.42-pic32gcc/bin/bin/../../lib/gcc/pic32mx/4.8.3/../../../../pic32mx/lib/size\libsupc++.a(eh_catch.o)
 .rodata._ZN10__cxxabiv1L29__gxx_primary_exception_classE.__gxx_primary_exception_class
                0x00000000        0x8 c:/users/nukem419/appdata/local/arduino15/packages/chipkit/tools/pic32-tools/1.42-pic32gcc/bin/bin/../../lib/gcc/pic32mx/4.8.3/../../../../pic32mx/lib/size\libsupc++.a(eh_catch.o)
 .rodata._ZN10__cxxabiv1L31__gxx_dependent_exception_classE.__gxx_dependent_exception_class
                0x00000000        0x8 c:/users/nukem419/appdata/local/arduino15/packages/chipkit/tools/pic32-tools/1.42-pic32gcc/bin/bin/../../lib/gcc/pic32mx/4.8.3/../../../../pic32mx/lib/size\libsupc++.a(eh_catch.o)
 .text          0x00000000        0x0 c:/users/nukem419/appdata/local/arduino15/packages/chipkit/tools/pic32-tools/1.42-pic32gcc/bin/bin/../../lib/gcc/pic32mx/4.8.3/../../../../pic32mx/lib/size\libsupc++.a(eh_globals.o)
 .data          0x00000000        0x0 c:/users/nukem419/appdata/local/arduino15/packages/chipkit/tools/pic32-tools/1.42-pic32gcc/bin/bin/../../lib/gcc/pic32mx/4.8.3/../../../../pic32mx/lib/size\libsupc++.a(eh_globals.o)
 .bss           0x00000000        0x0 c:/users/nukem419/appdata/local/arduino15/packages/chipkit/tools/pic32-tools/1.42-pic32gcc/bin/bin/../../lib/gcc/pic32mx/4.8.3/../../../../pic32mx/lib/size\libsupc++.a(eh_globals.o)
 .reginfo       0x00000000       0x18 c:/users/nukem419/appdata/local/arduino15/packages/chipkit/tools/pic32-tools/1.42-pic32gcc/bin/bin/../../lib/gcc/pic32mx/4.8.3/../../../../pic32mx/lib/size\libsupc++.a(eh_globals.o)
 .text.__cxa_get_globals_fast
                0x00000000        0xc c:/users/nukem419/appdata/local/arduino15/packages/chipkit/tools/pic32-tools/1.42-pic32gcc/bin/bin/../../lib/gcc/pic32mx/4.8.3/../../../../pic32mx/lib/size\libsupc++.a(eh_globals.o)
 .rodata._ZN10__cxxabiv1L29__gxx_primary_exception_classE.__gxx_primary_exception_class
                0x00000000        0x8 c:/users/nukem419/appdata/local/arduino15/packages/chipkit/tools/pic32-tools/1.42-pic32gcc/bin/bin/../../lib/gcc/pic32mx/4.8.3/../../../../pic32mx/lib/size\libsupc++.a(eh_globals.o)
 .rodata._ZN10__cxxabiv1L31__gxx_dependent_exception_classE.__gxx_dependent_exception_class
                0x00000000        0x8 c:/users/nukem419/appdata/local/arduino15/packages/chipkit/tools/pic32-tools/1.42-pic32gcc/bin/bin/../../lib/gcc/pic32mx/4.8.3/../../../../pic32mx/lib/size\libsupc++.a(eh_globals.o)
 .text          0x00000000        0x0 c:/users/nukem419/appdata/local/arduino15/packages/chipkit/tools/pic32-tools/1.42-pic32gcc/bin/bin/../../lib/gcc/pic32mx/4.8.3/../../../../pic32mx/lib/size\libsupc++.a(eh_term_handler.o)
 .data          0x00000000        0x0 c:/users/nukem419/appdata/local/arduino15/packages/chipkit/tools/pic32-tools/1.42-pic32gcc/bin/bin/../../lib/gcc/pic32mx/4.8.3/../../../../pic32mx/lib/size\libsupc++.a(eh_term_handler.o)
 .bss           0x00000000        0x0 c:/users/nukem419/appdata/local/arduino15/packages/chipkit/tools/pic32-tools/1.42-pic32gcc/bin/bin/../../lib/gcc/pic32mx/4.8.3/../../../../pic32mx/lib/size\libsupc++.a(eh_term_handler.o)
 .reginfo       0x00000000       0x18 c:/users/nukem419/appdata/local/arduino15/packages/chipkit/tools/pic32-tools/1.42-pic32gcc/bin/bin/../../lib/gcc/pic32mx/4.8.3/../../../../pic32mx/lib/size\libsupc++.a(eh_term_handler.o)
 .rodata._ZN10__cxxabiv1L29__gxx_primary_exception_classE.__gxx_primary_exception_class
                0x00000000        0x8 c:/users/nukem419/appdata/local/arduino15/packages/chipkit/tools/pic32-tools/1.42-pic32gcc/bin/bin/../../lib/gcc/pic32mx/4.8.3/../../../../pic32mx/lib/size\libsupc++.a(eh_term_handler.o)
 .rodata._ZN10__cxxabiv1L31__gxx_dependent_exception_classE.__gxx_dependent_exception_class
                0x00000000        0x8 c:/users/nukem419/appdata/local/arduino15/packages/chipkit/tools/pic32-tools/1.42-pic32gcc/bin/bin/../../lib/gcc/pic32mx/4.8.3/../../../../pic32mx/lib/size\libsupc++.a(eh_term_handler.o)
 .text          0x00000000        0x0 c:/users/nukem419/appdata/local/arduino15/packages/chipkit/tools/pic32-tools/1.42-pic32gcc/bin/bin/../../lib/gcc/pic32mx/4.8.3/../../../../pic32mx/lib/size\libsupc++.a(new_handler.o)
 .data          0x00000000        0x0 c:/users/nukem419/appdata/local/arduino15/packages/chipkit/tools/pic32-tools/1.42-pic32gcc/bin/bin/../../lib/gcc/pic32mx/4.8.3/../../../../pic32mx/lib/size\libsupc++.a(new_handler.o)
 .bss           0x00000000        0x0 c:/users/nukem419/appdata/local/arduino15/packages/chipkit/tools/pic32-tools/1.42-pic32gcc/bin/bin/../../lib/gcc/pic32mx/4.8.3/../../../../pic32mx/lib/size\libsupc++.a(new_handler.o)
 .reginfo       0x00000000       0x18 c:/users/nukem419/appdata/local/arduino15/packages/chipkit/tools/pic32-tools/1.42-pic32gcc/bin/bin/../../lib/gcc/pic32mx/4.8.3/../../../../pic32mx/lib/size\libsupc++.a(new_handler.o)
 .rodata._ZSt7nothrow.nothrow
                0x00000000        0x4 c:/users/nukem419/appdata/local/arduino15/packages/chipkit/tools/pic32-tools/1.42-pic32gcc/bin/bin/../../lib/gcc/pic32mx/4.8.3/../../../../pic32mx/lib/size\libsupc++.a(new_handler.o)
 .text._ZSt15set_new_handlerPFvvE
                0x00000000       0x10 c:/users/nukem419/appdata/local/arduino15/packages/chipkit/tools/pic32-tools/1.42-pic32gcc/bin/bin/../../lib/gcc/pic32mx/4.8.3/../../../../pic32mx/lib/size\libsupc++.a(new_handler.o)
 .text          0x00000000        0x0 c:/users/nukem419/appdata/local/arduino15/packages/chipkit/tools/pic32-tools/1.42-pic32gcc/bin/bin/../../lib/gcc/pic32mx/4.8.3/../../../../pic32mx/lib/size\libm.a(lib_a-s_fpclassify.o)
 .data          0x00000000        0x0 c:/users/nukem419/appdata/local/arduino15/packages/chipkit/tools/pic32-tools/1.42-pic32gcc/bin/bin/../../lib/gcc/pic32mx/4.8.3/../../../../pic32mx/lib/size\libm.a(lib_a-s_fpclassify.o)
 .bss           0x00000000        0x0 c:/users/nukem419/appdata/local/arduino15/packages/chipkit/tools/pic32-tools/1.42-pic32gcc/bin/bin/../../lib/gcc/pic32mx/4.8.3/../../../../pic32mx/lib/size\libm.a(lib_a-s_fpclassify.o)
 .reginfo       0x00000000       0x18 c:/users/nukem419/appdata/local/arduino15/packages/chipkit/tools/pic32-tools/1.42-pic32gcc/bin/bin/../../lib/gcc/pic32mx/4.8.3/../../../../pic32mx/lib/size\libm.a(lib_a-s_fpclassify.o)
 .text          0x00000000        0x0 c:/users/nukem419/appdata/local/arduino15/packages/chipkit/tools/pic32-tools/1.42-pic32gcc/bin/bin/../../lib/gcc/pic32mx/4.8.3/../../../../pic32mx/lib/size\libm.a(lib_a-s_modf.o)
 .data          0x00000000        0x0 c:/users/nukem419/appdata/local/arduino15/packages/chipkit/tools/pic32-tools/1.42-pic32gcc/bin/bin/../../lib/gcc/pic32mx/4.8.3/../../../../pic32mx/lib/size\libm.a(lib_a-s_modf.o)
 .bss           0x00000000        0x0 c:/users/nukem419/appdata/local/arduino15/packages/chipkit/tools/pic32-tools/1.42-pic32gcc/bin/bin/../../lib/gcc/pic32mx/4.8.3/../../../../pic32mx/lib/size\libm.a(lib_a-s_modf.o)
 .reginfo       0x00000000       0x18 c:/users/nukem419/appdata/local/arduino15/packages/chipkit/tools/pic32-tools/1.42-pic32gcc/bin/bin/../../lib/gcc/pic32mx/4.8.3/../../../../pic32mx/lib/size\libm.a(lib_a-s_modf.o)
 .rodata.one.one
                0x00000000        0x8 c:/users/nukem419/appdata/local/arduino15/packages/chipkit/tools/pic32-tools/1.42-pic32gcc/bin/bin/../../lib/gcc/pic32mx/4.8.3/../../../../pic32mx/lib/size\libm.a(lib_a-s_modf.o)
 .text.modf     0x00000000       0xcc c:/users/nukem419/appdata/local/arduino15/packages/chipkit/tools/pic32-tools/1.42-pic32gcc/bin/bin/../../lib/gcc/pic32mx/4.8.3/../../../../pic32mx/lib/size\libm.a(lib_a-s_modf.o)
 .text          0x00000000        0x0 c:/users/nukem419/appdata/local/arduino15/packages/chipkit/tools/pic32-tools/1.42-pic32gcc/bin/bin/../../lib/gcc/pic32mx/4.8.3/../../../../pic32mx/lib/size\libm.a(lib_a-w_fmod.o)
 .data          0x00000000        0x0 c:/users/nukem419/appdata/local/arduino15/packages/chipkit/tools/pic32-tools/1.42-pic32gcc/bin/bin/../../lib/gcc/pic32mx/4.8.3/../../../../pic32mx/lib/size\libm.a(lib_a-w_fmod.o)
 .bss           0x00000000        0x0 c:/users/nukem419/appdata/local/arduino15/packages/chipkit/tools/pic32-tools/1.42-pic32gcc/bin/bin/../../lib/gcc/pic32mx/4.8.3/../../../../pic32mx/lib/size\libm.a(lib_a-w_fmod.o)
 .reginfo       0x00000000       0x18 c:/users/nukem419/appdata/local/arduino15/packages/chipkit/tools/pic32-tools/1.42-pic32gcc/bin/bin/../../lib/gcc/pic32mx/4.8.3/../../../../pic32mx/lib/size\libm.a(lib_a-w_fmod.o)
 .text          0x00000000        0x0 c:/users/nukem419/appdata/local/arduino15/packages/chipkit/tools/pic32-tools/1.42-pic32gcc/bin/bin/../../lib/gcc/pic32mx/4.8.3/../../../../pic32mx/lib/size\libm.a(lib_a-w_pow.o)
 .data          0x00000000        0x0 c:/users/nukem419/appdata/local/arduino15/packages/chipkit/tools/pic32-tools/1.42-pic32gcc/bin/bin/../../lib/gcc/pic32mx/4.8.3/../../../../pic32mx/lib/size\libm.a(lib_a-w_pow.o)
 .bss           0x00000000        0x0 c:/users/nukem419/appdata/local/arduino15/packages/chipkit/tools/pic32-tools/1.42-pic32gcc/bin/bin/../../lib/gcc/pic32mx/4.8.3/../../../../pic32mx/lib/size\libm.a(lib_a-w_pow.o)
 .reginfo       0x00000000       0x18 c:/users/nukem419/appdata/local/arduino15/packages/chipkit/tools/pic32-tools/1.42-pic32gcc/bin/bin/../../lib/gcc/pic32mx/4.8.3/../../../../pic32mx/lib/size\libm.a(lib_a-w_pow.o)
 .text          0x00000000        0x0 c:/users/nukem419/appdata/local/arduino15/packages/chipkit/tools/pic32-tools/1.42-pic32gcc/bin/bin/../../lib/gcc/pic32mx/4.8.3/../../../../pic32mx/lib/size\libm.a(lib_a-e_fmod.o)
 .data          0x00000000        0x0 c:/users/nukem419/appdata/local/arduino15/packages/chipkit/tools/pic32-tools/1.42-pic32gcc/bin/bin/../../lib/gcc/pic32mx/4.8.3/../../../../pic32mx/lib/size\libm.a(lib_a-e_fmod.o)
 .bss           0x00000000        0x0 c:/users/nukem419/appdata/local/arduino15/packages/chipkit/tools/pic32-tools/1.42-pic32gcc/bin/bin/../../lib/gcc/pic32mx/4.8.3/../../../../pic32mx/lib/size\libm.a(lib_a-e_fmod.o)
 .reginfo       0x00000000       0x18 c:/users/nukem419/appdata/local/arduino15/packages/chipkit/tools/pic32-tools/1.42-pic32gcc/bin/bin/../../lib/gcc/pic32mx/4.8.3/../../../../pic32mx/lib/size\libm.a(lib_a-e_fmod.o)
 .rodata.one.one
                0x00000000        0x8 c:/users/nukem419/appdata/local/arduino15/packages/chipkit/tools/pic32-tools/1.42-pic32gcc/bin/bin/../../lib/gcc/pic32mx/4.8.3/../../../../pic32mx/lib/size\libm.a(lib_a-e_fmod.o)
 .text          0x00000000        0x0 c:/users/nukem419/appdata/local/arduino15/packages/chipkit/tools/pic32-tools/1.42-pic32gcc/bin/bin/../../lib/gcc/pic32mx/4.8.3/../../../../pic32mx/lib/size\libm.a(lib_a-e_pow.o)
 .data          0x00000000        0x0 c:/users/nukem419/appdata/local/arduino15/packages/chipkit/tools/pic32-tools/1.42-pic32gcc/bin/bin/../../lib/gcc/pic32mx/4.8.3/../../../../pic32mx/lib/size\libm.a(lib_a-e_pow.o)
 .bss           0x00000000        0x0 c:/users/nukem419/appdata/local/arduino15/packages/chipkit/tools/pic32-tools/1.42-pic32gcc/bin/bin/../../lib/gcc/pic32mx/4.8.3/../../../../pic32mx/lib/size\libm.a(lib_a-e_pow.o)
 .reginfo       0x00000000       0x18 c:/users/nukem419/appdata/local/arduino15/packages/chipkit/tools/pic32-tools/1.42-pic32gcc/bin/bin/../../lib/gcc/pic32mx/4.8.3/../../../../pic32mx/lib/size\libm.a(lib_a-e_pow.o)
 .rodata.zero.zero
                0x00000000        0x8 c:/users/nukem419/appdata/local/arduino15/packages/chipkit/tools/pic32-tools/1.42-pic32gcc/bin/bin/../../lib/gcc/pic32mx/4.8.3/../../../../pic32mx/lib/size\libm.a(lib_a-e_pow.o)
 .rodata.one.one
                0x00000000        0x8 c:/users/nukem419/appdata/local/arduino15/packages/chipkit/tools/pic32-tools/1.42-pic32gcc/bin/bin/../../lib/gcc/pic32mx/4.8.3/../../../../pic32mx/lib/size\libm.a(lib_a-e_pow.o)
 .rodata.two.two
                0x00000000        0x8 c:/users/nukem419/appdata/local/arduino15/packages/chipkit/tools/pic32-tools/1.42-pic32gcc/bin/bin/../../lib/gcc/pic32mx/4.8.3/../../../../pic32mx/lib/size\libm.a(lib_a-e_pow.o)
 .rodata.two53.two53
                0x00000000        0x8 c:/users/nukem419/appdata/local/arduino15/packages/chipkit/tools/pic32-tools/1.42-pic32gcc/bin/bin/../../lib/gcc/pic32mx/4.8.3/../../../../pic32mx/lib/size\libm.a(lib_a-e_pow.o)
 .rodata.huge.huge
                0x00000000        0x8 c:/users/nukem419/appdata/local/arduino15/packages/chipkit/tools/pic32-tools/1.42-pic32gcc/bin/bin/../../lib/gcc/pic32mx/4.8.3/../../../../pic32mx/lib/size\libm.a(lib_a-e_pow.o)
 .rodata.tiny.tiny
                0x00000000        0x8 c:/users/nukem419/appdata/local/arduino15/packages/chipkit/tools/pic32-tools/1.42-pic32gcc/bin/bin/../../lib/gcc/pic32mx/4.8.3/../../../../pic32mx/lib/size\libm.a(lib_a-e_pow.o)
 .rodata.L1.L1  0x00000000        0x8 c:/users/nukem419/appdata/local/arduino15/packages/chipkit/tools/pic32-tools/1.42-pic32gcc/bin/bin/../../lib/gcc/pic32mx/4.8.3/../../../../pic32mx/lib/size\libm.a(lib_a-e_pow.o)
 .rodata.L2.L2  0x00000000        0x8 c:/users/nukem419/appdata/local/arduino15/packages/chipkit/tools/pic32-tools/1.42-pic32gcc/bin/bin/../../lib/gcc/pic32mx/4.8.3/../../../../pic32mx/lib/size\libm.a(lib_a-e_pow.o)
 .rodata.L3.L3  0x00000000        0x8 c:/users/nukem419/appdata/local/arduino15/packages/chipkit/tools/pic32-tools/1.42-pic32gcc/bin/bin/../../lib/gcc/pic32mx/4.8.3/../../../../pic32mx/lib/size\libm.a(lib_a-e_pow.o)
 .rodata.L4.L4  0x00000000        0x8 c:/users/nukem419/appdata/local/arduino15/packages/chipkit/tools/pic32-tools/1.42-pic32gcc/bin/bin/../../lib/gcc/pic32mx/4.8.3/../../../../pic32mx/lib/size\libm.a(lib_a-e_pow.o)
 .rodata.L5.L5  0x00000000        0x8 c:/users/nukem419/appdata/local/arduino15/packages/chipkit/tools/pic32-tools/1.42-pic32gcc/bin/bin/../../lib/gcc/pic32mx/4.8.3/../../../../pic32mx/lib/size\libm.a(lib_a-e_pow.o)
 .rodata.L6.L6  0x00000000        0x8 c:/users/nukem419/appdata/local/arduino15/packages/chipkit/tools/pic32-tools/1.42-pic32gcc/bin/bin/../../lib/gcc/pic32mx/4.8.3/../../../../pic32mx/lib/size\libm.a(lib_a-e_pow.o)
 .rodata.P1.P1  0x00000000        0x8 c:/users/nukem419/appdata/local/arduino15/packages/chipkit/tools/pic32-tools/1.42-pic32gcc/bin/bin/../../lib/gcc/pic32mx/4.8.3/../../../../pic32mx/lib/size\libm.a(lib_a-e_pow.o)
 .rodata.P2.P2  0x00000000        0x8 c:/users/nukem419/appdata/local/arduino15/packages/chipkit/tools/pic32-tools/1.42-pic32gcc/bin/bin/../../lib/gcc/pic32mx/4.8.3/../../../../pic32mx/lib/size\libm.a(lib_a-e_pow.o)
 .rodata.P3.P3  0x00000000        0x8 c:/users/nukem419/appdata/local/arduino15/packages/chipkit/tools/pic32-tools/1.42-pic32gcc/bin/bin/../../lib/gcc/pic32mx/4.8.3/../../../../pic32mx/lib/size\libm.a(lib_a-e_pow.o)
 .rodata.P4.P4  0x00000000        0x8 c:/users/nukem419/appdata/local/arduino15/packages/chipkit/tools/pic32-tools/1.42-pic32gcc/bin/bin/../../lib/gcc/pic32mx/4.8.3/../../../../pic32mx/lib/size\libm.a(lib_a-e_pow.o)
 .rodata.P5.P5  0x00000000        0x8 c:/users/nukem419/appdata/local/arduino15/packages/chipkit/tools/pic32-tools/1.42-pic32gcc/bin/bin/../../lib/gcc/pic32mx/4.8.3/../../../../pic32mx/lib/size\libm.a(lib_a-e_pow.o)
 .rodata.lg2.lg2
                0x00000000        0x8 c:/users/nukem419/appdata/local/arduino15/packages/chipkit/tools/pic32-tools/1.42-pic32gcc/bin/bin/../../lib/gcc/pic32mx/4.8.3/../../../../pic32mx/lib/size\libm.a(lib_a-e_pow.o)
 .rodata.lg2_h.lg2_h
                0x00000000        0x8 c:/users/nukem419/appdata/local/arduino15/packages/chipkit/tools/pic32-tools/1.42-pic32gcc/bin/bin/../../lib/gcc/pic32mx/4.8.3/../../../../pic32mx/lib/size\libm.a(lib_a-e_pow.o)
 .rodata.lg2_l.lg2_l
                0x00000000        0x8 c:/users/nukem419/appdata/local/arduino15/packages/chipkit/tools/pic32-tools/1.42-pic32gcc/bin/bin/../../lib/gcc/pic32mx/4.8.3/../../../../pic32mx/lib/size\libm.a(lib_a-e_pow.o)
 .rodata.ovt.ovt
                0x00000000        0x8 c:/users/nukem419/appdata/local/arduino15/packages/chipkit/tools/pic32-tools/1.42-pic32gcc/bin/bin/../../lib/gcc/pic32mx/4.8.3/../../../../pic32mx/lib/size\libm.a(lib_a-e_pow.o)
 .rodata.cp.cp  0x00000000        0x8 c:/users/nukem419/appdata/local/arduino15/packages/chipkit/tools/pic32-tools/1.42-pic32gcc/bin/bin/../../lib/gcc/pic32mx/4.8.3/../../../../pic32mx/lib/size\libm.a(lib_a-e_pow.o)
 .rodata.cp_h.cp_h
                0x00000000        0x8 c:/users/nukem419/appdata/local/arduino15/packages/chipkit/tools/pic32-tools/1.42-pic32gcc/bin/bin/../../lib/gcc/pic32mx/4.8.3/../../../../pic32mx/lib/size\libm.a(lib_a-e_pow.o)
 .rodata.cp_l.cp_l
                0x00000000        0x8 c:/users/nukem419/appdata/local/arduino15/packages/chipkit/tools/pic32-tools/1.42-pic32gcc/bin/bin/../../lib/gcc/pic32mx/4.8.3/../../../../pic32mx/lib/size\libm.a(lib_a-e_pow.o)
 .rodata.ivln2.ivln2
                0x00000000        0x8 c:/users/nukem419/appdata/local/arduino15/packages/chipkit/tools/pic32-tools/1.42-pic32gcc/bin/bin/../../lib/gcc/pic32mx/4.8.3/../../../../pic32mx/lib/size\libm.a(lib_a-e_pow.o)
 .rodata.ivln2_h.ivln2_h
                0x00000000        0x8 c:/users/nukem419/appdata/local/arduino15/packages/chipkit/tools/pic32-tools/1.42-pic32gcc/bin/bin/../../lib/gcc/pic32mx/4.8.3/../../../../pic32mx/lib/size\libm.a(lib_a-e_pow.o)
 .rodata.ivln2_l.ivln2_l
                0x00000000        0x8 c:/users/nukem419/appdata/local/arduino15/packages/chipkit/tools/pic32-tools/1.42-pic32gcc/bin/bin/../../lib/gcc/pic32mx/4.8.3/../../../../pic32mx/lib/size\libm.a(lib_a-e_pow.o)
 .text          0x00000000        0x0 c:/users/nukem419/appdata/local/arduino15/packages/chipkit/tools/pic32-tools/1.42-pic32gcc/bin/bin/../../lib/gcc/pic32mx/4.8.3/../../../../pic32mx/lib/size\libm.a(lib_a-e_sqrt.o)
 .data          0x00000000        0x0 c:/users/nukem419/appdata/local/arduino15/packages/chipkit/tools/pic32-tools/1.42-pic32gcc/bin/bin/../../lib/gcc/pic32mx/4.8.3/../../../../pic32mx/lib/size\libm.a(lib_a-e_sqrt.o)
 .bss           0x00000000        0x0 c:/users/nukem419/appdata/local/arduino15/packages/chipkit/tools/pic32-tools/1.42-pic32gcc/bin/bin/../../lib/gcc/pic32mx/4.8.3/../../../../pic32mx/lib/size\libm.a(lib_a-e_sqrt.o)
 .reginfo       0x00000000       0x18 c:/users/nukem419/appdata/local/arduino15/packages/chipkit/tools/pic32-tools/1.42-pic32gcc/bin/bin/../../lib/gcc/pic32mx/4.8.3/../../../../pic32mx/lib/size\libm.a(lib_a-e_sqrt.o)
 .rodata.one.one
                0x00000000        0x8 c:/users/nukem419/appdata/local/arduino15/packages/chipkit/tools/pic32-tools/1.42-pic32gcc/bin/bin/../../lib/gcc/pic32mx/4.8.3/../../../../pic32mx/lib/size\libm.a(lib_a-e_sqrt.o)
 .rodata.tiny.tiny
                0x00000000        0x8 c:/users/nukem419/appdata/local/arduino15/packages/chipkit/tools/pic32-tools/1.42-pic32gcc/bin/bin/../../lib/gcc/pic32mx/4.8.3/../../../../pic32mx/lib/size\libm.a(lib_a-e_sqrt.o)
 .text          0x00000000        0x0 c:/users/nukem419/appdata/local/arduino15/packages/chipkit/tools/pic32-tools/1.42-pic32gcc/bin/bin/../../lib/gcc/pic32mx/4.8.3/../../../../pic32mx/lib/size\libm.a(lib_a-s_fabs.o)
 .data          0x00000000        0x0 c:/users/nukem419/appdata/local/arduino15/packages/chipkit/tools/pic32-tools/1.42-pic32gcc/bin/bin/../../lib/gcc/pic32mx/4.8.3/../../../../pic32mx/lib/size\libm.a(lib_a-s_fabs.o)
 .bss           0x00000000        0x0 c:/users/nukem419/appdata/local/arduino15/packages/chipkit/tools/pic32-tools/1.42-pic32gcc/bin/bin/../../lib/gcc/pic32mx/4.8.3/../../../../pic32mx/lib/size\libm.a(lib_a-s_fabs.o)
 .reginfo       0x00000000       0x18 c:/users/nukem419/appdata/local/arduino15/packages/chipkit/tools/pic32-tools/1.42-pic32gcc/bin/bin/../../lib/gcc/pic32mx/4.8.3/../../../../pic32mx/lib/size\libm.a(lib_a-s_fabs.o)
 .text          0x00000000        0x0 c:/users/nukem419/appdata/local/arduino15/packages/chipkit/tools/pic32-tools/1.42-pic32gcc/bin/bin/../../lib/gcc/pic32mx/4.8.3/../../../../pic32mx/lib/size\libm.a(lib_a-s_finite.o)
 .data          0x00000000        0x0 c:/users/nukem419/appdata/local/arduino15/packages/chipkit/tools/pic32-tools/1.42-pic32gcc/bin/bin/../../lib/gcc/pic32mx/4.8.3/../../../../pic32mx/lib/size\libm.a(lib_a-s_finite.o)
 .bss           0x00000000        0x0 c:/users/nukem419/appdata/local/arduino15/packages/chipkit/tools/pic32-tools/1.42-pic32gcc/bin/bin/../../lib/gcc/pic32mx/4.8.3/../../../../pic32mx/lib/size\libm.a(lib_a-s_finite.o)
 .reginfo       0x00000000       0x18 c:/users/nukem419/appdata/local/arduino15/packages/chipkit/tools/pic32-tools/1.42-pic32gcc/bin/bin/../../lib/gcc/pic32mx/4.8.3/../../../../pic32mx/lib/size\libm.a(lib_a-s_finite.o)
 .text          0x00000000        0x0 c:/users/nukem419/appdata/local/arduino15/packages/chipkit/tools/pic32-tools/1.42-pic32gcc/bin/bin/../../lib/gcc/pic32mx/4.8.3/../../../../pic32mx/lib/size\libm.a(lib_a-s_lib_ver.o)
 .data          0x00000000        0x0 c:/users/nukem419/appdata/local/arduino15/packages/chipkit/tools/pic32-tools/1.42-pic32gcc/bin/bin/../../lib/gcc/pic32mx/4.8.3/../../../../pic32mx/lib/size\libm.a(lib_a-s_lib_ver.o)
 .bss           0x00000000        0x0 c:/users/nukem419/appdata/local/arduino15/packages/chipkit/tools/pic32-tools/1.42-pic32gcc/bin/bin/../../lib/gcc/pic32mx/4.8.3/../../../../pic32mx/lib/size\libm.a(lib_a-s_lib_ver.o)
 .reginfo       0x00000000       0x18 c:/users/nukem419/appdata/local/arduino15/packages/chipkit/tools/pic32-tools/1.42-pic32gcc/bin/bin/../../lib/gcc/pic32mx/4.8.3/../../../../pic32mx/lib/size\libm.a(lib_a-s_lib_ver.o)
 .text          0x00000000        0x0 c:/users/nukem419/appdata/local/arduino15/packages/chipkit/tools/pic32-tools/1.42-pic32gcc/bin/bin/../../lib/gcc/pic32mx/4.8.3/../../../../pic32mx/lib/size\libm.a(lib_a-s_matherr.o)
 .data          0x00000000        0x0 c:/users/nukem419/appdata/local/arduino15/packages/chipkit/tools/pic32-tools/1.42-pic32gcc/bin/bin/../../lib/gcc/pic32mx/4.8.3/../../../../pic32mx/lib/size\libm.a(lib_a-s_matherr.o)
 .bss           0x00000000        0x0 c:/users/nukem419/appdata/local/arduino15/packages/chipkit/tools/pic32-tools/1.42-pic32gcc/bin/bin/../../lib/gcc/pic32mx/4.8.3/../../../../pic32mx/lib/size\libm.a(lib_a-s_matherr.o)
 .reginfo       0x00000000       0x18 c:/users/nukem419/appdata/local/arduino15/packages/chipkit/tools/pic32-tools/1.42-pic32gcc/bin/bin/../../lib/gcc/pic32mx/4.8.3/../../../../pic32mx/lib/size\libm.a(lib_a-s_matherr.o)
 .text          0x00000000        0x0 c:/users/nukem419/appdata/local/arduino15/packages/chipkit/tools/pic32-tools/1.42-pic32gcc/bin/bin/../../lib/gcc/pic32mx/4.8.3/../../../../pic32mx/lib/size\libm.a(lib_a-s_nan.o)
 .data          0x00000000        0x0 c:/users/nukem419/appdata/local/arduino15/packages/chipkit/tools/pic32-tools/1.42-pic32gcc/bin/bin/../../lib/gcc/pic32mx/4.8.3/../../../../pic32mx/lib/size\libm.a(lib_a-s_nan.o)
 .bss           0x00000000        0x0 c:/users/nukem419/appdata/local/arduino15/packages/chipkit/tools/pic32-tools/1.42-pic32gcc/bin/bin/../../lib/gcc/pic32mx/4.8.3/../../../../pic32mx/lib/size\libm.a(lib_a-s_nan.o)
 .reginfo       0x00000000       0x18 c:/users/nukem419/appdata/local/arduino15/packages/chipkit/tools/pic32-tools/1.42-pic32gcc/bin/bin/../../lib/gcc/pic32mx/4.8.3/../../../../pic32mx/lib/size\libm.a(lib_a-s_nan.o)
 .text          0x00000000        0x0 c:/users/nukem419/appdata/local/arduino15/packages/chipkit/tools/pic32-tools/1.42-pic32gcc/bin/bin/../../lib/gcc/pic32mx/4.8.3/../../../../pic32mx/lib/size\libm.a(lib_a-s_rint.o)
 .data          0x00000000        0x0 c:/users/nukem419/appdata/local/arduino15/packages/chipkit/tools/pic32-tools/1.42-pic32gcc/bin/bin/../../lib/gcc/pic32mx/4.8.3/../../../../pic32mx/lib/size\libm.a(lib_a-s_rint.o)
 .bss           0x00000000        0x0 c:/users/nukem419/appdata/local/arduino15/packages/chipkit/tools/pic32-tools/1.42-pic32gcc/bin/bin/../../lib/gcc/pic32mx/4.8.3/../../../../pic32mx/lib/size\libm.a(lib_a-s_rint.o)
 .reginfo       0x00000000       0x18 c:/users/nukem419/appdata/local/arduino15/packages/chipkit/tools/pic32-tools/1.42-pic32gcc/bin/bin/../../lib/gcc/pic32mx/4.8.3/../../../../pic32mx/lib/size\libm.a(lib_a-s_rint.o)
 .text          0x00000000        0x0 c:/users/nukem419/appdata/local/arduino15/packages/chipkit/tools/pic32-tools/1.42-pic32gcc/bin/bin/../../lib/gcc/pic32mx/4.8.3/../../../../pic32mx/lib/size\libm.a(lib_a-s_scalbn.o)
 .data          0x00000000        0x0 c:/users/nukem419/appdata/local/arduino15/packages/chipkit/tools/pic32-tools/1.42-pic32gcc/bin/bin/../../lib/gcc/pic32mx/4.8.3/../../../../pic32mx/lib/size\libm.a(lib_a-s_scalbn.o)
 .bss           0x00000000        0x0 c:/users/nukem419/appdata/local/arduino15/packages/chipkit/tools/pic32-tools/1.42-pic32gcc/bin/bin/../../lib/gcc/pic32mx/4.8.3/../../../../pic32mx/lib/size\libm.a(lib_a-s_scalbn.o)
 .reginfo       0x00000000       0x18 c:/users/nukem419/appdata/local/arduino15/packages/chipkit/tools/pic32-tools/1.42-pic32gcc/bin/bin/../../lib/gcc/pic32mx/4.8.3/../../../../pic32mx/lib/size\libm.a(lib_a-s_scalbn.o)
 .rodata.two54.two54
                0x00000000        0x8 c:/users/nukem419/appdata/local/arduino15/packages/chipkit/tools/pic32-tools/1.42-pic32gcc/bin/bin/../../lib/gcc/pic32mx/4.8.3/../../../../pic32mx/lib/size\libm.a(lib_a-s_scalbn.o)
 .rodata.twom54.twom54
                0x00000000        0x8 c:/users/nukem419/appdata/local/arduino15/packages/chipkit/tools/pic32-tools/1.42-pic32gcc/bin/bin/../../lib/gcc/pic32mx/4.8.3/../../../../pic32mx/lib/size\libm.a(lib_a-s_scalbn.o)
 .rodata.huge.huge
                0x00000000        0x8 c:/users/nukem419/appdata/local/arduino15/packages/chipkit/tools/pic32-tools/1.42-pic32gcc/bin/bin/../../lib/gcc/pic32mx/4.8.3/../../../../pic32mx/lib/size\libm.a(lib_a-s_scalbn.o)
 .rodata.tiny.tiny
                0x00000000        0x8 c:/users/nukem419/appdata/local/arduino15/packages/chipkit/tools/pic32-tools/1.42-pic32gcc/bin/bin/../../lib/gcc/pic32mx/4.8.3/../../../../pic32mx/lib/size\libm.a(lib_a-s_scalbn.o)
 .text          0x00000000        0x0 c:/users/nukem419/appdata/local/arduino15/packages/chipkit/tools/pic32-tools/1.42-pic32gcc/bin/bin/../../lib/gcc/pic32mx/4.8.3/../../../../pic32mx/lib/size\libm.a(lib_a-s_copysign.o)
 .data          0x00000000        0x0 c:/users/nukem419/appdata/local/arduino15/packages/chipkit/tools/pic32-tools/1.42-pic32gcc/bin/bin/../../lib/gcc/pic32mx/4.8.3/../../../../pic32mx/lib/size\libm.a(lib_a-s_copysign.o)
 .bss           0x00000000        0x0 c:/users/nukem419/appdata/local/arduino15/packages/chipkit/tools/pic32-tools/1.42-pic32gcc/bin/bin/../../lib/gcc/pic32mx/4.8.3/../../../../pic32mx/lib/size\libm.a(lib_a-s_copysign.o)
 .reginfo       0x00000000       0x18 c:/users/nukem419/appdata/local/arduino15/packages/chipkit/tools/pic32-tools/1.42-pic32gcc/bin/bin/../../lib/gcc/pic32mx/4.8.3/../../../../pic32mx/lib/size\libm.a(lib_a-s_copysign.o)
 .text          0x00000000        0x0 c:/users/nukem419/appdata/local/arduino15/packages/chipkit/tools/pic32-tools/1.42-pic32gcc/bin/bin/../../lib/gcc/pic32mx/4.8.3/../../../../pic32mx/lib/./proc/32MX795F512H\processor.o
 .data          0x00000000        0x0 c:/users/nukem419/appdata/local/arduino15/packages/chipkit/tools/pic32-tools/1.42-pic32gcc/bin/bin/../../lib/gcc/pic32mx/4.8.3/../../../../pic32mx/lib/./proc/32MX795F512H\processor.o
 .bss           0x00000000        0x0 c:/users/nukem419/appdata/local/arduino15/packages/chipkit/tools/pic32-tools/1.42-pic32gcc/bin/bin/../../lib/gcc/pic32mx/4.8.3/../../../../pic32mx/lib/./proc/32MX795F512H\processor.o
 .reginfo       0x00000000       0x18 c:/users/nukem419/appdata/local/arduino15/packages/chipkit/tools/pic32-tools/1.42-pic32gcc/bin/bin/../../lib/gcc/pic32mx/4.8.3/../../../../pic32mx/lib/./proc/32MX795F512H\processor.o
 .data          0x00000000        0x4 c:/users/nukem419/appdata/local/arduino15/packages/chipkit/tools/pic32-tools/1.42-pic32gcc/bin/bin/../../lib/gcc/pic32mx/4.8.3/size\crtbegin.o
 .reginfo       0x00000000       0x18 c:/users/nukem419/appdata/local/arduino15/packages/chipkit/tools/pic32-tools/1.42-pic32gcc/bin/bin/../../lib/gcc/pic32mx/4.8.3/size\crtbegin.o
 .data          0x00000000        0x4 c:/users/nukem419/appdata/local/arduino15/packages/chipkit/tools/pic32-tools/1.42-pic32gcc/bin/bin/../../lib/gcc/pic32mx/4.8.3/size\crtend.o
 .bss           0x00000000        0x0 c:/users/nukem419/appdata/local/arduino15/packages/chipkit/tools/pic32-tools/1.42-pic32gcc/bin/bin/../../lib/gcc/pic32mx/4.8.3/size\crtend.o
 .reginfo       0x00000000       0x18 c:/users/nukem419/appdata/local/arduino15/packages/chipkit/tools/pic32-tools/1.42-pic32gcc/bin/bin/../../lib/gcc/pic32mx/4.8.3/size\crtend.o
 .eh_frame      0x00000000        0x4 c:/users/nukem419/appdata/local/arduino15/packages/chipkit/tools/pic32-tools/1.42-pic32gcc/bin/bin/../../lib/gcc/pic32mx/4.8.3/size\crtend.o
 .jcr           0x00000000        0x4 c:/users/nukem419/appdata/local/arduino15/packages/chipkit/tools/pic32-tools/1.42-pic32gcc/bin/bin/../../lib/gcc/pic32mx/4.8.3/size\crtend.o
 .text          0x00000000        0x0 c:/users/nukem419/appdata/local/arduino15/packages/chipkit/tools/pic32-tools/1.42-pic32gcc/bin/bin/../../lib/gcc/pic32mx/4.8.3/size\crtn.o
 .data          0x00000000        0x0 c:/users/nukem419/appdata/local/arduino15/packages/chipkit/tools/pic32-tools/1.42-pic32gcc/bin/bin/../../lib/gcc/pic32mx/4.8.3/size\crtn.o
 .bss           0x00000000        0x0 c:/users/nukem419/appdata/local/arduino15/packages/chipkit/tools/pic32-tools/1.42-pic32gcc/bin/bin/../../lib/gcc/pic32mx/4.8.3/size\crtn.o
 .reginfo       0x00000000       0x18 c:/users/nukem419/appdata/local/arduino15/packages/chipkit/tools/pic32-tools/1.42-pic32gcc/bin/bin/../../lib/gcc/pic32mx/4.8.3/size\crtn.o
 .data          0x00000000        0x0 c:/users/nukem419/appdata/local/arduino15/packages/chipkit/tools/pic32-tools/1.42-pic32gcc/bin/bin/../../lib/gcc/pic32mx/4.8.3/size\libgcc.a(addsf3.o)
 .bss           0x00000000        0x0 c:/users/nukem419/appdata/local/arduino15/packages/chipkit/tools/pic32-tools/1.42-pic32gcc/bin/bin/../../lib/gcc/pic32mx/4.8.3/size\libgcc.a(addsf3.o)
 .reginfo       0x00000000       0x18 c:/users/nukem419/appdata/local/arduino15/packages/chipkit/tools/pic32-tools/1.42-pic32gcc/bin/bin/../../lib/gcc/pic32mx/4.8.3/size\libgcc.a(addsf3.o)
 .data          0x00000000        0x0 c:/users/nukem419/appdata/local/arduino15/packages/chipkit/tools/pic32-tools/1.42-pic32gcc/bin/bin/../../lib/gcc/pic32mx/4.8.3/size\libgcc.a(divsf3.o)
 .bss           0x00000000        0x0 c:/users/nukem419/appdata/local/arduino15/packages/chipkit/tools/pic32-tools/1.42-pic32gcc/bin/bin/../../lib/gcc/pic32mx/4.8.3/size\libgcc.a(divsf3.o)
 .reginfo       0x00000000       0x18 c:/users/nukem419/appdata/local/arduino15/packages/chipkit/tools/pic32-tools/1.42-pic32gcc/bin/bin/../../lib/gcc/pic32mx/4.8.3/size\libgcc.a(divsf3.o)
 .data          0x00000000        0x0 c:/users/nukem419/appdata/local/arduino15/packages/chipkit/tools/pic32-tools/1.42-pic32gcc/bin/bin/../../lib/gcc/pic32mx/4.8.3/size\libgcc.a(eqsf2.o)
 .bss           0x00000000        0x0 c:/users/nukem419/appdata/local/arduino15/packages/chipkit/tools/pic32-tools/1.42-pic32gcc/bin/bin/../../lib/gcc/pic32mx/4.8.3/size\libgcc.a(eqsf2.o)
 .reginfo       0x00000000       0x18 c:/users/nukem419/appdata/local/arduino15/packages/chipkit/tools/pic32-tools/1.42-pic32gcc/bin/bin/../../lib/gcc/pic32mx/4.8.3/size\libgcc.a(eqsf2.o)
 .data          0x00000000        0x0 c:/users/nukem419/appdata/local/arduino15/packages/chipkit/tools/pic32-tools/1.42-pic32gcc/bin/bin/../../lib/gcc/pic32mx/4.8.3/size\libgcc.a(gesf2.o)
 .bss           0x00000000        0x0 c:/users/nukem419/appdata/local/arduino15/packages/chipkit/tools/pic32-tools/1.42-pic32gcc/bin/bin/../../lib/gcc/pic32mx/4.8.3/size\libgcc.a(gesf2.o)
 .reginfo       0x00000000       0x18 c:/users/nukem419/appdata/local/arduino15/packages/chipkit/tools/pic32-tools/1.42-pic32gcc/bin/bin/../../lib/gcc/pic32mx/4.8.3/size\libgcc.a(gesf2.o)
 .data          0x00000000        0x0 c:/users/nukem419/appdata/local/arduino15/packages/chipkit/tools/pic32-tools/1.42-pic32gcc/bin/bin/../../lib/gcc/pic32mx/4.8.3/size\libgcc.a(mulsf3.o)
 .bss           0x00000000        0x0 c:/users/nukem419/appdata/local/arduino15/packages/chipkit/tools/pic32-tools/1.42-pic32gcc/bin/bin/../../lib/gcc/pic32mx/4.8.3/size\libgcc.a(mulsf3.o)
 .reginfo       0x00000000       0x18 c:/users/nukem419/appdata/local/arduino15/packages/chipkit/tools/pic32-tools/1.42-pic32gcc/bin/bin/../../lib/gcc/pic32mx/4.8.3/size\libgcc.a(mulsf3.o)
 .data          0x00000000        0x0 c:/users/nukem419/appdata/local/arduino15/packages/chipkit/tools/pic32-tools/1.42-pic32gcc/bin/bin/../../lib/gcc/pic32mx/4.8.3/size\libgcc.a(subsf3.o)
 .bss           0x00000000        0x0 c:/users/nukem419/appdata/local/arduino15/packages/chipkit/tools/pic32-tools/1.42-pic32gcc/bin/bin/../../lib/gcc/pic32mx/4.8.3/size\libgcc.a(subsf3.o)
 .reginfo       0x00000000       0x18 c:/users/nukem419/appdata/local/arduino15/packages/chipkit/tools/pic32-tools/1.42-pic32gcc/bin/bin/../../lib/gcc/pic32mx/4.8.3/size\libgcc.a(subsf3.o)
 .data          0x00000000        0x0 c:/users/nukem419/appdata/local/arduino15/packages/chipkit/tools/pic32-tools/1.42-pic32gcc/bin/bin/../../lib/gcc/pic32mx/4.8.3/size\libgcc.a(fixsfsi.o)
 .bss           0x00000000        0x0 c:/users/nukem419/appdata/local/arduino15/packages/chipkit/tools/pic32-tools/1.42-pic32gcc/bin/bin/../../lib/gcc/pic32mx/4.8.3/size\libgcc.a(fixsfsi.o)
 .reginfo       0x00000000       0x18 c:/users/nukem419/appdata/local/arduino15/packages/chipkit/tools/pic32-tools/1.42-pic32gcc/bin/bin/../../lib/gcc/pic32mx/4.8.3/size\libgcc.a(fixsfsi.o)
 .data          0x00000000        0x0 c:/users/nukem419/appdata/local/arduino15/packages/chipkit/tools/pic32-tools/1.42-pic32gcc/bin/bin/../../lib/gcc/pic32mx/4.8.3/size\libgcc.a(fixunssfsi.o)
 .bss           0x00000000        0x0 c:/users/nukem419/appdata/local/arduino15/packages/chipkit/tools/pic32-tools/1.42-pic32gcc/bin/bin/../../lib/gcc/pic32mx/4.8.3/size\libgcc.a(fixunssfsi.o)
 .reginfo       0x00000000       0x18 c:/users/nukem419/appdata/local/arduino15/packages/chipkit/tools/pic32-tools/1.42-pic32gcc/bin/bin/../../lib/gcc/pic32mx/4.8.3/size\libgcc.a(fixunssfsi.o)
 .data          0x00000000        0x0 c:/users/nukem419/appdata/local/arduino15/packages/chipkit/tools/pic32-tools/1.42-pic32gcc/bin/bin/../../lib/gcc/pic32mx/4.8.3/size\libgcc.a(floatsisf.o)
 .bss           0x00000000        0x0 c:/users/nukem419/appdata/local/arduino15/packages/chipkit/tools/pic32-tools/1.42-pic32gcc/bin/bin/../../lib/gcc/pic32mx/4.8.3/size\libgcc.a(floatsisf.o)
 .reginfo       0x00000000       0x18 c:/users/nukem419/appdata/local/arduino15/packages/chipkit/tools/pic32-tools/1.42-pic32gcc/bin/bin/../../lib/gcc/pic32mx/4.8.3/size\libgcc.a(floatsisf.o)
 .data          0x00000000        0x0 c:/users/nukem419/appdata/local/arduino15/packages/chipkit/tools/pic32-tools/1.42-pic32gcc/bin/bin/../../lib/gcc/pic32mx/4.8.3/size\libgcc.a(floatunsisf.o)
 .bss           0x00000000        0x0 c:/users/nukem419/appdata/local/arduino15/packages/chipkit/tools/pic32-tools/1.42-pic32gcc/bin/bin/../../lib/gcc/pic32mx/4.8.3/size\libgcc.a(floatunsisf.o)
 .reginfo       0x00000000       0x18 c:/users/nukem419/appdata/local/arduino15/packages/chipkit/tools/pic32-tools/1.42-pic32gcc/bin/bin/../../lib/gcc/pic32mx/4.8.3/size\libgcc.a(floatunsisf.o)
 .data          0x00000000        0x0 c:/users/nukem419/appdata/local/arduino15/packages/chipkit/tools/pic32-tools/1.42-pic32gcc/bin/bin/../../lib/gcc/pic32mx/4.8.3/size\libgcc.a(fixunssfdi.o)
 .bss           0x00000000        0x0 c:/users/nukem419/appdata/local/arduino15/packages/chipkit/tools/pic32-tools/1.42-pic32gcc/bin/bin/../../lib/gcc/pic32mx/4.8.3/size\libgcc.a(fixunssfdi.o)
 .reginfo       0x00000000       0x18 c:/users/nukem419/appdata/local/arduino15/packages/chipkit/tools/pic32-tools/1.42-pic32gcc/bin/bin/../../lib/gcc/pic32mx/4.8.3/size\libgcc.a(fixunssfdi.o)
 .data          0x00000000        0x0 c:/users/nukem419/appdata/local/arduino15/packages/chipkit/tools/pic32-tools/1.42-pic32gcc/bin/bin/../../lib/gcc/pic32mx/4.8.3/size\libgcc.a(adddf3.o)
 .bss           0x00000000        0x0 c:/users/nukem419/appdata/local/arduino15/packages/chipkit/tools/pic32-tools/1.42-pic32gcc/bin/bin/../../lib/gcc/pic32mx/4.8.3/size\libgcc.a(adddf3.o)
 .reginfo       0x00000000       0x18 c:/users/nukem419/appdata/local/arduino15/packages/chipkit/tools/pic32-tools/1.42-pic32gcc/bin/bin/../../lib/gcc/pic32mx/4.8.3/size\libgcc.a(adddf3.o)
 .data          0x00000000        0x0 c:/users/nukem419/appdata/local/arduino15/packages/chipkit/tools/pic32-tools/1.42-pic32gcc/bin/bin/../../lib/gcc/pic32mx/4.8.3/size\libgcc.a(divdf3.o)
 .bss           0x00000000        0x0 c:/users/nukem419/appdata/local/arduino15/packages/chipkit/tools/pic32-tools/1.42-pic32gcc/bin/bin/../../lib/gcc/pic32mx/4.8.3/size\libgcc.a(divdf3.o)
 .reginfo       0x00000000       0x18 c:/users/nukem419/appdata/local/arduino15/packages/chipkit/tools/pic32-tools/1.42-pic32gcc/bin/bin/../../lib/gcc/pic32mx/4.8.3/size\libgcc.a(divdf3.o)
 .data          0x00000000        0x0 c:/users/nukem419/appdata/local/arduino15/packages/chipkit/tools/pic32-tools/1.42-pic32gcc/bin/bin/../../lib/gcc/pic32mx/4.8.3/size\libgcc.a(eqdf2.o)
 .bss           0x00000000        0x0 c:/users/nukem419/appdata/local/arduino15/packages/chipkit/tools/pic32-tools/1.42-pic32gcc/bin/bin/../../lib/gcc/pic32mx/4.8.3/size\libgcc.a(eqdf2.o)
 .reginfo       0x00000000       0x18 c:/users/nukem419/appdata/local/arduino15/packages/chipkit/tools/pic32-tools/1.42-pic32gcc/bin/bin/../../lib/gcc/pic32mx/4.8.3/size\libgcc.a(eqdf2.o)
 .data          0x00000000        0x0 c:/users/nukem419/appdata/local/arduino15/packages/chipkit/tools/pic32-tools/1.42-pic32gcc/bin/bin/../../lib/gcc/pic32mx/4.8.3/size\libgcc.a(gedf2.o)
 .bss           0x00000000        0x0 c:/users/nukem419/appdata/local/arduino15/packages/chipkit/tools/pic32-tools/1.42-pic32gcc/bin/bin/../../lib/gcc/pic32mx/4.8.3/size\libgcc.a(gedf2.o)
 .reginfo       0x00000000       0x18 c:/users/nukem419/appdata/local/arduino15/packages/chipkit/tools/pic32-tools/1.42-pic32gcc/bin/bin/../../lib/gcc/pic32mx/4.8.3/size\libgcc.a(gedf2.o)
 .data          0x00000000        0x0 c:/users/nukem419/appdata/local/arduino15/packages/chipkit/tools/pic32-tools/1.42-pic32gcc/bin/bin/../../lib/gcc/pic32mx/4.8.3/size\libgcc.a(ledf2.o)
 .bss           0x00000000        0x0 c:/users/nukem419/appdata/local/arduino15/packages/chipkit/tools/pic32-tools/1.42-pic32gcc/bin/bin/../../lib/gcc/pic32mx/4.8.3/size\libgcc.a(ledf2.o)
 .reginfo       0x00000000       0x18 c:/users/nukem419/appdata/local/arduino15/packages/chipkit/tools/pic32-tools/1.42-pic32gcc/bin/bin/../../lib/gcc/pic32mx/4.8.3/size\libgcc.a(ledf2.o)
 .data          0x00000000        0x0 c:/users/nukem419/appdata/local/arduino15/packages/chipkit/tools/pic32-tools/1.42-pic32gcc/bin/bin/../../lib/gcc/pic32mx/4.8.3/size\libgcc.a(muldf3.o)
 .bss           0x00000000        0x0 c:/users/nukem419/appdata/local/arduino15/packages/chipkit/tools/pic32-tools/1.42-pic32gcc/bin/bin/../../lib/gcc/pic32mx/4.8.3/size\libgcc.a(muldf3.o)
 .reginfo       0x00000000       0x18 c:/users/nukem419/appdata/local/arduino15/packages/chipkit/tools/pic32-tools/1.42-pic32gcc/bin/bin/../../lib/gcc/pic32mx/4.8.3/size\libgcc.a(muldf3.o)
 .data          0x00000000        0x0 c:/users/nukem419/appdata/local/arduino15/packages/chipkit/tools/pic32-tools/1.42-pic32gcc/bin/bin/../../lib/gcc/pic32mx/4.8.3/size\libgcc.a(subdf3.o)
 .bss           0x00000000        0x0 c:/users/nukem419/appdata/local/arduino15/packages/chipkit/tools/pic32-tools/1.42-pic32gcc/bin/bin/../../lib/gcc/pic32mx/4.8.3/size\libgcc.a(subdf3.o)
 .reginfo       0x00000000       0x18 c:/users/nukem419/appdata/local/arduino15/packages/chipkit/tools/pic32-tools/1.42-pic32gcc/bin/bin/../../lib/gcc/pic32mx/4.8.3/size\libgcc.a(subdf3.o)
 .data          0x00000000        0x0 c:/users/nukem419/appdata/local/arduino15/packages/chipkit/tools/pic32-tools/1.42-pic32gcc/bin/bin/../../lib/gcc/pic32mx/4.8.3/size\libgcc.a(fixdfsi.o)
 .bss           0x00000000        0x0 c:/users/nukem419/appdata/local/arduino15/packages/chipkit/tools/pic32-tools/1.42-pic32gcc/bin/bin/../../lib/gcc/pic32mx/4.8.3/size\libgcc.a(fixdfsi.o)
 .reginfo       0x00000000       0x18 c:/users/nukem419/appdata/local/arduino15/packages/chipkit/tools/pic32-tools/1.42-pic32gcc/bin/bin/../../lib/gcc/pic32mx/4.8.3/size\libgcc.a(fixdfsi.o)
 .data          0x00000000        0x0 c:/users/nukem419/appdata/local/arduino15/packages/chipkit/tools/pic32-tools/1.42-pic32gcc/bin/bin/../../lib/gcc/pic32mx/4.8.3/size\libgcc.a(fixunsdfsi.o)
 .bss           0x00000000        0x0 c:/users/nukem419/appdata/local/arduino15/packages/chipkit/tools/pic32-tools/1.42-pic32gcc/bin/bin/../../lib/gcc/pic32mx/4.8.3/size\libgcc.a(fixunsdfsi.o)
 .reginfo       0x00000000       0x18 c:/users/nukem419/appdata/local/arduino15/packages/chipkit/tools/pic32-tools/1.42-pic32gcc/bin/bin/../../lib/gcc/pic32mx/4.8.3/size\libgcc.a(fixunsdfsi.o)
 .data          0x00000000        0x0 c:/users/nukem419/appdata/local/arduino15/packages/chipkit/tools/pic32-tools/1.42-pic32gcc/bin/bin/../../lib/gcc/pic32mx/4.8.3/size\libgcc.a(floatsidf.o)
 .bss           0x00000000        0x0 c:/users/nukem419/appdata/local/arduino15/packages/chipkit/tools/pic32-tools/1.42-pic32gcc/bin/bin/../../lib/gcc/pic32mx/4.8.3/size\libgcc.a(floatsidf.o)
 .reginfo       0x00000000       0x18 c:/users/nukem419/appdata/local/arduino15/packages/chipkit/tools/pic32-tools/1.42-pic32gcc/bin/bin/../../lib/gcc/pic32mx/4.8.3/size\libgcc.a(floatsidf.o)
 .data          0x00000000        0x0 c:/users/nukem419/appdata/local/arduino15/packages/chipkit/tools/pic32-tools/1.42-pic32gcc/bin/bin/../../lib/gcc/pic32mx/4.8.3/size\libgcc.a(floatunsidf.o)
 .bss           0x00000000        0x0 c:/users/nukem419/appdata/local/arduino15/packages/chipkit/tools/pic32-tools/1.42-pic32gcc/bin/bin/../../lib/gcc/pic32mx/4.8.3/size\libgcc.a(floatunsidf.o)
 .reginfo       0x00000000       0x18 c:/users/nukem419/appdata/local/arduino15/packages/chipkit/tools/pic32-tools/1.42-pic32gcc/bin/bin/../../lib/gcc/pic32mx/4.8.3/size\libgcc.a(floatunsidf.o)
 .data          0x00000000        0x0 c:/users/nukem419/appdata/local/arduino15/packages/chipkit/tools/pic32-tools/1.42-pic32gcc/bin/bin/../../lib/gcc/pic32mx/4.8.3/size\libgcc.a(extendsfdf2.o)
 .bss           0x00000000        0x0 c:/users/nukem419/appdata/local/arduino15/packages/chipkit/tools/pic32-tools/1.42-pic32gcc/bin/bin/../../lib/gcc/pic32mx/4.8.3/size\libgcc.a(extendsfdf2.o)
 .reginfo       0x00000000       0x18 c:/users/nukem419/appdata/local/arduino15/packages/chipkit/tools/pic32-tools/1.42-pic32gcc/bin/bin/../../lib/gcc/pic32mx/4.8.3/size\libgcc.a(extendsfdf2.o)
 .data          0x00000000        0x0 c:/users/nukem419/appdata/local/arduino15/packages/chipkit/tools/pic32-tools/1.42-pic32gcc/bin/bin/../../lib/gcc/pic32mx/4.8.3/size\libgcc.a(truncdfsf2.o)
 .bss           0x00000000        0x0 c:/users/nukem419/appdata/local/arduino15/packages/chipkit/tools/pic32-tools/1.42-pic32gcc/bin/bin/../../lib/gcc/pic32mx/4.8.3/size\libgcc.a(truncdfsf2.o)
 .reginfo       0x00000000       0x18 c:/users/nukem419/appdata/local/arduino15/packages/chipkit/tools/pic32-tools/1.42-pic32gcc/bin/bin/../../lib/gcc/pic32mx/4.8.3/size\libgcc.a(truncdfsf2.o)
 .data          0x00000000        0x0 c:/users/nukem419/appdata/local/arduino15/packages/chipkit/tools/pic32-tools/1.42-pic32gcc/bin/bin/../../lib/gcc/pic32mx/4.8.3/size\libgcc.a(unwind-sjlj.o)
 .reginfo       0x00000000       0x18 c:/users/nukem419/appdata/local/arduino15/packages/chipkit/tools/pic32-tools/1.42-pic32gcc/bin/bin/../../lib/gcc/pic32mx/4.8.3/size\libgcc.a(unwind-sjlj.o)
 .data          0x00000000        0x0 c:/users/nukem419/appdata/local/arduino15/packages/chipkit/tools/pic32-tools/1.42-pic32gcc/bin/bin/../../lib/gcc/pic32mx/4.8.3/size\libgcc.a(_ashldi3.o)
 .bss           0x00000000        0x0 c:/users/nukem419/appdata/local/arduino15/packages/chipkit/tools/pic32-tools/1.42-pic32gcc/bin/bin/../../lib/gcc/pic32mx/4.8.3/size\libgcc.a(_ashldi3.o)
 .reginfo       0x00000000       0x18 c:/users/nukem419/appdata/local/arduino15/packages/chipkit/tools/pic32-tools/1.42-pic32gcc/bin/bin/../../lib/gcc/pic32mx/4.8.3/size\libgcc.a(_ashldi3.o)
 .text          0x00000000        0x0 c:/users/nukem419/appdata/local/arduino15/packages/chipkit/tools/pic32-tools/1.42-pic32gcc/bin/bin/../../lib/gcc/pic32mx/4.8.3/../../../../pic32mx/lib/size\libc.a(lib_a-abort.o)
 .data          0x00000000        0x0 c:/users/nukem419/appdata/local/arduino15/packages/chipkit/tools/pic32-tools/1.42-pic32gcc/bin/bin/../../lib/gcc/pic32mx/4.8.3/../../../../pic32mx/lib/size\libc.a(lib_a-abort.o)
 .bss           0x00000000        0x0 c:/users/nukem419/appdata/local/arduino15/packages/chipkit/tools/pic32-tools/1.42-pic32gcc/bin/bin/../../lib/gcc/pic32mx/4.8.3/../../../../pic32mx/lib/size\libc.a(lib_a-abort.o)
 .reginfo       0x00000000       0x18 c:/users/nukem419/appdata/local/arduino15/packages/chipkit/tools/pic32-tools/1.42-pic32gcc/bin/bin/../../lib/gcc/pic32mx/4.8.3/../../../../pic32mx/lib/size\libc.a(lib_a-abort.o)
 .text          0x00000000        0x0 c:/users/nukem419/appdata/local/arduino15/packages/chipkit/tools/pic32-tools/1.42-pic32gcc/bin/bin/../../lib/gcc/pic32mx/4.8.3/../../../../pic32mx/lib/size\libc.a(lib_a-atof.o)
 .data          0x00000000        0x0 c:/users/nukem419/appdata/local/arduino15/packages/chipkit/tools/pic32-tools/1.42-pic32gcc/bin/bin/../../lib/gcc/pic32mx/4.8.3/../../../../pic32mx/lib/size\libc.a(lib_a-atof.o)
 .bss           0x00000000        0x0 c:/users/nukem419/appdata/local/arduino15/packages/chipkit/tools/pic32-tools/1.42-pic32gcc/bin/bin/../../lib/gcc/pic32mx/4.8.3/../../../../pic32mx/lib/size\libc.a(lib_a-atof.o)
 .reginfo       0x00000000       0x18 c:/users/nukem419/appdata/local/arduino15/packages/chipkit/tools/pic32-tools/1.42-pic32gcc/bin/bin/../../lib/gcc/pic32mx/4.8.3/../../../../pic32mx/lib/size\libc.a(lib_a-atof.o)
 .text          0x00000000        0x0 c:/users/nukem419/appdata/local/arduino15/packages/chipkit/tools/pic32-tools/1.42-pic32gcc/bin/bin/../../lib/gcc/pic32mx/4.8.3/../../../../pic32mx/lib/size\libc.a(lib_a-atol.o)
 .data          0x00000000        0x0 c:/users/nukem419/appdata/local/arduino15/packages/chipkit/tools/pic32-tools/1.42-pic32gcc/bin/bin/../../lib/gcc/pic32mx/4.8.3/../../../../pic32mx/lib/size\libc.a(lib_a-atol.o)
 .bss           0x00000000        0x0 c:/users/nukem419/appdata/local/arduino15/packages/chipkit/tools/pic32-tools/1.42-pic32gcc/bin/bin/../../lib/gcc/pic32mx/4.8.3/../../../../pic32mx/lib/size\libc.a(lib_a-atol.o)
 .reginfo       0x00000000       0x18 c:/users/nukem419/appdata/local/arduino15/packages/chipkit/tools/pic32-tools/1.42-pic32gcc/bin/bin/../../lib/gcc/pic32mx/4.8.3/../../../../pic32mx/lib/size\libc.a(lib_a-atol.o)
 .text._atol_r  0x00000000       0x20 c:/users/nukem419/appdata/local/arduino15/packages/chipkit/tools/pic32-tools/1.42-pic32gcc/bin/bin/../../lib/gcc/pic32mx/4.8.3/../../../../pic32mx/lib/size\libc.a(lib_a-atol.o)
 .text          0x00000000        0x0 c:/users/nukem419/appdata/local/arduino15/packages/chipkit/tools/pic32-tools/1.42-pic32gcc/bin/bin/../../lib/gcc/pic32mx/4.8.3/../../../../pic32mx/lib/size\libc.a(lib_a-errno.o)
 .data          0x00000000        0x0 c:/users/nukem419/appdata/local/arduino15/packages/chipkit/tools/pic32-tools/1.42-pic32gcc/bin/bin/../../lib/gcc/pic32mx/4.8.3/../../../../pic32mx/lib/size\libc.a(lib_a-errno.o)
 .bss           0x00000000        0x0 c:/users/nukem419/appdata/local/arduino15/packages/chipkit/tools/pic32-tools/1.42-pic32gcc/bin/bin/../../lib/gcc/pic32mx/4.8.3/../../../../pic32mx/lib/size\libc.a(lib_a-errno.o)
 .reginfo       0x00000000       0x18 c:/users/nukem419/appdata/local/arduino15/packages/chipkit/tools/pic32-tools/1.42-pic32gcc/bin/bin/../../lib/gcc/pic32mx/4.8.3/../../../../pic32mx/lib/size\libc.a(lib_a-errno.o)
 .text          0x00000000        0x0 c:/users/nukem419/appdata/local/arduino15/packages/chipkit/tools/pic32-tools/1.42-pic32gcc/bin/bin/../../lib/gcc/pic32mx/4.8.3/../../../../pic32mx/lib/size\libc.a(lib_a-impure.o)
 .data          0x00000000        0x0 c:/users/nukem419/appdata/local/arduino15/packages/chipkit/tools/pic32-tools/1.42-pic32gcc/bin/bin/../../lib/gcc/pic32mx/4.8.3/../../../../pic32mx/lib/size\libc.a(lib_a-impure.o)
 .bss           0x00000000        0x0 c:/users/nukem419/appdata/local/arduino15/packages/chipkit/tools/pic32-tools/1.42-pic32gcc/bin/bin/../../lib/gcc/pic32mx/4.8.3/../../../../pic32mx/lib/size\libc.a(lib_a-impure.o)
 .reginfo       0x00000000       0x18 c:/users/nukem419/appdata/local/arduino15/packages/chipkit/tools/pic32-tools/1.42-pic32gcc/bin/bin/../../lib/gcc/pic32mx/4.8.3/../../../../pic32mx/lib/size\libc.a(lib_a-impure.o)
 .libc.data._global_impure_ptr
                0x00000000        0x4 c:/users/nukem419/appdata/local/arduino15/packages/chipkit/tools/pic32-tools/1.42-pic32gcc/bin/bin/../../lib/gcc/pic32mx/4.8.3/../../../../pic32mx/lib/size\libc.a(lib_a-impure.o)
 .text          0x00000000        0x0 c:/users/nukem419/appdata/local/arduino15/packages/chipkit/tools/pic32-tools/1.42-pic32gcc/bin/bin/../../lib/gcc/pic32mx/4.8.3/../../../../pic32mx/lib/size\libc.a(lib_a-isspace.o)
 .data          0x00000000        0x0 c:/users/nukem419/appdata/local/arduino15/packages/chipkit/tools/pic32-tools/1.42-pic32gcc/bin/bin/../../lib/gcc/pic32mx/4.8.3/../../../../pic32mx/lib/size\libc.a(lib_a-isspace.o)
 .bss           0x00000000        0x0 c:/users/nukem419/appdata/local/arduino15/packages/chipkit/tools/pic32-tools/1.42-pic32gcc/bin/bin/../../lib/gcc/pic32mx/4.8.3/../../../../pic32mx/lib/size\libc.a(lib_a-isspace.o)
 .reginfo       0x00000000       0x18 c:/users/nukem419/appdata/local/arduino15/packages/chipkit/tools/pic32-tools/1.42-pic32gcc/bin/bin/../../lib/gcc/pic32mx/4.8.3/../../../../pic32mx/lib/size\libc.a(lib_a-isspace.o)
 .text.isspace  0x00000000       0x18 c:/users/nukem419/appdata/local/arduino15/packages/chipkit/tools/pic32-tools/1.42-pic32gcc/bin/bin/../../lib/gcc/pic32mx/4.8.3/../../../../pic32mx/lib/size\libc.a(lib_a-isspace.o)
 .text          0x00000000        0x0 c:/users/nukem419/appdata/local/arduino15/packages/chipkit/tools/pic32-tools/1.42-pic32gcc/bin/bin/../../lib/gcc/pic32mx/4.8.3/../../../../pic32mx/lib/size\libc.a(lib_a-malloc.o)
 .data          0x00000000        0x0 c:/users/nukem419/appdata/local/arduino15/packages/chipkit/tools/pic32-tools/1.42-pic32gcc/bin/bin/../../lib/gcc/pic32mx/4.8.3/../../../../pic32mx/lib/size\libc.a(lib_a-malloc.o)
 .bss           0x00000000        0x0 c:/users/nukem419/appdata/local/arduino15/packages/chipkit/tools/pic32-tools/1.42-pic32gcc/bin/bin/../../lib/gcc/pic32mx/4.8.3/../../../../pic32mx/lib/size\libc.a(lib_a-malloc.o)
 .reginfo       0x00000000       0x18 c:/users/nukem419/appdata/local/arduino15/packages/chipkit/tools/pic32-tools/1.42-pic32gcc/bin/bin/../../lib/gcc/pic32mx/4.8.3/../../../../pic32mx/lib/size\libc.a(lib_a-malloc.o)
 .text          0x00000000        0x0 c:/users/nukem419/appdata/local/arduino15/packages/chipkit/tools/pic32-tools/1.42-pic32gcc/bin/bin/../../lib/gcc/pic32mx/4.8.3/../../../../pic32mx/lib/size\libc.a(lib_a-mallocr.o)
 .data          0x00000000        0x0 c:/users/nukem419/appdata/local/arduino15/packages/chipkit/tools/pic32-tools/1.42-pic32gcc/bin/bin/../../lib/gcc/pic32mx/4.8.3/../../../../pic32mx/lib/size\libc.a(lib_a-mallocr.o)
 .bss           0x00000000        0x0 c:/users/nukem419/appdata/local/arduino15/packages/chipkit/tools/pic32-tools/1.42-pic32gcc/bin/bin/../../lib/gcc/pic32mx/4.8.3/../../../../pic32mx/lib/size\libc.a(lib_a-mallocr.o)
 .reginfo       0x00000000       0x18 c:/users/nukem419/appdata/local/arduino15/packages/chipkit/tools/pic32-tools/1.42-pic32gcc/bin/bin/../../lib/gcc/pic32mx/4.8.3/../../../../pic32mx/lib/size\libc.a(lib_a-mallocr.o)
 .text          0x00000000        0x0 c:/users/nukem419/appdata/local/arduino15/packages/chipkit/tools/pic32-tools/1.42-pic32gcc/bin/bin/../../lib/gcc/pic32mx/4.8.3/../../../../pic32mx/lib/size\libc.a(lib_a-memcmp.o)
 .data          0x00000000        0x0 c:/users/nukem419/appdata/local/arduino15/packages/chipkit/tools/pic32-tools/1.42-pic32gcc/bin/bin/../../lib/gcc/pic32mx/4.8.3/../../../../pic32mx/lib/size\libc.a(lib_a-memcmp.o)
 .bss           0x00000000        0x0 c:/users/nukem419/appdata/local/arduino15/packages/chipkit/tools/pic32-tools/1.42-pic32gcc/bin/bin/../../lib/gcc/pic32mx/4.8.3/../../../../pic32mx/lib/size\libc.a(lib_a-memcmp.o)
 .reginfo       0x00000000       0x18 c:/users/nukem419/appdata/local/arduino15/packages/chipkit/tools/pic32-tools/1.42-pic32gcc/bin/bin/../../lib/gcc/pic32mx/4.8.3/../../../../pic32mx/lib/size\libc.a(lib_a-memcmp.o)
 .text          0x00000000        0x0 c:/users/nukem419/appdata/local/arduino15/packages/chipkit/tools/pic32-tools/1.42-pic32gcc/bin/bin/../../lib/gcc/pic32mx/4.8.3/../../../../pic32mx/lib/size\libc.a(lib_a-memcpy.o)
 .data          0x00000000        0x0 c:/users/nukem419/appdata/local/arduino15/packages/chipkit/tools/pic32-tools/1.42-pic32gcc/bin/bin/../../lib/gcc/pic32mx/4.8.3/../../../../pic32mx/lib/size\libc.a(lib_a-memcpy.o)
 .bss           0x00000000        0x0 c:/users/nukem419/appdata/local/arduino15/packages/chipkit/tools/pic32-tools/1.42-pic32gcc/bin/bin/../../lib/gcc/pic32mx/4.8.3/../../../../pic32mx/lib/size\libc.a(lib_a-memcpy.o)
 .reginfo       0x00000000       0x18 c:/users/nukem419/appdata/local/arduino15/packages/chipkit/tools/pic32-tools/1.42-pic32gcc/bin/bin/../../lib/gcc/pic32mx/4.8.3/../../../../pic32mx/lib/size\libc.a(lib_a-memcpy.o)
 .text          0x00000000        0x0 c:/users/nukem419/appdata/local/arduino15/packages/chipkit/tools/pic32-tools/1.42-pic32gcc/bin/bin/../../lib/gcc/pic32mx/4.8.3/../../../../pic32mx/lib/size\libc.a(lib_a-memmove.o)
 .data          0x00000000        0x0 c:/users/nukem419/appdata/local/arduino15/packages/chipkit/tools/pic32-tools/1.42-pic32gcc/bin/bin/../../lib/gcc/pic32mx/4.8.3/../../../../pic32mx/lib/size\libc.a(lib_a-memmove.o)
 .bss           0x00000000        0x0 c:/users/nukem419/appdata/local/arduino15/packages/chipkit/tools/pic32-tools/1.42-pic32gcc/bin/bin/../../lib/gcc/pic32mx/4.8.3/../../../../pic32mx/lib/size\libc.a(lib_a-memmove.o)
 .reginfo       0x00000000       0x18 c:/users/nukem419/appdata/local/arduino15/packages/chipkit/tools/pic32-tools/1.42-pic32gcc/bin/bin/../../lib/gcc/pic32mx/4.8.3/../../../../pic32mx/lib/size\libc.a(lib_a-memmove.o)
 .text          0x00000000        0x0 c:/users/nukem419/appdata/local/arduino15/packages/chipkit/tools/pic32-tools/1.42-pic32gcc/bin/bin/../../lib/gcc/pic32mx/4.8.3/../../../../pic32mx/lib/size\libc.a(lib_a-memset.o)
 .data          0x00000000        0x0 c:/users/nukem419/appdata/local/arduino15/packages/chipkit/tools/pic32-tools/1.42-pic32gcc/bin/bin/../../lib/gcc/pic32mx/4.8.3/../../../../pic32mx/lib/size\libc.a(lib_a-memset.o)
 .bss           0x00000000        0x0 c:/users/nukem419/appdata/local/arduino15/packages/chipkit/tools/pic32-tools/1.42-pic32gcc/bin/bin/../../lib/gcc/pic32mx/4.8.3/../../../../pic32mx/lib/size\libc.a(lib_a-memset.o)
 .reginfo       0x00000000       0x18 c:/users/nukem419/appdata/local/arduino15/packages/chipkit/tools/pic32-tools/1.42-pic32gcc/bin/bin/../../lib/gcc/pic32mx/4.8.3/../../../../pic32mx/lib/size\libc.a(lib_a-memset.o)
 .text          0x00000000        0x0 c:/users/nukem419/appdata/local/arduino15/packages/chipkit/tools/pic32-tools/1.42-pic32gcc/bin/bin/../../lib/gcc/pic32mx/4.8.3/../../../../pic32mx/lib/size\libc.a(lib_a-mlock.o)
 .data          0x00000000        0x0 c:/users/nukem419/appdata/local/arduino15/packages/chipkit/tools/pic32-tools/1.42-pic32gcc/bin/bin/../../lib/gcc/pic32mx/4.8.3/../../../../pic32mx/lib/size\libc.a(lib_a-mlock.o)
 .bss           0x00000000        0x0 c:/users/nukem419/appdata/local/arduino15/packages/chipkit/tools/pic32-tools/1.42-pic32gcc/bin/bin/../../lib/gcc/pic32mx/4.8.3/../../../../pic32mx/lib/size\libc.a(lib_a-mlock.o)
 .reginfo       0x00000000       0x18 c:/users/nukem419/appdata/local/arduino15/packages/chipkit/tools/pic32-tools/1.42-pic32gcc/bin/bin/../../lib/gcc/pic32mx/4.8.3/../../../../pic32mx/lib/size\libc.a(lib_a-mlock.o)
 .text          0x00000000        0x0 c:/users/nukem419/appdata/local/arduino15/packages/chipkit/tools/pic32-tools/1.42-pic32gcc/bin/bin/../../lib/gcc/pic32mx/4.8.3/../../../../pic32mx/lib/size\libc.a(lib_a-realloc.o)
 .data          0x00000000        0x0 c:/users/nukem419/appdata/local/arduino15/packages/chipkit/tools/pic32-tools/1.42-pic32gcc/bin/bin/../../lib/gcc/pic32mx/4.8.3/../../../../pic32mx/lib/size\libc.a(lib_a-realloc.o)
 .bss           0x00000000        0x0 c:/users/nukem419/appdata/local/arduino15/packages/chipkit/tools/pic32-tools/1.42-pic32gcc/bin/bin/../../lib/gcc/pic32mx/4.8.3/../../../../pic32mx/lib/size\libc.a(lib_a-realloc.o)
 .reginfo       0x00000000       0x18 c:/users/nukem419/appdata/local/arduino15/packages/chipkit/tools/pic32-tools/1.42-pic32gcc/bin/bin/../../lib/gcc/pic32mx/4.8.3/../../../../pic32mx/lib/size\libc.a(lib_a-realloc.o)
 .text          0x00000000        0x0 c:/users/nukem419/appdata/local/arduino15/packages/chipkit/tools/pic32-tools/1.42-pic32gcc/bin/bin/../../lib/gcc/pic32mx/4.8.3/../../../../pic32mx/lib/size\libc.a(lib_a-reallocr.o)
 .data          0x00000000        0x0 c:/users/nukem419/appdata/local/arduino15/packages/chipkit/tools/pic32-tools/1.42-pic32gcc/bin/bin/../../lib/gcc/pic32mx/4.8.3/../../../../pic32mx/lib/size\libc.a(lib_a-reallocr.o)
 .bss           0x00000000        0x0 c:/users/nukem419/appdata/local/arduino15/packages/chipkit/tools/pic32-tools/1.42-pic32gcc/bin/bin/../../lib/gcc/pic32mx/4.8.3/../../../../pic32mx/lib/size\libc.a(lib_a-reallocr.o)
 .reginfo       0x00000000       0x18 c:/users/nukem419/appdata/local/arduino15/packages/chipkit/tools/pic32-tools/1.42-pic32gcc/bin/bin/../../lib/gcc/pic32mx/4.8.3/../../../../pic32mx/lib/size\libc.a(lib_a-reallocr.o)
 .text          0x00000000        0x0 c:/users/nukem419/appdata/local/arduino15/packages/chipkit/tools/pic32-tools/1.42-pic32gcc/bin/bin/../../lib/gcc/pic32mx/4.8.3/../../../../pic32mx/lib/size\libc.a(lib_a-sbrkr.o)
 .data          0x00000000        0x0 c:/users/nukem419/appdata/local/arduino15/packages/chipkit/tools/pic32-tools/1.42-pic32gcc/bin/bin/../../lib/gcc/pic32mx/4.8.3/../../../../pic32mx/lib/size\libc.a(lib_a-sbrkr.o)
 .bss           0x00000000        0x0 c:/users/nukem419/appdata/local/arduino15/packages/chipkit/tools/pic32-tools/1.42-pic32gcc/bin/bin/../../lib/gcc/pic32mx/4.8.3/../../../../pic32mx/lib/size\libc.a(lib_a-sbrkr.o)
 .reginfo       0x00000000       0x18 c:/users/nukem419/appdata/local/arduino15/packages/chipkit/tools/pic32-tools/1.42-pic32gcc/bin/bin/../../lib/gcc/pic32mx/4.8.3/../../../../pic32mx/lib/size\libc.a(lib_a-sbrkr.o)
 .text          0x00000000        0x0 c:/users/nukem419/appdata/local/arduino15/packages/chipkit/tools/pic32-tools/1.42-pic32gcc/bin/bin/../../lib/gcc/pic32mx/4.8.3/../../../../pic32mx/lib/size\libc.a(lib_a-signal.o)
 .data          0x00000000        0x0 c:/users/nukem419/appdata/local/arduino15/packages/chipkit/tools/pic32-tools/1.42-pic32gcc/bin/bin/../../lib/gcc/pic32mx/4.8.3/../../../../pic32mx/lib/size\libc.a(lib_a-signal.o)
 .bss           0x00000000        0x0 c:/users/nukem419/appdata/local/arduino15/packages/chipkit/tools/pic32-tools/1.42-pic32gcc/bin/bin/../../lib/gcc/pic32mx/4.8.3/../../../../pic32mx/lib/size\libc.a(lib_a-signal.o)
 .reginfo       0x00000000       0x18 c:/users/nukem419/appdata/local/arduino15/packages/chipkit/tools/pic32-tools/1.42-pic32gcc/bin/bin/../../lib/gcc/pic32mx/4.8.3/../../../../pic32mx/lib/size\libc.a(lib_a-signal.o)
 .text._init_signal_r
                0x00000000       0x68 c:/users/nukem419/appdata/local/arduino15/packages/chipkit/tools/pic32-tools/1.42-pic32gcc/bin/bin/../../lib/gcc/pic32mx/4.8.3/../../../../pic32mx/lib/size\libc.a(lib_a-signal.o)
 .text._signal_r
                0x00000000       0x80 c:/users/nukem419/appdata/local/arduino15/packages/chipkit/tools/pic32-tools/1.42-pic32gcc/bin/bin/../../lib/gcc/pic32mx/4.8.3/../../../../pic32mx/lib/size\libc.a(lib_a-signal.o)
 .text.__sigtramp_r
                0x00000000       0xac c:/users/nukem419/appdata/local/arduino15/packages/chipkit/tools/pic32-tools/1.42-pic32gcc/bin/bin/../../lib/gcc/pic32mx/4.8.3/../../../../pic32mx/lib/size\libc.a(lib_a-signal.o)
 .text.signal   0x00000000       0x2c c:/users/nukem419/appdata/local/arduino15/packages/chipkit/tools/pic32-tools/1.42-pic32gcc/bin/bin/../../lib/gcc/pic32mx/4.8.3/../../../../pic32mx/lib/size\libc.a(lib_a-signal.o)
 .text._init_signal
                0x00000000       0x20 c:/users/nukem419/appdata/local/arduino15/packages/chipkit/tools/pic32-tools/1.42-pic32gcc/bin/bin/../../lib/gcc/pic32mx/4.8.3/../../../../pic32mx/lib/size\libc.a(lib_a-signal.o)
 .text.__sigtramp
                0x00000000       0x24 c:/users/nukem419/appdata/local/arduino15/packages/chipkit/tools/pic32-tools/1.42-pic32gcc/bin/bin/../../lib/gcc/pic32mx/4.8.3/../../../../pic32mx/lib/size\libc.a(lib_a-signal.o)
 .text          0x00000000        0x0 c:/users/nukem419/appdata/local/arduino15/packages/chipkit/tools/pic32-tools/1.42-pic32gcc/bin/bin/../../lib/gcc/pic32mx/4.8.3/../../../../pic32mx/lib/size\libc.a(lib_a-signalr.o)
 .data          0x00000000        0x0 c:/users/nukem419/appdata/local/arduino15/packages/chipkit/tools/pic32-tools/1.42-pic32gcc/bin/bin/../../lib/gcc/pic32mx/4.8.3/../../../../pic32mx/lib/size\libc.a(lib_a-signalr.o)
 .bss           0x00000000        0x0 c:/users/nukem419/appdata/local/arduino15/packages/chipkit/tools/pic32-tools/1.42-pic32gcc/bin/bin/../../lib/gcc/pic32mx/4.8.3/../../../../pic32mx/lib/size\libc.a(lib_a-signalr.o)
 .reginfo       0x00000000       0x18 c:/users/nukem419/appdata/local/arduino15/packages/chipkit/tools/pic32-tools/1.42-pic32gcc/bin/bin/../../lib/gcc/pic32mx/4.8.3/../../../../pic32mx/lib/size\libc.a(lib_a-signalr.o)
 .text          0x00000000        0x0 c:/users/nukem419/appdata/local/arduino15/packages/chipkit/tools/pic32-tools/1.42-pic32gcc/bin/bin/../../lib/gcc/pic32mx/4.8.3/../../../../pic32mx/lib/size\libc.a(lib_a-snprintf.o)
 .data          0x00000000        0x0 c:/users/nukem419/appdata/local/arduino15/packages/chipkit/tools/pic32-tools/1.42-pic32gcc/bin/bin/../../lib/gcc/pic32mx/4.8.3/../../../../pic32mx/lib/size\libc.a(lib_a-snprintf.o)
 .bss           0x00000000        0x0 c:/users/nukem419/appdata/local/arduino15/packages/chipkit/tools/pic32-tools/1.42-pic32gcc/bin/bin/../../lib/gcc/pic32mx/4.8.3/../../../../pic32mx/lib/size\libc.a(lib_a-snprintf.o)
 .reginfo       0x00000000       0x18 c:/users/nukem419/appdata/local/arduino15/packages/chipkit/tools/pic32-tools/1.42-pic32gcc/bin/bin/../../lib/gcc/pic32mx/4.8.3/../../../../pic32mx/lib/size\libc.a(lib_a-snprintf.o)
 .text._snprintf_r
                0x00000000       0x9c c:/users/nukem419/appdata/local/arduino15/packages/chipkit/tools/pic32-tools/1.42-pic32gcc/bin/bin/../../lib/gcc/pic32mx/4.8.3/../../../../pic32mx/lib/size\libc.a(lib_a-snprintf.o)
 .text.snprintf
                0x00000000       0xa4 c:/users/nukem419/appdata/local/arduino15/packages/chipkit/tools/pic32-tools/1.42-pic32gcc/bin/bin/../../lib/gcc/pic32mx/4.8.3/../../../../pic32mx/lib/size\libc.a(lib_a-snprintf.o)
 .text          0x00000000        0x0 c:/users/nukem419/appdata/local/arduino15/packages/chipkit/tools/pic32-tools/1.42-pic32gcc/bin/bin/../../lib/gcc/pic32mx/4.8.3/../../../../pic32mx/lib/size\libc.a(lib_a-strchr.o)
 .data          0x00000000        0x0 c:/users/nukem419/appdata/local/arduino15/packages/chipkit/tools/pic32-tools/1.42-pic32gcc/bin/bin/../../lib/gcc/pic32mx/4.8.3/../../../../pic32mx/lib/size\libc.a(lib_a-strchr.o)
 .bss           0x00000000        0x0 c:/users/nukem419/appdata/local/arduino15/packages/chipkit/tools/pic32-tools/1.42-pic32gcc/bin/bin/../../lib/gcc/pic32mx/4.8.3/../../../../pic32mx/lib/size\libc.a(lib_a-strchr.o)
 .reginfo       0x00000000       0x18 c:/users/nukem419/appdata/local/arduino15/packages/chipkit/tools/pic32-tools/1.42-pic32gcc/bin/bin/../../lib/gcc/pic32mx/4.8.3/../../../../pic32mx/lib/size\libc.a(lib_a-strchr.o)
 .text          0x00000000        0x0 c:/users/nukem419/appdata/local/arduino15/packages/chipkit/tools/pic32-tools/1.42-pic32gcc/bin/bin/../../lib/gcc/pic32mx/4.8.3/../../../../pic32mx/lib/size\libc.a(lib_a-strcmp.o)
 .data          0x00000000        0x0 c:/users/nukem419/appdata/local/arduino15/packages/chipkit/tools/pic32-tools/1.42-pic32gcc/bin/bin/../../lib/gcc/pic32mx/4.8.3/../../../../pic32mx/lib/size\libc.a(lib_a-strcmp.o)
 .bss           0x00000000        0x0 c:/users/nukem419/appdata/local/arduino15/packages/chipkit/tools/pic32-tools/1.42-pic32gcc/bin/bin/../../lib/gcc/pic32mx/4.8.3/../../../../pic32mx/lib/size\libc.a(lib_a-strcmp.o)
 .reginfo       0x00000000       0x18 c:/users/nukem419/appdata/local/arduino15/packages/chipkit/tools/pic32-tools/1.42-pic32gcc/bin/bin/../../lib/gcc/pic32mx/4.8.3/../../../../pic32mx/lib/size\libc.a(lib_a-strcmp.o)
 .text          0x00000000        0x0 c:/users/nukem419/appdata/local/arduino15/packages/chipkit/tools/pic32-tools/1.42-pic32gcc/bin/bin/../../lib/gcc/pic32mx/4.8.3/../../../../pic32mx/lib/size\libc.a(lib_a-strcpy.o)
 .data          0x00000000        0x0 c:/users/nukem419/appdata/local/arduino15/packages/chipkit/tools/pic32-tools/1.42-pic32gcc/bin/bin/../../lib/gcc/pic32mx/4.8.3/../../../../pic32mx/lib/size\libc.a(lib_a-strcpy.o)
 .bss           0x00000000        0x0 c:/users/nukem419/appdata/local/arduino15/packages/chipkit/tools/pic32-tools/1.42-pic32gcc/bin/bin/../../lib/gcc/pic32mx/4.8.3/../../../../pic32mx/lib/size\libc.a(lib_a-strcpy.o)
 .reginfo       0x00000000       0x18 c:/users/nukem419/appdata/local/arduino15/packages/chipkit/tools/pic32-tools/1.42-pic32gcc/bin/bin/../../lib/gcc/pic32mx/4.8.3/../../../../pic32mx/lib/size\libc.a(lib_a-strcpy.o)
 .data          0x00000000        0x0 c:/users/nukem419/appdata/local/arduino15/packages/chipkit/tools/pic32-tools/1.42-pic32gcc/bin/bin/../../lib/gcc/pic32mx/4.8.3/../../../../pic32mx/lib/size\libc.a(lib_a-strlen.o)
 .bss           0x00000000        0x0 c:/users/nukem419/appdata/local/arduino15/packages/chipkit/tools/pic32-tools/1.42-pic32gcc/bin/bin/../../lib/gcc/pic32mx/4.8.3/../../../../pic32mx/lib/size\libc.a(lib_a-strlen.o)
 .reginfo       0x00000000       0x18 c:/users/nukem419/appdata/local/arduino15/packages/chipkit/tools/pic32-tools/1.42-pic32gcc/bin/bin/../../lib/gcc/pic32mx/4.8.3/../../../../pic32mx/lib/size\libc.a(lib_a-strlen.o)
 .text          0x00000000        0x0 c:/users/nukem419/appdata/local/arduino15/packages/chipkit/tools/pic32-tools/1.42-pic32gcc/bin/bin/../../lib/gcc/pic32mx/4.8.3/../../../../pic32mx/lib/size\libc.a(lib_a-strncmp.o)
 .data          0x00000000        0x0 c:/users/nukem419/appdata/local/arduino15/packages/chipkit/tools/pic32-tools/1.42-pic32gcc/bin/bin/../../lib/gcc/pic32mx/4.8.3/../../../../pic32mx/lib/size\libc.a(lib_a-strncmp.o)
 .bss           0x00000000        0x0 c:/users/nukem419/appdata/local/arduino15/packages/chipkit/tools/pic32-tools/1.42-pic32gcc/bin/bin/../../lib/gcc/pic32mx/4.8.3/../../../../pic32mx/lib/size\libc.a(lib_a-strncmp.o)
 .reginfo       0x00000000       0x18 c:/users/nukem419/appdata/local/arduino15/packages/chipkit/tools/pic32-tools/1.42-pic32gcc/bin/bin/../../lib/gcc/pic32mx/4.8.3/../../../../pic32mx/lib/size\libc.a(lib_a-strncmp.o)
 .text          0x00000000        0x0 c:/users/nukem419/appdata/local/arduino15/packages/chipkit/tools/pic32-tools/1.42-pic32gcc/bin/bin/../../lib/gcc/pic32mx/4.8.3/../../../../pic32mx/lib/size\libc.a(lib_a-strncpy.o)
 .data          0x00000000        0x0 c:/users/nukem419/appdata/local/arduino15/packages/chipkit/tools/pic32-tools/1.42-pic32gcc/bin/bin/../../lib/gcc/pic32mx/4.8.3/../../../../pic32mx/lib/size\libc.a(lib_a-strncpy.o)
 .bss           0x00000000        0x0 c:/users/nukem419/appdata/local/arduino15/packages/chipkit/tools/pic32-tools/1.42-pic32gcc/bin/bin/../../lib/gcc/pic32mx/4.8.3/../../../../pic32mx/lib/size\libc.a(lib_a-strncpy.o)
 .reginfo       0x00000000       0x18 c:/users/nukem419/appdata/local/arduino15/packages/chipkit/tools/pic32-tools/1.42-pic32gcc/bin/bin/../../lib/gcc/pic32mx/4.8.3/../../../../pic32mx/lib/size\libc.a(lib_a-strncpy.o)
 .text          0x00000000        0x0 c:/users/nukem419/appdata/local/arduino15/packages/chipkit/tools/pic32-tools/1.42-pic32gcc/bin/bin/../../lib/gcc/pic32mx/4.8.3/../../../../pic32mx/lib/size\libc.a(lib_a-strrchr.o)
 .data          0x00000000        0x0 c:/users/nukem419/appdata/local/arduino15/packages/chipkit/tools/pic32-tools/1.42-pic32gcc/bin/bin/../../lib/gcc/pic32mx/4.8.3/../../../../pic32mx/lib/size\libc.a(lib_a-strrchr.o)
 .bss           0x00000000        0x0 c:/users/nukem419/appdata/local/arduino15/packages/chipkit/tools/pic32-tools/1.42-pic32gcc/bin/bin/../../lib/gcc/pic32mx/4.8.3/../../../../pic32mx/lib/size\libc.a(lib_a-strrchr.o)
 .reginfo       0x00000000       0x18 c:/users/nukem419/appdata/local/arduino15/packages/chipkit/tools/pic32-tools/1.42-pic32gcc/bin/bin/../../lib/gcc/pic32mx/4.8.3/../../../../pic32mx/lib/size\libc.a(lib_a-strrchr.o)
 .text.strrchr  0x00000000       0x60 c:/users/nukem419/appdata/local/arduino15/packages/chipkit/tools/pic32-tools/1.42-pic32gcc/bin/bin/../../lib/gcc/pic32mx/4.8.3/../../../../pic32mx/lib/size\libc.a(lib_a-strrchr.o)
 .text          0x00000000        0x0 c:/users/nukem419/appdata/local/arduino15/packages/chipkit/tools/pic32-tools/1.42-pic32gcc/bin/bin/../../lib/gcc/pic32mx/4.8.3/../../../../pic32mx/lib/size\libc.a(lib_a-strstr.o)
 .data          0x00000000        0x0 c:/users/nukem419/appdata/local/arduino15/packages/chipkit/tools/pic32-tools/1.42-pic32gcc/bin/bin/../../lib/gcc/pic32mx/4.8.3/../../../../pic32mx/lib/size\libc.a(lib_a-strstr.o)
 .bss           0x00000000        0x0 c:/users/nukem419/appdata/local/arduino15/packages/chipkit/tools/pic32-tools/1.42-pic32gcc/bin/bin/../../lib/gcc/pic32mx/4.8.3/../../../../pic32mx/lib/size\libc.a(lib_a-strstr.o)
 .reginfo       0x00000000       0x18 c:/users/nukem419/appdata/local/arduino15/packages/chipkit/tools/pic32-tools/1.42-pic32gcc/bin/bin/../../lib/gcc/pic32mx/4.8.3/../../../../pic32mx/lib/size\libc.a(lib_a-strstr.o)
 .text.strstr   0x00000000       0x60 c:/users/nukem419/appdata/local/arduino15/packages/chipkit/tools/pic32-tools/1.42-pic32gcc/bin/bin/../../lib/gcc/pic32mx/4.8.3/../../../../pic32mx/lib/size\libc.a(lib_a-strstr.o)
 .text          0x00000000        0x0 c:/users/nukem419/appdata/local/arduino15/packages/chipkit/tools/pic32-tools/1.42-pic32gcc/bin/bin/../../lib/gcc/pic32mx/4.8.3/../../../../pic32mx/lib/size\libc.a(lib_a-strtod.o)
 .data          0x00000000        0x0 c:/users/nukem419/appdata/local/arduino15/packages/chipkit/tools/pic32-tools/1.42-pic32gcc/bin/bin/../../lib/gcc/pic32mx/4.8.3/../../../../pic32mx/lib/size\libc.a(lib_a-strtod.o)
 .bss           0x00000000        0x0 c:/users/nukem419/appdata/local/arduino15/packages/chipkit/tools/pic32-tools/1.42-pic32gcc/bin/bin/../../lib/gcc/pic32mx/4.8.3/../../../../pic32mx/lib/size\libc.a(lib_a-strtod.o)
 .reginfo       0x00000000       0x18 c:/users/nukem419/appdata/local/arduino15/packages/chipkit/tools/pic32-tools/1.42-pic32gcc/bin/bin/../../lib/gcc/pic32mx/4.8.3/../../../../pic32mx/lib/size\libc.a(lib_a-strtod.o)
 .text.strtof   0x00000000       0x70 c:/users/nukem419/appdata/local/arduino15/packages/chipkit/tools/pic32-tools/1.42-pic32gcc/bin/bin/../../lib/gcc/pic32mx/4.8.3/../../../../pic32mx/lib/size\libc.a(lib_a-strtod.o)
 .text          0x00000000        0x0 c:/users/nukem419/appdata/local/arduino15/packages/chipkit/tools/pic32-tools/1.42-pic32gcc/bin/bin/../../lib/gcc/pic32mx/4.8.3/../../../../pic32mx/lib/size\libc.a(lib_a-strtol.o)
 .data          0x00000000        0x0 c:/users/nukem419/appdata/local/arduino15/packages/chipkit/tools/pic32-tools/1.42-pic32gcc/bin/bin/../../lib/gcc/pic32mx/4.8.3/../../../../pic32mx/lib/size\libc.a(lib_a-strtol.o)
 .bss           0x00000000        0x0 c:/users/nukem419/appdata/local/arduino15/packages/chipkit/tools/pic32-tools/1.42-pic32gcc/bin/bin/../../lib/gcc/pic32mx/4.8.3/../../../../pic32mx/lib/size\libc.a(lib_a-strtol.o)
 .reginfo       0x00000000       0x18 c:/users/nukem419/appdata/local/arduino15/packages/chipkit/tools/pic32-tools/1.42-pic32gcc/bin/bin/../../lib/gcc/pic32mx/4.8.3/../../../../pic32mx/lib/size\libc.a(lib_a-strtol.o)
 .text          0x00000000        0x0 c:/users/nukem419/appdata/local/arduino15/packages/chipkit/tools/pic32-tools/1.42-pic32gcc/bin/bin/../../lib/gcc/pic32mx/4.8.3/../../../../pic32mx/lib/size\libc.a(lib_a-svfprintf.o)
 .data          0x00000000        0x0 c:/users/nukem419/appdata/local/arduino15/packages/chipkit/tools/pic32-tools/1.42-pic32gcc/bin/bin/../../lib/gcc/pic32mx/4.8.3/../../../../pic32mx/lib/size\libc.a(lib_a-svfprintf.o)
 .bss           0x00000000        0x0 c:/users/nukem419/appdata/local/arduino15/packages/chipkit/tools/pic32-tools/1.42-pic32gcc/bin/bin/../../lib/gcc/pic32mx/4.8.3/../../../../pic32mx/lib/size\libc.a(lib_a-svfprintf.o)
 .reginfo       0x00000000       0x18 c:/users/nukem419/appdata/local/arduino15/packages/chipkit/tools/pic32-tools/1.42-pic32gcc/bin/bin/../../lib/gcc/pic32mx/4.8.3/../../../../pic32mx/lib/size\libc.a(lib_a-svfprintf.o)
 .rodata        0x00000000       0x3c c:/users/nukem419/appdata/local/arduino15/packages/chipkit/tools/pic32-tools/1.42-pic32gcc/bin/bin/../../lib/gcc/pic32mx/4.8.3/../../../../pic32mx/lib/size\libc.a(lib_a-svfprintf.o)
 .text._svfprintf_r
                0x00000000     0x197c c:/users/nukem419/appdata/local/arduino15/packages/chipkit/tools/pic32-tools/1.42-pic32gcc/bin/bin/../../lib/gcc/pic32mx/4.8.3/../../../../pic32mx/lib/size\libc.a(lib_a-svfprintf.o)
 .rodata.blanks.4081.blanks
                0x00000000       0x10 c:/users/nukem419/appdata/local/arduino15/packages/chipkit/tools/pic32-tools/1.42-pic32gcc/bin/bin/../../lib/gcc/pic32mx/4.8.3/../../../../pic32mx/lib/size\libc.a(lib_a-svfprintf.o)
 .rodata.zeroes.4082.zeroes
                0x00000000       0x10 c:/users/nukem419/appdata/local/arduino15/packages/chipkit/tools/pic32-tools/1.42-pic32gcc/bin/bin/../../lib/gcc/pic32mx/4.8.3/../../../../pic32mx/lib/size\libc.a(lib_a-svfprintf.o)
 .text          0x00000000        0x0 c:/users/nukem419/appdata/local/arduino15/packages/chipkit/tools/pic32-tools/1.42-pic32gcc/bin/bin/../../lib/gcc/pic32mx/4.8.3/../../../../pic32mx/lib/size\libc.a(lib_a-tolower.o)
 .data          0x00000000        0x0 c:/users/nukem419/appdata/local/arduino15/packages/chipkit/tools/pic32-tools/1.42-pic32gcc/bin/bin/../../lib/gcc/pic32mx/4.8.3/../../../../pic32mx/lib/size\libc.a(lib_a-tolower.o)
 .bss           0x00000000        0x0 c:/users/nukem419/appdata/local/arduino15/packages/chipkit/tools/pic32-tools/1.42-pic32gcc/bin/bin/../../lib/gcc/pic32mx/4.8.3/../../../../pic32mx/lib/size\libc.a(lib_a-tolower.o)
 .reginfo       0x00000000       0x18 c:/users/nukem419/appdata/local/arduino15/packages/chipkit/tools/pic32-tools/1.42-pic32gcc/bin/bin/../../lib/gcc/pic32mx/4.8.3/../../../../pic32mx/lib/size\libc.a(lib_a-tolower.o)
 .text.tolower  0x00000000       0x28 c:/users/nukem419/appdata/local/arduino15/packages/chipkit/tools/pic32-tools/1.42-pic32gcc/bin/bin/../../lib/gcc/pic32mx/4.8.3/../../../../pic32mx/lib/size\libc.a(lib_a-tolower.o)
 .text          0x00000000        0x0 c:/users/nukem419/appdata/local/arduino15/packages/chipkit/tools/pic32-tools/1.42-pic32gcc/bin/bin/../../lib/gcc/pic32mx/4.8.3/../../../../pic32mx/lib/size\libc.a(lib_a-toupper.o)
 .data          0x00000000        0x0 c:/users/nukem419/appdata/local/arduino15/packages/chipkit/tools/pic32-tools/1.42-pic32gcc/bin/bin/../../lib/gcc/pic32mx/4.8.3/../../../../pic32mx/lib/size\libc.a(lib_a-toupper.o)
 .bss           0x00000000        0x0 c:/users/nukem419/appdata/local/arduino15/packages/chipkit/tools/pic32-tools/1.42-pic32gcc/bin/bin/../../lib/gcc/pic32mx/4.8.3/../../../../pic32mx/lib/size\libc.a(lib_a-toupper.o)
 .reginfo       0x00000000       0x18 c:/users/nukem419/appdata/local/arduino15/packages/chipkit/tools/pic32-tools/1.42-pic32gcc/bin/bin/../../lib/gcc/pic32mx/4.8.3/../../../../pic32mx/lib/size\libc.a(lib_a-toupper.o)
 .text.toupper  0x00000000       0x28 c:/users/nukem419/appdata/local/arduino15/packages/chipkit/tools/pic32-tools/1.42-pic32gcc/bin/bin/../../lib/gcc/pic32mx/4.8.3/../../../../pic32mx/lib/size\libc.a(lib_a-toupper.o)
 .text          0x00000000        0x0 c:/users/nukem419/appdata/local/arduino15/packages/chipkit/tools/pic32-tools/1.42-pic32gcc/bin/bin/../../lib/gcc/pic32mx/4.8.3/../../../../pic32mx/lib/size\libc.a(lib_a-ctype_.o)
 .data          0x00000000        0x0 c:/users/nukem419/appdata/local/arduino15/packages/chipkit/tools/pic32-tools/1.42-pic32gcc/bin/bin/../../lib/gcc/pic32mx/4.8.3/../../../../pic32mx/lib/size\libc.a(lib_a-ctype_.o)
 .bss           0x00000000        0x0 c:/users/nukem419/appdata/local/arduino15/packages/chipkit/tools/pic32-tools/1.42-pic32gcc/bin/bin/../../lib/gcc/pic32mx/4.8.3/../../../../pic32mx/lib/size\libc.a(lib_a-ctype_.o)
 .reginfo       0x00000000       0x18 c:/users/nukem419/appdata/local/arduino15/packages/chipkit/tools/pic32-tools/1.42-pic32gcc/bin/bin/../../lib/gcc/pic32mx/4.8.3/../../../../pic32mx/lib/size\libc.a(lib_a-ctype_.o)
 .libc.data._ctype_
                0x00000000      0x104 c:/users/nukem419/appdata/local/arduino15/packages/chipkit/tools/pic32-tools/1.42-pic32gcc/bin/bin/../../lib/gcc/pic32mx/4.8.3/../../../../pic32mx/lib/size\libc.a(lib_a-ctype_.o)
 .text          0x00000000        0x0 c:/users/nukem419/appdata/local/arduino15/packages/chipkit/tools/pic32-tools/1.42-pic32gcc/bin/bin/../../lib/gcc/pic32mx/4.8.3/../../../../pic32mx/lib/size\libc.a(lib_a-dtoa.o)
 .data          0x00000000        0x0 c:/users/nukem419/appdata/local/arduino15/packages/chipkit/tools/pic32-tools/1.42-pic32gcc/bin/bin/../../lib/gcc/pic32mx/4.8.3/../../../../pic32mx/lib/size\libc.a(lib_a-dtoa.o)
 .bss           0x00000000        0x0 c:/users/nukem419/appdata/local/arduino15/packages/chipkit/tools/pic32-tools/1.42-pic32gcc/bin/bin/../../lib/gcc/pic32mx/4.8.3/../../../../pic32mx/lib/size\libc.a(lib_a-dtoa.o)
 .reginfo       0x00000000       0x18 c:/users/nukem419/appdata/local/arduino15/packages/chipkit/tools/pic32-tools/1.42-pic32gcc/bin/bin/../../lib/gcc/pic32mx/4.8.3/../../../../pic32mx/lib/size\libc.a(lib_a-dtoa.o)
 .text.quorem   0x00000000      0x200 c:/users/nukem419/appdata/local/arduino15/packages/chipkit/tools/pic32-tools/1.42-pic32gcc/bin/bin/../../lib/gcc/pic32mx/4.8.3/../../../../pic32mx/lib/size\libc.a(lib_a-dtoa.o)
 .rodata        0x00000000       0x60 c:/users/nukem419/appdata/local/arduino15/packages/chipkit/tools/pic32-tools/1.42-pic32gcc/bin/bin/../../lib/gcc/pic32mx/4.8.3/../../../../pic32mx/lib/size\libc.a(lib_a-dtoa.o)
 .text._dtoa_r  0x00000000     0x1320 c:/users/nukem419/appdata/local/arduino15/packages/chipkit/tools/pic32-tools/1.42-pic32gcc/bin/bin/../../lib/gcc/pic32mx/4.8.3/../../../../pic32mx/lib/size\libc.a(lib_a-dtoa.o)
 .text          0x00000000        0x0 c:/users/nukem419/appdata/local/arduino15/packages/chipkit/tools/pic32-tools/1.42-pic32gcc/bin/bin/../../lib/gcc/pic32mx/4.8.3/../../../../pic32mx/lib/size\libc.a(lib_a-freer.o)
 .data          0x00000000        0x0 c:/users/nukem419/appdata/local/arduino15/packages/chipkit/tools/pic32-tools/1.42-pic32gcc/bin/bin/../../lib/gcc/pic32mx/4.8.3/../../../../pic32mx/lib/size\libc.a(lib_a-freer.o)
 .bss           0x00000000        0x0 c:/users/nukem419/appdata/local/arduino15/packages/chipkit/tools/pic32-tools/1.42-pic32gcc/bin/bin/../../lib/gcc/pic32mx/4.8.3/../../../../pic32mx/lib/size\libc.a(lib_a-freer.o)
 .reginfo       0x00000000       0x18 c:/users/nukem419/appdata/local/arduino15/packages/chipkit/tools/pic32-tools/1.42-pic32gcc/bin/bin/../../lib/gcc/pic32mx/4.8.3/../../../../pic32mx/lib/size\libc.a(lib_a-freer.o)
 .text          0x00000000        0x0 c:/users/nukem419/appdata/local/arduino15/packages/chipkit/tools/pic32-tools/1.42-pic32gcc/bin/bin/../../lib/gcc/pic32mx/4.8.3/../../../../pic32mx/lib/size\libc.a(lib_a-gdtoa-gethex.o)
 .data          0x00000000        0x0 c:/users/nukem419/appdata/local/arduino15/packages/chipkit/tools/pic32-tools/1.42-pic32gcc/bin/bin/../../lib/gcc/pic32mx/4.8.3/../../../../pic32mx/lib/size\libc.a(lib_a-gdtoa-gethex.o)
 .bss           0x00000000        0x0 c:/users/nukem419/appdata/local/arduino15/packages/chipkit/tools/pic32-tools/1.42-pic32gcc/bin/bin/../../lib/gcc/pic32mx/4.8.3/../../../../pic32mx/lib/size\libc.a(lib_a-gdtoa-gethex.o)
 .reginfo       0x00000000       0x18 c:/users/nukem419/appdata/local/arduino15/packages/chipkit/tools/pic32-tools/1.42-pic32gcc/bin/bin/../../lib/gcc/pic32mx/4.8.3/../../../../pic32mx/lib/size\libc.a(lib_a-gdtoa-gethex.o)
 .text          0x00000000        0x0 c:/users/nukem419/appdata/local/arduino15/packages/chipkit/tools/pic32-tools/1.42-pic32gcc/bin/bin/../../lib/gcc/pic32mx/4.8.3/../../../../pic32mx/lib/size\libc.a(lib_a-gdtoa-hexnan.o)
 .data          0x00000000        0x0 c:/users/nukem419/appdata/local/arduino15/packages/chipkit/tools/pic32-tools/1.42-pic32gcc/bin/bin/../../lib/gcc/pic32mx/4.8.3/../../../../pic32mx/lib/size\libc.a(lib_a-gdtoa-hexnan.o)
 .bss           0x00000000        0x0 c:/users/nukem419/appdata/local/arduino15/packages/chipkit/tools/pic32-tools/1.42-pic32gcc/bin/bin/../../lib/gcc/pic32mx/4.8.3/../../../../pic32mx/lib/size\libc.a(lib_a-gdtoa-hexnan.o)
 .reginfo       0x00000000       0x18 c:/users/nukem419/appdata/local/arduino15/packages/chipkit/tools/pic32-tools/1.42-pic32gcc/bin/bin/../../lib/gcc/pic32mx/4.8.3/../../../../pic32mx/lib/size\libc.a(lib_a-gdtoa-hexnan.o)
 .text          0x00000000        0x0 c:/users/nukem419/appdata/local/arduino15/packages/chipkit/tools/pic32-tools/1.42-pic32gcc/bin/bin/../../lib/gcc/pic32mx/4.8.3/../../../../pic32mx/lib/size\libc.a(lib_a-locale.o)
 .data          0x00000000        0x0 c:/users/nukem419/appdata/local/arduino15/packages/chipkit/tools/pic32-tools/1.42-pic32gcc/bin/bin/../../lib/gcc/pic32mx/4.8.3/../../../../pic32mx/lib/size\libc.a(lib_a-locale.o)
 .bss           0x00000000        0x0 c:/users/nukem419/appdata/local/arduino15/packages/chipkit/tools/pic32-tools/1.42-pic32gcc/bin/bin/../../lib/gcc/pic32mx/4.8.3/../../../../pic32mx/lib/size\libc.a(lib_a-locale.o)
 .reginfo       0x00000000       0x18 c:/users/nukem419/appdata/local/arduino15/packages/chipkit/tools/pic32-tools/1.42-pic32gcc/bin/bin/../../lib/gcc/pic32mx/4.8.3/../../../../pic32mx/lib/size\libc.a(lib_a-locale.o)
 .data.__mb_cur_max.__mb_cur_max
                0x00000000        0x4 c:/users/nukem419/appdata/local/arduino15/packages/chipkit/tools/pic32-tools/1.42-pic32gcc/bin/bin/../../lib/gcc/pic32mx/4.8.3/../../../../pic32mx/lib/size\libc.a(lib_a-locale.o)
 .bss.__nlocale_changed.__nlocale_changed
                0x00000000        0x4 c:/users/nukem419/appdata/local/arduino15/packages/chipkit/tools/pic32-tools/1.42-pic32gcc/bin/bin/../../lib/gcc/pic32mx/4.8.3/../../../../pic32mx/lib/size\libc.a(lib_a-locale.o)
 .bss.__mlocale_changed.__mlocale_changed
                0x00000000        0x4 c:/users/nukem419/appdata/local/arduino15/packages/chipkit/tools/pic32-tools/1.42-pic32gcc/bin/bin/../../lib/gcc/pic32mx/4.8.3/../../../../pic32mx/lib/size\libc.a(lib_a-locale.o)
 .bss._PathLocale._PathLocale
                0x00000000        0x4 c:/users/nukem419/appdata/local/arduino15/packages/chipkit/tools/pic32-tools/1.42-pic32gcc/bin/bin/../../lib/gcc/pic32mx/4.8.3/../../../../pic32mx/lib/size\libc.a(lib_a-locale.o)
 .data.lc_ctype_charset.lc_ctype_charset
                0x00000000       0x20 c:/users/nukem419/appdata/local/arduino15/packages/chipkit/tools/pic32-tools/1.42-pic32gcc/bin/bin/../../lib/gcc/pic32mx/4.8.3/../../../../pic32mx/lib/size\libc.a(lib_a-locale.o)
 .data.lc_message_charset.lc_message_charset
                0x00000000       0x20 c:/users/nukem419/appdata/local/arduino15/packages/chipkit/tools/pic32-tools/1.42-pic32gcc/bin/bin/../../lib/gcc/pic32mx/4.8.3/../../../../pic32mx/lib/size\libc.a(lib_a-locale.o)
 .bss.lc_ctype_cjk_lang.lc_ctype_cjk_lang
                0x00000000        0x4 c:/users/nukem419/appdata/local/arduino15/packages/chipkit/tools/pic32-tools/1.42-pic32gcc/bin/bin/../../lib/gcc/pic32mx/4.8.3/../../../../pic32mx/lib/size\libc.a(lib_a-locale.o)
 .text._setlocale_r
                0x00000000       0x80 c:/users/nukem419/appdata/local/arduino15/packages/chipkit/tools/pic32-tools/1.42-pic32gcc/bin/bin/../../lib/gcc/pic32mx/4.8.3/../../../../pic32mx/lib/size\libc.a(lib_a-locale.o)
 .text.__locale_charset
                0x00000000        0xc c:/users/nukem419/appdata/local/arduino15/packages/chipkit/tools/pic32-tools/1.42-pic32gcc/bin/bin/../../lib/gcc/pic32mx/4.8.3/../../../../pic32mx/lib/size\libc.a(lib_a-locale.o)
 .text.__locale_mb_cur_max
                0x00000000        0xc c:/users/nukem419/appdata/local/arduino15/packages/chipkit/tools/pic32-tools/1.42-pic32gcc/bin/bin/../../lib/gcc/pic32mx/4.8.3/../../../../pic32mx/lib/size\libc.a(lib_a-locale.o)
 .text.__locale_msgcharset
                0x00000000        0xc c:/users/nukem419/appdata/local/arduino15/packages/chipkit/tools/pic32-tools/1.42-pic32gcc/bin/bin/../../lib/gcc/pic32mx/4.8.3/../../../../pic32mx/lib/size\libc.a(lib_a-locale.o)
 .text.__locale_cjk_lang
                0x00000000        0xc c:/users/nukem419/appdata/local/arduino15/packages/chipkit/tools/pic32-tools/1.42-pic32gcc/bin/bin/../../lib/gcc/pic32mx/4.8.3/../../../../pic32mx/lib/size\libc.a(lib_a-locale.o)
 .text.setlocale
                0x00000000       0x2c c:/users/nukem419/appdata/local/arduino15/packages/chipkit/tools/pic32-tools/1.42-pic32gcc/bin/bin/../../lib/gcc/pic32mx/4.8.3/../../../../pic32mx/lib/size\libc.a(lib_a-locale.o)
 .text.localeconv
                0x00000000        0xc c:/users/nukem419/appdata/local/arduino15/packages/chipkit/tools/pic32-tools/1.42-pic32gcc/bin/bin/../../lib/gcc/pic32mx/4.8.3/../../../../pic32mx/lib/size\libc.a(lib_a-locale.o)
 .text          0x00000000        0x0 c:/users/nukem419/appdata/local/arduino15/packages/chipkit/tools/pic32-tools/1.42-pic32gcc/bin/bin/../../lib/gcc/pic32mx/4.8.3/../../../../pic32mx/lib/size\libc.a(lib_a-memchr.o)
 .data          0x00000000        0x0 c:/users/nukem419/appdata/local/arduino15/packages/chipkit/tools/pic32-tools/1.42-pic32gcc/bin/bin/../../lib/gcc/pic32mx/4.8.3/../../../../pic32mx/lib/size\libc.a(lib_a-memchr.o)
 .bss           0x00000000        0x0 c:/users/nukem419/appdata/local/arduino15/packages/chipkit/tools/pic32-tools/1.42-pic32gcc/bin/bin/../../lib/gcc/pic32mx/4.8.3/../../../../pic32mx/lib/size\libc.a(lib_a-memchr.o)
 .reginfo       0x00000000       0x18 c:/users/nukem419/appdata/local/arduino15/packages/chipkit/tools/pic32-tools/1.42-pic32gcc/bin/bin/../../lib/gcc/pic32mx/4.8.3/../../../../pic32mx/lib/size\libc.a(lib_a-memchr.o)
 .text.memchr   0x00000000       0x34 c:/users/nukem419/appdata/local/arduino15/packages/chipkit/tools/pic32-tools/1.42-pic32gcc/bin/bin/../../lib/gcc/pic32mx/4.8.3/../../../../pic32mx/lib/size\libc.a(lib_a-memchr.o)
 .text          0x00000000        0x0 c:/users/nukem419/appdata/local/arduino15/packages/chipkit/tools/pic32-tools/1.42-pic32gcc/bin/bin/../../lib/gcc/pic32mx/4.8.3/../../../../pic32mx/lib/size\libc.a(lib_a-mprec.o)
 .data          0x00000000        0x0 c:/users/nukem419/appdata/local/arduino15/packages/chipkit/tools/pic32-tools/1.42-pic32gcc/bin/bin/../../lib/gcc/pic32mx/4.8.3/../../../../pic32mx/lib/size\libc.a(lib_a-mprec.o)
 .bss           0x00000000        0x0 c:/users/nukem419/appdata/local/arduino15/packages/chipkit/tools/pic32-tools/1.42-pic32gcc/bin/bin/../../lib/gcc/pic32mx/4.8.3/../../../../pic32mx/lib/size\libc.a(lib_a-mprec.o)
 .reginfo       0x00000000       0x18 c:/users/nukem419/appdata/local/arduino15/packages/chipkit/tools/pic32-tools/1.42-pic32gcc/bin/bin/../../lib/gcc/pic32mx/4.8.3/../../../../pic32mx/lib/size\libc.a(lib_a-mprec.o)
 .rodata.__mprec_tinytens.__mprec_tinytens
                0x00000000       0x28 c:/users/nukem419/appdata/local/arduino15/packages/chipkit/tools/pic32-tools/1.42-pic32gcc/bin/bin/../../lib/gcc/pic32mx/4.8.3/../../../../pic32mx/lib/size\libc.a(lib_a-mprec.o)
 .text._mprec_log10
                0x00000000       0x9c c:/users/nukem419/appdata/local/arduino15/packages/chipkit/tools/pic32-tools/1.42-pic32gcc/bin/bin/../../lib/gcc/pic32mx/4.8.3/../../../../pic32mx/lib/size\libc.a(lib_a-mprec.o)
 .rodata        0x00000000       0x10 c:/users/nukem419/appdata/local/arduino15/packages/chipkit/tools/pic32-tools/1.42-pic32gcc/bin/bin/../../lib/gcc/pic32mx/4.8.3/../../../../pic32mx/lib/size\libc.a(lib_a-mprec.o)
 .text          0x00000000        0x0 c:/users/nukem419/appdata/local/arduino15/packages/chipkit/tools/pic32-tools/1.42-pic32gcc/bin/bin/../../lib/gcc/pic32mx/4.8.3/../../../../pic32mx/lib/size\libc.a(lib_a-reent.o)
 .data          0x00000000        0x0 c:/users/nukem419/appdata/local/arduino15/packages/chipkit/tools/pic32-tools/1.42-pic32gcc/bin/bin/../../lib/gcc/pic32mx/4.8.3/../../../../pic32mx/lib/size\libc.a(lib_a-reent.o)
 .bss           0x00000000        0x0 c:/users/nukem419/appdata/local/arduino15/packages/chipkit/tools/pic32-tools/1.42-pic32gcc/bin/bin/../../lib/gcc/pic32mx/4.8.3/../../../../pic32mx/lib/size\libc.a(lib_a-reent.o)
 .reginfo       0x00000000       0x18 c:/users/nukem419/appdata/local/arduino15/packages/chipkit/tools/pic32-tools/1.42-pic32gcc/bin/bin/../../lib/gcc/pic32mx/4.8.3/../../../../pic32mx/lib/size\libc.a(lib_a-reent.o)
 .text.cleanup_glue
                0x00000000       0x48 c:/users/nukem419/appdata/local/arduino15/packages/chipkit/tools/pic32-tools/1.42-pic32gcc/bin/bin/../../lib/gcc/pic32mx/4.8.3/../../../../pic32mx/lib/size\libc.a(lib_a-reent.o)
 .text._reclaim_reent
                0x00000000      0x118 c:/users/nukem419/appdata/local/arduino15/packages/chipkit/tools/pic32-tools/1.42-pic32gcc/bin/bin/../../lib/gcc/pic32mx/4.8.3/../../../../pic32mx/lib/size\libc.a(lib_a-reent.o)
 .text._wrapup_reent
                0x00000000       0x7c c:/users/nukem419/appdata/local/arduino15/packages/chipkit/tools/pic32-tools/1.42-pic32gcc/bin/bin/../../lib/gcc/pic32mx/4.8.3/../../../../pic32mx/lib/size\libc.a(lib_a-reent.o)
 .text          0x00000000        0x0 c:/users/nukem419/appdata/local/arduino15/packages/chipkit/tools/pic32-tools/1.42-pic32gcc/bin/bin/../../lib/gcc/pic32mx/4.8.3/../../../../pic32mx/lib/size\libc.a(lib_a-sf_nan.o)
 .data          0x00000000        0x0 c:/users/nukem419/appdata/local/arduino15/packages/chipkit/tools/pic32-tools/1.42-pic32gcc/bin/bin/../../lib/gcc/pic32mx/4.8.3/../../../../pic32mx/lib/size\libc.a(lib_a-sf_nan.o)
 .bss           0x00000000        0x0 c:/users/nukem419/appdata/local/arduino15/packages/chipkit/tools/pic32-tools/1.42-pic32gcc/bin/bin/../../lib/gcc/pic32mx/4.8.3/../../../../pic32mx/lib/size\libc.a(lib_a-sf_nan.o)
 .reginfo       0x00000000       0x18 c:/users/nukem419/appdata/local/arduino15/packages/chipkit/tools/pic32-tools/1.42-pic32gcc/bin/bin/../../lib/gcc/pic32mx/4.8.3/../../../../pic32mx/lib/size\libc.a(lib_a-sf_nan.o)
 .text.nanf     0x00000000        0xc c:/users/nukem419/appdata/local/arduino15/packages/chipkit/tools/pic32-tools/1.42-pic32gcc/bin/bin/../../lib/gcc/pic32mx/4.8.3/../../../../pic32mx/lib/size\libc.a(lib_a-sf_nan.o)
 .rodata        0x00000000        0x4 c:/users/nukem419/appdata/local/arduino15/packages/chipkit/tools/pic32-tools/1.42-pic32gcc/bin/bin/../../lib/gcc/pic32mx/4.8.3/../../../../pic32mx/lib/size\libc.a(lib_a-sf_nan.o)
 .text          0x00000000        0x0 c:/users/nukem419/appdata/local/arduino15/packages/chipkit/tools/pic32-tools/1.42-pic32gcc/bin/bin/../../lib/gcc/pic32mx/4.8.3/../../../../pic32mx/lib/size\libc.a(lib_a-svfiprintf.o)
 .data          0x00000000        0x0 c:/users/nukem419/appdata/local/arduino15/packages/chipkit/tools/pic32-tools/1.42-pic32gcc/bin/bin/../../lib/gcc/pic32mx/4.8.3/../../../../pic32mx/lib/size\libc.a(lib_a-svfiprintf.o)
 .bss           0x00000000        0x0 c:/users/nukem419/appdata/local/arduino15/packages/chipkit/tools/pic32-tools/1.42-pic32gcc/bin/bin/../../lib/gcc/pic32mx/4.8.3/../../../../pic32mx/lib/size\libc.a(lib_a-svfiprintf.o)
 .reginfo       0x00000000       0x18 c:/users/nukem419/appdata/local/arduino15/packages/chipkit/tools/pic32-tools/1.42-pic32gcc/bin/bin/../../lib/gcc/pic32mx/4.8.3/../../../../pic32mx/lib/size\libc.a(lib_a-svfiprintf.o)
 .text.__ssprint_r
                0x00000000      0x1d4 c:/users/nukem419/appdata/local/arduino15/packages/chipkit/tools/pic32-tools/1.42-pic32gcc/bin/bin/../../lib/gcc/pic32mx/4.8.3/../../../../pic32mx/lib/size\libc.a(lib_a-svfiprintf.o)
 .rodata        0x00000000       0x28 c:/users/nukem419/appdata/local/arduino15/packages/chipkit/tools/pic32-tools/1.42-pic32gcc/bin/bin/../../lib/gcc/pic32mx/4.8.3/../../../../pic32mx/lib/size\libc.a(lib_a-svfiprintf.o)
 .text._svfiprintf_r
                0x00000000      0xc9c c:/users/nukem419/appdata/local/arduino15/packages/chipkit/tools/pic32-tools/1.42-pic32gcc/bin/bin/../../lib/gcc/pic32mx/4.8.3/../../../../pic32mx/lib/size\libc.a(lib_a-svfiprintf.o)
 .rodata.blanks.4025.blanks
                0x00000000       0x10 c:/users/nukem419/appdata/local/arduino15/packages/chipkit/tools/pic32-tools/1.42-pic32gcc/bin/bin/../../lib/gcc/pic32mx/4.8.3/../../../../pic32mx/lib/size\libc.a(lib_a-svfiprintf.o)
 .rodata.zeroes.4026.zeroes
                0x00000000       0x10 c:/users/nukem419/appdata/local/arduino15/packages/chipkit/tools/pic32-tools/1.42-pic32gcc/bin/bin/../../lib/gcc/pic32mx/4.8.3/../../../../pic32mx/lib/size\libc.a(lib_a-svfiprintf.o)
 .text          0x00000000        0x0 c:/users/nukem419/appdata/local/arduino15/packages/chipkit/tools/pic32-tools/1.42-pic32gcc/bin/bin/../../lib/gcc/pic32mx/4.8.3/../../../../pic32mx/lib/size\libc.a(lib_a-callocr.o)
 .data          0x00000000        0x0 c:/users/nukem419/appdata/local/arduino15/packages/chipkit/tools/pic32-tools/1.42-pic32gcc/bin/bin/../../lib/gcc/pic32mx/4.8.3/../../../../pic32mx/lib/size\libc.a(lib_a-callocr.o)
 .bss           0x00000000        0x0 c:/users/nukem419/appdata/local/arduino15/packages/chipkit/tools/pic32-tools/1.42-pic32gcc/bin/bin/../../lib/gcc/pic32mx/4.8.3/../../../../pic32mx/lib/size\libc.a(lib_a-callocr.o)
 .reginfo       0x00000000       0x18 c:/users/nukem419/appdata/local/arduino15/packages/chipkit/tools/pic32-tools/1.42-pic32gcc/bin/bin/../../lib/gcc/pic32mx/4.8.3/../../../../pic32mx/lib/size\libc.a(lib_a-callocr.o)
 .text          0x00000000        0x0 c:/users/nukem419/appdata/local/arduino15/packages/chipkit/tools/pic32-tools/1.42-pic32gcc/bin/bin/../../lib/gcc/pic32mx/4.8.3/../../../../pic32mx/lib/size\libpic32.a(sbrk.o)
 .data          0x00000000        0x0 c:/users/nukem419/appdata/local/arduino15/packages/chipkit/tools/pic32-tools/1.42-pic32gcc/bin/bin/../../lib/gcc/pic32mx/4.8.3/../../../../pic32mx/lib/size\libpic32.a(sbrk.o)
 .bss           0x00000000        0x0 c:/users/nukem419/appdata/local/arduino15/packages/chipkit/tools/pic32-tools/1.42-pic32gcc/bin/bin/../../lib/gcc/pic32mx/4.8.3/../../../../pic32mx/lib/size\libpic32.a(sbrk.o)
 .reginfo       0x00000000       0x18 c:/users/nukem419/appdata/local/arduino15/packages/chipkit/tools/pic32-tools/1.42-pic32gcc/bin/bin/../../lib/gcc/pic32mx/4.8.3/../../../../pic32mx/lib/size\libpic32.a(sbrk.o)
 .text.getpagesize
                0x00000000        0x8 c:/users/nukem419/appdata/local/arduino15/packages/chipkit/tools/pic32-tools/1.42-pic32gcc/bin/bin/../../lib/gcc/pic32mx/4.8.3/../../../../pic32mx/lib/size\libpic32.a(sbrk.o)
 .text          0x00000000        0x0 c:/users/nukem419/appdata/local/arduino15/packages/chipkit/tools/pic32-tools/1.42-pic32gcc/bin/bin/../../lib/gcc/pic32mx/4.8.3/../../../../pic32mx/lib/size\libpic32.a(default-bootstrap-exception-handler.o)
 .data          0x00000000        0x0 c:/users/nukem419/appdata/local/arduino15/packages/chipkit/tools/pic32-tools/1.42-pic32gcc/bin/bin/../../lib/gcc/pic32mx/4.8.3/../../../../pic32mx/lib/size\libpic32.a(default-bootstrap-exception-handler.o)
 .bss           0x00000000        0x0 c:/users/nukem419/appdata/local/arduino15/packages/chipkit/tools/pic32-tools/1.42-pic32gcc/bin/bin/../../lib/gcc/pic32mx/4.8.3/../../../../pic32mx/lib/size\libpic32.a(default-bootstrap-exception-handler.o)
 .reginfo       0x00000000       0x18 c:/users/nukem419/appdata/local/arduino15/packages/chipkit/tools/pic32-tools/1.42-pic32gcc/bin/bin/../../lib/gcc/pic32mx/4.8.3/../../../../pic32mx/lib/size\libpic32.a(default-bootstrap-exception-handler.o)
 .text          0x00000000        0x0 c:/users/nukem419/appdata/local/arduino15/packages/chipkit/tools/pic32-tools/1.42-pic32gcc/bin/bin/../../lib/gcc/pic32mx/4.8.3/../../../../pic32mx/lib/size\libpic32.a(default-on-reset.o)
 .data          0x00000000        0x0 c:/users/nukem419/appdata/local/arduino15/packages/chipkit/tools/pic32-tools/1.42-pic32gcc/bin/bin/../../lib/gcc/pic32mx/4.8.3/../../../../pic32mx/lib/size\libpic32.a(default-on-reset.o)
 .bss           0x00000000        0x0 c:/users/nukem419/appdata/local/arduino15/packages/chipkit/tools/pic32-tools/1.42-pic32gcc/bin/bin/../../lib/gcc/pic32mx/4.8.3/../../../../pic32mx/lib/size\libpic32.a(default-on-reset.o)
 .reginfo       0x00000000       0x18 c:/users/nukem419/appdata/local/arduino15/packages/chipkit/tools/pic32-tools/1.42-pic32gcc/bin/bin/../../lib/gcc/pic32mx/4.8.3/../../../../pic32mx/lib/size\libpic32.a(default-on-reset.o)
 .text          0x00000000        0x0 c:/users/nukem419/appdata/local/arduino15/packages/chipkit/tools/pic32-tools/1.42-pic32gcc/bin/bin/../../lib/gcc/pic32mx/4.8.3/../../../../pic32mx/lib/size\libpic32.a(default-on-bootstrap.o)
 .data          0x00000000        0x0 c:/users/nukem419/appdata/local/arduino15/packages/chipkit/tools/pic32-tools/1.42-pic32gcc/bin/bin/../../lib/gcc/pic32mx/4.8.3/../../../../pic32mx/lib/size\libpic32.a(default-on-bootstrap.o)
 .bss           0x00000000        0x0 c:/users/nukem419/appdata/local/arduino15/packages/chipkit/tools/pic32-tools/1.42-pic32gcc/bin/bin/../../lib/gcc/pic32mx/4.8.3/../../../../pic32mx/lib/size\libpic32.a(default-on-bootstrap.o)
 .reginfo       0x00000000       0x18 c:/users/nukem419/appdata/local/arduino15/packages/chipkit/tools/pic32-tools/1.42-pic32gcc/bin/bin/../../lib/gcc/pic32mx/4.8.3/../../../../pic32mx/lib/size\libpic32.a(default-on-bootstrap.o)
 .data          0x00000000        0x0 c:/users/nukem419/appdata/local/arduino15/packages/chipkit/tools/pic32-tools/1.42-pic32gcc/bin/bin/../../lib/gcc/pic32mx/4.8.3/../../../../pic32mx/lib/size\libpic32.a(default-nmi-handler.o)
 .bss           0x00000000        0x0 c:/users/nukem419/appdata/local/arduino15/packages/chipkit/tools/pic32-tools/1.42-pic32gcc/bin/bin/../../lib/gcc/pic32mx/4.8.3/../../../../pic32mx/lib/size\libpic32.a(default-nmi-handler.o)
 .reginfo       0x00000000       0x18 c:/users/nukem419/appdata/local/arduino15/packages/chipkit/tools/pic32-tools/1.42-pic32gcc/bin/bin/../../lib/gcc/pic32mx/4.8.3/../../../../pic32mx/lib/size\libpic32.a(default-nmi-handler.o)
 .text          0x00000000        0x0 c:/users/nukem419/appdata/local/arduino15/packages/chipkit/tools/pic32-tools/1.42-pic32gcc/bin/bin/../../lib/gcc/pic32mx/4.8.3/../../../../pic32mx/lib/size\libpic32.a(_exit.o)
 .data          0x00000000        0x0 c:/users/nukem419/appdata/local/arduino15/packages/chipkit/tools/pic32-tools/1.42-pic32gcc/bin/bin/../../lib/gcc/pic32mx/4.8.3/../../../../pic32mx/lib/size\libpic32.a(_exit.o)
 .bss           0x00000000        0x0 c:/users/nukem419/appdata/local/arduino15/packages/chipkit/tools/pic32-tools/1.42-pic32gcc/bin/bin/../../lib/gcc/pic32mx/4.8.3/../../../../pic32mx/lib/size\libpic32.a(_exit.o)
 .reginfo       0x00000000       0x18 c:/users/nukem419/appdata/local/arduino15/packages/chipkit/tools/pic32-tools/1.42-pic32gcc/bin/bin/../../lib/gcc/pic32mx/4.8.3/../../../../pic32mx/lib/size\libpic32.a(_exit.o)
 .text          0x00000000        0x0 c:/users/nukem419/appdata/local/arduino15/packages/chipkit/tools/pic32-tools/1.42-pic32gcc/bin/bin/../../lib/gcc/pic32mx/4.8.3/../../../../pic32mx/lib/size\libpic32.a(kill.o)
 .data          0x00000000        0x0 c:/users/nukem419/appdata/local/arduino15/packages/chipkit/tools/pic32-tools/1.42-pic32gcc/bin/bin/../../lib/gcc/pic32mx/4.8.3/../../../../pic32mx/lib/size\libpic32.a(kill.o)
 .bss           0x00000000        0x0 c:/users/nukem419/appdata/local/arduino15/packages/chipkit/tools/pic32-tools/1.42-pic32gcc/bin/bin/../../lib/gcc/pic32mx/4.8.3/../../../../pic32mx/lib/size\libpic32.a(kill.o)
 .reginfo       0x00000000       0x18 c:/users/nukem419/appdata/local/arduino15/packages/chipkit/tools/pic32-tools/1.42-pic32gcc/bin/bin/../../lib/gcc/pic32mx/4.8.3/../../../../pic32mx/lib/size\libpic32.a(kill.o)
 .text          0x00000000        0x0 c:/users/nukem419/appdata/local/arduino15/packages/chipkit/tools/pic32-tools/1.42-pic32gcc/bin/bin/../../lib/gcc/pic32mx/4.8.3/../../../../pic32mx/lib/size\libpic32.a(getpid.o)
 .data          0x00000000        0x0 c:/users/nukem419/appdata/local/arduino15/packages/chipkit/tools/pic32-tools/1.42-pic32gcc/bin/bin/../../lib/gcc/pic32mx/4.8.3/../../../../pic32mx/lib/size\libpic32.a(getpid.o)
 .bss           0x00000000        0x0 c:/users/nukem419/appdata/local/arduino15/packages/chipkit/tools/pic32-tools/1.42-pic32gcc/bin/bin/../../lib/gcc/pic32mx/4.8.3/../../../../pic32mx/lib/size\libpic32.a(getpid.o)
 .reginfo       0x00000000       0x18 c:/users/nukem419/appdata/local/arduino15/packages/chipkit/tools/pic32-tools/1.42-pic32gcc/bin/bin/../../lib/gcc/pic32mx/4.8.3/../../../../pic32mx/lib/size\libpic32.a(getpid.o)
 .text          0x00000000      0x438 c:/users/nukem419/appdata/local/arduino15/packages/chipkit/tools/pic32-tools/1.42-pic32gcc/bin/bin/../../lib/gcc/pic32mx/4.8.3/size\libgcc.a(_udivdi3.o)
 .data          0x00000000        0x0 c:/users/nukem419/appdata/local/arduino15/packages/chipkit/tools/pic32-tools/1.42-pic32gcc/bin/bin/../../lib/gcc/pic32mx/4.8.3/size\libgcc.a(_udivdi3.o)
 .bss           0x00000000        0x0 c:/users/nukem419/appdata/local/arduino15/packages/chipkit/tools/pic32-tools/1.42-pic32gcc/bin/bin/../../lib/gcc/pic32mx/4.8.3/size\libgcc.a(_udivdi3.o)
 .reginfo       0x00000000       0x18 c:/users/nukem419/appdata/local/arduino15/packages/chipkit/tools/pic32-tools/1.42-pic32gcc/bin/bin/../../lib/gcc/pic32mx/4.8.3/size\libgcc.a(_udivdi3.o)
 .text          0x00000000      0x410 c:/users/nukem419/appdata/local/arduino15/packages/chipkit/tools/pic32-tools/1.42-pic32gcc/bin/bin/../../lib/gcc/pic32mx/4.8.3/size\libgcc.a(_umoddi3.o)
 .data          0x00000000        0x0 c:/users/nukem419/appdata/local/arduino15/packages/chipkit/tools/pic32-tools/1.42-pic32gcc/bin/bin/../../lib/gcc/pic32mx/4.8.3/size\libgcc.a(_umoddi3.o)
 .bss           0x00000000        0x0 c:/users/nukem419/appdata/local/arduino15/packages/chipkit/tools/pic32-tools/1.42-pic32gcc/bin/bin/../../lib/gcc/pic32mx/4.8.3/size\libgcc.a(_umoddi3.o)
 .reginfo       0x00000000       0x18 c:/users/nukem419/appdata/local/arduino15/packages/chipkit/tools/pic32-tools/1.42-pic32gcc/bin/bin/../../lib/gcc/pic32mx/4.8.3/size\libgcc.a(_umoddi3.o)

Memory Configuration

Name             Origin             Length             Attributes
exception_mem    0x9d000000         0x00001000
kseg0_program_mem 0x9d001000         0x0007e000         xr
kseg0_eeprom_mem 0x9d07f000         0x00001000
kseg0_boot_mem   0x9fc00490         0x00000000
kseg1_boot_mem   0xbfc00000         0x00000000
debug_exec_mem   0xbfc02000         0x00000000
config3          0xbfc02ff0         0x00000004
config2          0xbfc02ff4         0x00000004
config1          0xbfc02ff8         0x00000004
config0          0xbfc02ffc         0x00000004
kseg1_data_mem   0xa0000000         0x00020000         w !x
sfrs             0xbf800000         0x00100000
configsfrs       0xbfc02ff0         0x00000010
*default*        0x00000000         0xffffffff

Linker script and memory map

                0x00000001                _DEBUGGER = 0x1
LOAD C:\Users\nukem419\AppData\Local\Temp\ccQDZXfk.o
LOAD C:\Users\nukem419\AppData\Local\V.Micro\Arduino\Builds\IREC_2017\chipKIT_chipkit_pic32_fubarino_sd\SD\File.cpp.o
LOAD C:\Users\nukem419\AppData\Local\V.Micro\Arduino\Builds\IREC_2017\chipKIT_chipkit_pic32_fubarino_sd\SD\SD.cpp.o
LOAD C:\Users\nukem419\AppData\Local\V.Micro\Arduino\Builds\IREC_2017\chipKIT_chipkit_pic32_fubarino_sd\SD\utility\Sd2Card.cpp.o
LOAD C:\Users\nukem419\AppData\Local\V.Micro\Arduino\Builds\IREC_2017\chipKIT_chipkit_pic32_fubarino_sd\SD\utility\SdFile.cpp.o
LOAD C:\Users\nukem419\AppData\Local\V.Micro\Arduino\Builds\IREC_2017\chipKIT_chipkit_pic32_fubarino_sd\SD\utility\SdVolume.cpp.o
LOAD C:\Users\nukem419\AppData\Local\V.Micro\Arduino\Builds\IREC_2017\chipKIT_chipkit_pic32_fubarino_sd\Wire\Wire.cpp.o
LOAD C:\Users\nukem419\AppData\Local\V.Micro\Arduino\Builds\IREC_2017\chipKIT_chipkit_pic32_fubarino_sd\IREC_2017.cpp.o
LOAD C:\Users\nukem419\AppData\Local\V.Micro\Arduino\Builds\IREC_2017\chipKIT_chipkit_pic32_fubarino_sd\BMP180.cpp.o
LOAD C:\Users\nukem419\AppData\Local\V.Micro\Arduino\Builds\IREC_2017\chipKIT_chipkit_pic32_fubarino_sd\DataLogger.cpp.o
LOAD C:\Users\nukem419\AppData\Local\V.Micro\Arduino\Builds\IREC_2017\chipKIT_chipkit_pic32_fubarino_sd\EM_506.cpp.o
LOAD C:\Users\nukem419\AppData\Local\V.Micro\Arduino\Builds\IREC_2017\chipKIT_chipkit_pic32_fubarino_sd\L3GD20TR.cpp.o
LOAD C:\Users\nukem419\AppData\Local\V.Micro\Arduino\Builds\IREC_2017\chipKIT_chipkit_pic32_fubarino_sd\LIS331HH.cpp.o
LOAD C:\Users\nukem419\AppData\Local\V.Micro\Arduino\Builds\IREC_2017\chipKIT_chipkit_pic32_fubarino_sd\Parameters.cpp.o
LOAD C:\Users\nukem419\AppData\Local\V.Micro\Arduino\Builds\IREC_2017\chipKIT_chipkit_pic32_fubarino_sd\WSU_mavlink.cpp.o
LOAD C:\Users\nukem419\AppData\Local\V.Micro\Arduino\Builds\IREC_2017\chipKIT_chipkit_pic32_fubarino_sd/core.a
LOAD c:/users/nukem419/appdata/local/arduino15/packages/chipkit/tools/pic32-tools/1.42-pic32gcc/bin/bin/../../lib/gcc/pic32mx/4.8.3/../../../../pic32mx/lib/size\libsupc++.a
LOAD c:/users/nukem419/appdata/local/arduino15/packages/chipkit/tools/pic32-tools/1.42-pic32gcc/bin/bin/../../lib/gcc/pic32mx/4.8.3/../../../../pic32mx/lib/size\libm.a
                0x00000800                PROVIDE (_min_stack_size, 0x800)
                0x00008000                PROVIDE (_min_heap_size, 0x8000)
LOAD c:/users/nukem419/appdata/local/arduino15/packages/chipkit/tools/pic32-tools/1.42-pic32gcc/bin/bin/../../lib/gcc/pic32mx/4.8.3/../../../../pic32mx/lib/./proc/32MX795F512H\processor.o
START GROUP
LOAD libmchp_peripheral_32MX795F512L.a
END GROUP
                0x9d000000                _ebase_address = ORIGIN (exception_mem)
                0x9d0000f8                _IMAGE_PTR_TABLE = (_ebase_address + 0xf8)
                0x9d0000fc                _IMAGE_HEADER_ADDR = (_ebase_address + 0xfc)
                0x9d000180                _GEN_EXCPT_ADDR = (_ebase_address + 0x180)
                0x9d001000                _RESET_ADDR = ORIGIN (kseg0_program_mem)
                0x9d07f000                _EEPROM_ADDR = ORIGIN (kseg0_eeprom_mem)
                0xbfc00380                _BEV_EXCPT_ADDR = 0xbfc00380
                0xbfc00480                _DBG_EXCPT_ADDR = 0xbfc00480
                0xbfc02000                _DBG_CODE_ADDR = ORIGIN (debug_exec_mem)
                0x00000000                _imageReserved = 0x0
                0x00000001                _imageMPIDE = 0x1
                0x00000002                _imageBootFlashBootloader = 0x2
                0x00000004                _imageProgramFlashBootloader = 0x4
                0x00000008                _imageSplitFlashBootloader = 0x8
                0x00010000                _imageFullFlashEraseLess4KEEProm = 0x10000
                0x00020000                _imageJustInTimeFlashErase = 0x20000
                0x00040000                _imageLinkerSpecifiedFlashErase = 0x40000
                0x00080000                _imageFullFlashErase = 0x80000
                0x01000000                _imageExecutionJumpAddress = 0x1000000
                0x02000000                _imageExecutionJumpToFirstInFlash = 0x2000000
                0x01020001                _IMAGE_TYPE = ((_imageMPIDE | _imageJustInTimeFlashErase) | _imageExecutionJumpAddress)
                0x0007f000                _IMAGE_FLASH_SIZE = 0x7f000
                0x9d001000                _JUMP_ADDR = _RESET_ADDR

.reset          0x9d001000        0x8
 *(.reset)
 .reset         0x9d001000        0x8 C:\Users\nukem419\AppData\Local\Temp\ccQDZXfk.o
                0x9d001000                _reset
                0x00000001                PROVIDE (_vector_spacing, 0x1)
LOAD c:/users/nukem419/appdata/local/arduino15/packages/chipkit/tools/pic32-tools/1.42-pic32gcc/bin/bin/../../lib/gcc/pic32mx/4.8.3/size\crtbegin.o
LOAD c:/users/nukem419/appdata/local/arduino15/packages/chipkit/tools/pic32-tools/1.42-pic32gcc/bin/bin/../../lib/gcc/pic32mx/4.8.3/size\crtend.o
LOAD c:/users/nukem419/appdata/local/arduino15/packages/chipkit/tools/pic32-tools/1.42-pic32gcc/bin/bin/../../lib/gcc/pic32mx/4.8.3/size\crtn.o
START GROUP
LOAD libmchp_peripheral.a
END GROUP

/DISCARD/
 *(.config_*)
 *(.bev_handler)
 *(.pdr)
 *(.reginfo)
 *(.rel.dyn)
 *(.note.GNU-stack)
 *(.note.GNU-stack)
 *(.gnu_debuglink)
 *(.gnu.lto_*)
 *(.discard)

.eeprom_pic32
 *(.eeprom_pic32 .eeprom_pic32.*)

.image_ptr_table
                0x9d0000f8        0x8
                0x9d0000f8        0x4 LONG 0x9d000000 _ebase_address
                0x9d0000fc        0x4 LONG 0x9d001640 _image_header_info

.app_excpt      0x9d000180       0x10
 *(.gen_handler)
 .gen_handler   0x9d000180       0x10 C:\Users\nukem419\AppData\Local\Temp\ccQDZXfk.o

.vector_0       0x9d000200       0x14
                0x9d000200                _new_vector_0 = .
 *(.vector_new_0)
 .vector_new_0  0x9d000200       0x14 C:\Users\nukem419\AppData\Local\V.Micro\Arduino\Builds\IREC_2017\chipKIT_chipkit_pic32_fubarino_sd/core.a(vector_table.S.o)
                0x9d000200                __vector_0
                0x9d000214                _original_vector_0 = .
 *(.vector_0)
                0x00000001                ASSERT (((_vector_spacing == 0x0) || (SIZEOF (.vector_0) <= (_vector_spacing << 0x5))), function at exception vector 0 too large)

.vector_1       0x9d000220       0x14
 *(.vector_new_1)
 .vector_new_1  0x9d000220       0x14 C:\Users\nukem419\AppData\Local\V.Micro\Arduino\Builds\IREC_2017\chipKIT_chipkit_pic32_fubarino_sd/core.a(vector_table.S.o)
                0x9d000220                __vector_1
 *(.vector_1)
                0x00000001                ASSERT (((_vector_spacing == 0x0) || (SIZEOF (.vector_1) <= (_vector_spacing << 0x5))), function at exception vector 1 too large)

.vector_2       0x9d000240       0x14
 *(.vector_new_2)
 .vector_new_2  0x9d000240       0x14 C:\Users\nukem419\AppData\Local\V.Micro\Arduino\Builds\IREC_2017\chipKIT_chipkit_pic32_fubarino_sd/core.a(vector_table.S.o)
                0x9d000240                __vector_2
 *(.vector_2)
                0x00000001                ASSERT (((_vector_spacing == 0x0) || (SIZEOF (.vector_2) <= (_vector_spacing << 0x5))), function at exception vector 2 too large)

.vector_3       0x9d000260       0x14
 *(.vector_new_3)
 .vector_new_3  0x9d000260       0x14 C:\Users\nukem419\AppData\Local\V.Micro\Arduino\Builds\IREC_2017\chipKIT_chipkit_pic32_fubarino_sd/core.a(vector_table.S.o)
                0x9d000260                __vector_3
 *(.vector_3)
                0x00000001                ASSERT (((_vector_spacing == 0x0) || (SIZEOF (.vector_3) <= (_vector_spacing << 0x5))), function at exception vector 3 too large)

.vector_4       0x9d000280       0x14
 *(.vector_new_4)
 .vector_new_4  0x9d000280       0x14 C:\Users\nukem419\AppData\Local\V.Micro\Arduino\Builds\IREC_2017\chipKIT_chipkit_pic32_fubarino_sd/core.a(vector_table.S.o)
                0x9d000280                __vector_4
 *(.vector_4)
                0x00000001                ASSERT (((_vector_spacing == 0x0) || (SIZEOF (.vector_4) <= (_vector_spacing << 0x5))), function at exception vector 4 too large)

.vector_5       0x9d0002a0       0x14
 *(.vector_new_5)
 .vector_new_5  0x9d0002a0       0x14 C:\Users\nukem419\AppData\Local\V.Micro\Arduino\Builds\IREC_2017\chipKIT_chipkit_pic32_fubarino_sd/core.a(vector_table.S.o)
                0x9d0002a0                __vector_5
 *(.vector_5)
                0x00000001                ASSERT (((_vector_spacing == 0x0) || (SIZEOF (.vector_5) <= (_vector_spacing << 0x5))), function at exception vector 5 too large)

.vector_6       0x9d0002c0       0x14
 *(.vector_new_6)
 .vector_new_6  0x9d0002c0       0x14 C:\Users\nukem419\AppData\Local\V.Micro\Arduino\Builds\IREC_2017\chipKIT_chipkit_pic32_fubarino_sd/core.a(vector_table.S.o)
                0x9d0002c0                __vector_6
 *(.vector_6)
                0x00000001                ASSERT (((_vector_spacing == 0x0) || (SIZEOF (.vector_6) <= (_vector_spacing << 0x5))), function at exception vector 6 too large)

.vector_7       0x9d0002e0       0x14
 *(.vector_new_7)
 .vector_new_7  0x9d0002e0       0x14 C:\Users\nukem419\AppData\Local\V.Micro\Arduino\Builds\IREC_2017\chipKIT_chipkit_pic32_fubarino_sd/core.a(vector_table.S.o)
                0x9d0002e0                __vector_7
 *(.vector_7)
                0x00000001                ASSERT (((_vector_spacing == 0x0) || (SIZEOF (.vector_7) <= (_vector_spacing << 0x5))), function at exception vector 7 too large)

.vector_8       0x9d000300       0x14
 *(.vector_new_8)
 .vector_new_8  0x9d000300       0x14 C:\Users\nukem419\AppData\Local\V.Micro\Arduino\Builds\IREC_2017\chipKIT_chipkit_pic32_fubarino_sd/core.a(vector_table.S.o)
                0x9d000300                __vector_8
 *(.vector_8)
                0x00000001                ASSERT (((_vector_spacing == 0x0) || (SIZEOF (.vector_8) <= (_vector_spacing << 0x5))), function at exception vector 8 too large)

.vector_9       0x9d000320       0x14
 *(.vector_new_9)
 .vector_new_9  0x9d000320       0x14 C:\Users\nukem419\AppData\Local\V.Micro\Arduino\Builds\IREC_2017\chipKIT_chipkit_pic32_fubarino_sd/core.a(vector_table.S.o)
                0x9d000320                __vector_9
 *(.vector_9)
                0x00000001                ASSERT (((_vector_spacing == 0x0) || (SIZEOF (.vector_9) <= (_vector_spacing << 0x5))), function at exception vector 9 too large)

.vector_10      0x9d000340       0x14
 *(.vector_new_10)
 .vector_new_10
                0x9d000340       0x14 C:\Users\nukem419\AppData\Local\V.Micro\Arduino\Builds\IREC_2017\chipKIT_chipkit_pic32_fubarino_sd/core.a(vector_table.S.o)
                0x9d000340                __vector_10
 *(.vector_10)
                0x00000001                ASSERT (((_vector_spacing == 0x0) || (SIZEOF (.vector_10) <= (_vector_spacing << 0x5))), function at exception vector 10 too large)

.vector_11      0x9d000360       0x14
 *(.vector_new_11)
 .vector_new_11
                0x9d000360       0x14 C:\Users\nukem419\AppData\Local\V.Micro\Arduino\Builds\IREC_2017\chipKIT_chipkit_pic32_fubarino_sd/core.a(vector_table.S.o)
                0x9d000360                __vector_11
 *(.vector_11)
                0x00000001                ASSERT (((_vector_spacing == 0x0) || (SIZEOF (.vector_11) <= (_vector_spacing << 0x5))), function at exception vector 11 too large)

.vector_12      0x9d000380       0x14
 *(.vector_new_12)
 .vector_new_12
                0x9d000380       0x14 C:\Users\nukem419\AppData\Local\V.Micro\Arduino\Builds\IREC_2017\chipKIT_chipkit_pic32_fubarino_sd/core.a(vector_table.S.o)
                0x9d000380                __vector_12
 *(.vector_12)
                0x00000001                ASSERT (((_vector_spacing == 0x0) || (SIZEOF (.vector_12) <= (_vector_spacing << 0x5))), function at exception vector 12 too large)

.vector_13      0x9d0003a0       0x14
 *(.vector_new_13)
 .vector_new_13
                0x9d0003a0       0x14 C:\Users\nukem419\AppData\Local\V.Micro\Arduino\Builds\IREC_2017\chipKIT_chipkit_pic32_fubarino_sd/core.a(vector_table.S.o)
                0x9d0003a0                __vector_13
 *(.vector_13)
                0x00000001                ASSERT (((_vector_spacing == 0x0) || (SIZEOF (.vector_13) <= (_vector_spacing << 0x5))), function at exception vector 13 too large)

.vector_14      0x9d0003c0       0x14
 *(.vector_new_14)
 .vector_new_14
                0x9d0003c0       0x14 C:\Users\nukem419\AppData\Local\V.Micro\Arduino\Builds\IREC_2017\chipKIT_chipkit_pic32_fubarino_sd/core.a(vector_table.S.o)
                0x9d0003c0                __vector_14
 *(.vector_14)
                0x00000001                ASSERT (((_vector_spacing == 0x0) || (SIZEOF (.vector_14) <= (_vector_spacing << 0x5))), function at exception vector 14 too large)

.vector_15      0x9d0003e0       0x14
 *(.vector_new_15)
 .vector_new_15
                0x9d0003e0       0x14 C:\Users\nukem419\AppData\Local\V.Micro\Arduino\Builds\IREC_2017\chipKIT_chipkit_pic32_fubarino_sd/core.a(vector_table.S.o)
                0x9d0003e0                __vector_15
 *(.vector_15)
                0x00000001                ASSERT (((_vector_spacing == 0x0) || (SIZEOF (.vector_15) <= (_vector_spacing << 0x5))), function at exception vector 15 too large)

.vector_16      0x9d000400       0x14
 *(.vector_new_16)
 .vector_new_16
                0x9d000400       0x14 C:\Users\nukem419\AppData\Local\V.Micro\Arduino\Builds\IREC_2017\chipKIT_chipkit_pic32_fubarino_sd/core.a(vector_table.S.o)
                0x9d000400                __vector_16
 *(.vector_16)
                0x00000001                ASSERT (((_vector_spacing == 0x0) || (SIZEOF (.vector_16) <= (_vector_spacing << 0x5))), function at exception vector 16 too large)

.vector_17      0x9d000420       0x14
 *(.vector_new_17)
 .vector_new_17
                0x9d000420       0x14 C:\Users\nukem419\AppData\Local\V.Micro\Arduino\Builds\IREC_2017\chipKIT_chipkit_pic32_fubarino_sd/core.a(vector_table.S.o)
                0x9d000420                __vector_17
 *(.vector_17)
                0x00000001                ASSERT (((_vector_spacing == 0x0) || (SIZEOF (.vector_17) <= (_vector_spacing << 0x5))), function at exception vector 17 too large)

.vector_18      0x9d000440       0x14
 *(.vector_new_18)
 .vector_new_18
                0x9d000440       0x14 C:\Users\nukem419\AppData\Local\V.Micro\Arduino\Builds\IREC_2017\chipKIT_chipkit_pic32_fubarino_sd/core.a(vector_table.S.o)
                0x9d000440                __vector_18
 *(.vector_18)
                0x00000001                ASSERT (((_vector_spacing == 0x0) || (SIZEOF (.vector_18) <= (_vector_spacing << 0x5))), function at exception vector 18 too large)

.vector_19      0x9d000460       0x14
 *(.vector_new_19)
 .vector_new_19
                0x9d000460       0x14 C:\Users\nukem419\AppData\Local\V.Micro\Arduino\Builds\IREC_2017\chipKIT_chipkit_pic32_fubarino_sd/core.a(vector_table.S.o)
                0x9d000460                __vector_19
 *(.vector_19)
                0x00000001                ASSERT (((_vector_spacing == 0x0) || (SIZEOF (.vector_19) <= (_vector_spacing << 0x5))), function at exception vector 19 too large)

.vector_20      0x9d000480       0x14
 *(.vector_new_20)
 .vector_new_20
                0x9d000480       0x14 C:\Users\nukem419\AppData\Local\V.Micro\Arduino\Builds\IREC_2017\chipKIT_chipkit_pic32_fubarino_sd/core.a(vector_table.S.o)
                0x9d000480                __vector_20
 *(.vector_20)
                0x00000001                ASSERT (((_vector_spacing == 0x0) || (SIZEOF (.vector_20) <= (_vector_spacing << 0x5))), function at exception vector 20 too large)

.vector_21      0x9d0004a0       0x14
 *(.vector_new_21)
 .vector_new_21
                0x9d0004a0       0x14 C:\Users\nukem419\AppData\Local\V.Micro\Arduino\Builds\IREC_2017\chipKIT_chipkit_pic32_fubarino_sd/core.a(vector_table.S.o)
                0x9d0004a0                __vector_21
 *(.vector_21)
                0x00000001                ASSERT (((_vector_spacing == 0x0) || (SIZEOF (.vector_21) <= (_vector_spacing << 0x5))), function at exception vector 21 too large)

.vector_22      0x9d0004c0       0x14
 *(.vector_new_22)
 .vector_new_22
                0x9d0004c0       0x14 C:\Users\nukem419\AppData\Local\V.Micro\Arduino\Builds\IREC_2017\chipKIT_chipkit_pic32_fubarino_sd/core.a(vector_table.S.o)
                0x9d0004c0                __vector_22
 *(.vector_22)
                0x00000001                ASSERT (((_vector_spacing == 0x0) || (SIZEOF (.vector_22) <= (_vector_spacing << 0x5))), function at exception vector 22 too large)

.vector_23      0x9d0004e0       0x14
 *(.vector_new_23)
 .vector_new_23
                0x9d0004e0       0x14 C:\Users\nukem419\AppData\Local\V.Micro\Arduino\Builds\IREC_2017\chipKIT_chipkit_pic32_fubarino_sd/core.a(vector_table.S.o)
                0x9d0004e0                __vector_23
 *(.vector_23)
                0x00000001                ASSERT (((_vector_spacing == 0x0) || (SIZEOF (.vector_23) <= (_vector_spacing << 0x5))), function at exception vector 23 too large)

.vector_24      0x9d000500       0x14
 *(.vector_new_24)
 .vector_new_24
                0x9d000500       0x14 C:\Users\nukem419\AppData\Local\V.Micro\Arduino\Builds\IREC_2017\chipKIT_chipkit_pic32_fubarino_sd/core.a(vector_table.S.o)
                0x9d000500                __vector_24
 *(.vector_24)
                0x00000001                ASSERT (((_vector_spacing == 0x0) || (SIZEOF (.vector_24) <= (_vector_spacing << 0x5))), function at exception vector 24 too large)

.vector_25      0x9d000520       0x14
 *(.vector_new_25)
 .vector_new_25
                0x9d000520       0x14 C:\Users\nukem419\AppData\Local\V.Micro\Arduino\Builds\IREC_2017\chipKIT_chipkit_pic32_fubarino_sd/core.a(vector_table.S.o)
                0x9d000520                __vector_25
 *(.vector_25)
                0x00000001                ASSERT (((_vector_spacing == 0x0) || (SIZEOF (.vector_25) <= (_vector_spacing << 0x5))), function at exception vector 25 too large)

.vector_26      0x9d000540       0x14
 *(.vector_new_26)
 .vector_new_26
                0x9d000540       0x14 C:\Users\nukem419\AppData\Local\V.Micro\Arduino\Builds\IREC_2017\chipKIT_chipkit_pic32_fubarino_sd/core.a(vector_table.S.o)
                0x9d000540                __vector_26
 *(.vector_26)
                0x00000001                ASSERT (((_vector_spacing == 0x0) || (SIZEOF (.vector_26) <= (_vector_spacing << 0x5))), function at exception vector 26 too large)

.vector_27      0x9d000560       0x14
 *(.vector_new_27)
 .vector_new_27
                0x9d000560       0x14 C:\Users\nukem419\AppData\Local\V.Micro\Arduino\Builds\IREC_2017\chipKIT_chipkit_pic32_fubarino_sd/core.a(vector_table.S.o)
                0x9d000560                __vector_27
 *(.vector_27)
                0x00000001                ASSERT (((_vector_spacing == 0x0) || (SIZEOF (.vector_27) <= (_vector_spacing << 0x5))), function at exception vector 27 too large)

.vector_28      0x9d000580       0x14
 *(.vector_new_28)
 .vector_new_28
                0x9d000580       0x14 C:\Users\nukem419\AppData\Local\V.Micro\Arduino\Builds\IREC_2017\chipKIT_chipkit_pic32_fubarino_sd/core.a(vector_table.S.o)
                0x9d000580                __vector_28
 *(.vector_28)
                0x00000001                ASSERT (((_vector_spacing == 0x0) || (SIZEOF (.vector_28) <= (_vector_spacing << 0x5))), function at exception vector 28 too large)

.vector_29      0x9d0005a0       0x14
 *(.vector_new_29)
 .vector_new_29
                0x9d0005a0       0x14 C:\Users\nukem419\AppData\Local\V.Micro\Arduino\Builds\IREC_2017\chipKIT_chipkit_pic32_fubarino_sd/core.a(vector_table.S.o)
                0x9d0005a0                __vector_29
 *(.vector_29)
                0x00000001                ASSERT (((_vector_spacing == 0x0) || (SIZEOF (.vector_29) <= (_vector_spacing << 0x5))), function at exception vector 29 too large)

.vector_30      0x9d0005c0       0x14
 *(.vector_new_30)
 .vector_new_30
                0x9d0005c0       0x14 C:\Users\nukem419\AppData\Local\V.Micro\Arduino\Builds\IREC_2017\chipKIT_chipkit_pic32_fubarino_sd/core.a(vector_table.S.o)
                0x9d0005c0                __vector_30
 *(.vector_30)
                0x00000001                ASSERT (((_vector_spacing == 0x0) || (SIZEOF (.vector_30) <= (_vector_spacing << 0x5))), function at exception vector 30 too large)

.vector_31      0x9d0005e0       0x14
 *(.vector_new_31)
 .vector_new_31
                0x9d0005e0       0x14 C:\Users\nukem419\AppData\Local\V.Micro\Arduino\Builds\IREC_2017\chipKIT_chipkit_pic32_fubarino_sd/core.a(vector_table.S.o)
                0x9d0005e0                __vector_31
 *(.vector_31)
                0x00000001                ASSERT (((_vector_spacing == 0x0) || (SIZEOF (.vector_31) <= (_vector_spacing << 0x5))), function at exception vector 31 too large)

.vector_32      0x9d000600       0x14
 *(.vector_new_32)
 .vector_new_32
                0x9d000600       0x14 C:\Users\nukem419\AppData\Local\V.Micro\Arduino\Builds\IREC_2017\chipKIT_chipkit_pic32_fubarino_sd/core.a(vector_table.S.o)
                0x9d000600                __vector_32
 *(.vector_32)
                0x00000001                ASSERT (((_vector_spacing == 0x0) || (SIZEOF (.vector_32) <= (_vector_spacing << 0x5))), function at exception vector 32 too large)

.vector_33      0x9d000620       0x14
 *(.vector_new_33)
 .vector_new_33
                0x9d000620       0x14 C:\Users\nukem419\AppData\Local\V.Micro\Arduino\Builds\IREC_2017\chipKIT_chipkit_pic32_fubarino_sd/core.a(vector_table.S.o)
                0x9d000620                __vector_33
 *(.vector_33)
                0x00000001                ASSERT (((_vector_spacing == 0x0) || (SIZEOF (.vector_33) <= (_vector_spacing << 0x5))), function at exception vector 33 too large)

.vector_34      0x9d000640       0x14
 *(.vector_new_34)
 .vector_new_34
                0x9d000640       0x14 C:\Users\nukem419\AppData\Local\V.Micro\Arduino\Builds\IREC_2017\chipKIT_chipkit_pic32_fubarino_sd/core.a(vector_table.S.o)
                0x9d000640                __vector_34
 *(.vector_34)
                0x00000001                ASSERT (((_vector_spacing == 0x0) || (SIZEOF (.vector_34) <= (_vector_spacing << 0x5))), function at exception vector 34 too large)

.vector_35      0x9d000660       0x14
 *(.vector_new_35)
 .vector_new_35
                0x9d000660       0x14 C:\Users\nukem419\AppData\Local\V.Micro\Arduino\Builds\IREC_2017\chipKIT_chipkit_pic32_fubarino_sd/core.a(vector_table.S.o)
                0x9d000660                __vector_35
 *(.vector_35)
                0x00000001                ASSERT (((_vector_spacing == 0x0) || (SIZEOF (.vector_35) <= (_vector_spacing << 0x5))), function at exception vector 35 too large)

.vector_36      0x9d000680       0x14
 *(.vector_new_36)
 .vector_new_36
                0x9d000680       0x14 C:\Users\nukem419\AppData\Local\V.Micro\Arduino\Builds\IREC_2017\chipKIT_chipkit_pic32_fubarino_sd/core.a(vector_table.S.o)
                0x9d000680                __vector_36
 *(.vector_36)
                0x00000001                ASSERT (((_vector_spacing == 0x0) || (SIZEOF (.vector_36) <= (_vector_spacing << 0x5))), function at exception vector 36 too large)

.vector_37      0x9d0006a0       0x14
 *(.vector_new_37)
 .vector_new_37
                0x9d0006a0       0x14 C:\Users\nukem419\AppData\Local\V.Micro\Arduino\Builds\IREC_2017\chipKIT_chipkit_pic32_fubarino_sd/core.a(vector_table.S.o)
                0x9d0006a0                __vector_37
 *(.vector_37)
                0x00000001                ASSERT (((_vector_spacing == 0x0) || (SIZEOF (.vector_37) <= (_vector_spacing << 0x5))), function at exception vector 37 too large)

.vector_38      0x9d0006c0       0x14
 *(.vector_new_38)
 .vector_new_38
                0x9d0006c0       0x14 C:\Users\nukem419\AppData\Local\V.Micro\Arduino\Builds\IREC_2017\chipKIT_chipkit_pic32_fubarino_sd/core.a(vector_table.S.o)
                0x9d0006c0                __vector_38
 *(.vector_38)
                0x00000001                ASSERT (((_vector_spacing == 0x0) || (SIZEOF (.vector_38) <= (_vector_spacing << 0x5))), function at exception vector 38 too large)

.vector_39      0x9d0006e0       0x14
 *(.vector_new_39)
 .vector_new_39
                0x9d0006e0       0x14 C:\Users\nukem419\AppData\Local\V.Micro\Arduino\Builds\IREC_2017\chipKIT_chipkit_pic32_fubarino_sd/core.a(vector_table.S.o)
                0x9d0006e0                __vector_39
 *(.vector_39)
                0x00000001                ASSERT (((_vector_spacing == 0x0) || (SIZEOF (.vector_39) <= (_vector_spacing << 0x5))), function at exception vector 39 too large)

.vector_40      0x9d000700       0x14
 *(.vector_new_40)
 .vector_new_40
                0x9d000700       0x14 C:\Users\nukem419\AppData\Local\V.Micro\Arduino\Builds\IREC_2017\chipKIT_chipkit_pic32_fubarino_sd/core.a(vector_table.S.o)
                0x9d000700                __vector_40
 *(.vector_40)
                0x00000001                ASSERT (((_vector_spacing == 0x0) || (SIZEOF (.vector_40) <= (_vector_spacing << 0x5))), function at exception vector 40 too large)

.vector_41      0x9d000720       0x14
 *(.vector_new_41)
 .vector_new_41
                0x9d000720       0x14 C:\Users\nukem419\AppData\Local\V.Micro\Arduino\Builds\IREC_2017\chipKIT_chipkit_pic32_fubarino_sd/core.a(vector_table.S.o)
                0x9d000720                __vector_41
 *(.vector_41)
                0x00000001                ASSERT (((_vector_spacing == 0x0) || (SIZEOF (.vector_41) <= (_vector_spacing << 0x5))), function at exception vector 41 too large)

.vector_42      0x9d000740       0x14
 *(.vector_new_42)
 .vector_new_42
                0x9d000740       0x14 C:\Users\nukem419\AppData\Local\V.Micro\Arduino\Builds\IREC_2017\chipKIT_chipkit_pic32_fubarino_sd/core.a(vector_table.S.o)
                0x9d000740                __vector_42
 *(.vector_42)
                0x00000001                ASSERT (((_vector_spacing == 0x0) || (SIZEOF (.vector_42) <= (_vector_spacing << 0x5))), function at exception vector 42 too large)

.vector_43      0x9d000760       0x14
 *(.vector_new_43)
 .vector_new_43
                0x9d000760       0x14 C:\Users\nukem419\AppData\Local\V.Micro\Arduino\Builds\IREC_2017\chipKIT_chipkit_pic32_fubarino_sd/core.a(vector_table.S.o)
                0x9d000760                __vector_43
 *(.vector_43)
                0x00000001                ASSERT (((_vector_spacing == 0x0) || (SIZEOF (.vector_43) <= (_vector_spacing << 0x5))), function at exception vector 43 too large)

.vector_44      0x9d000780       0x14
 *(.vector_new_44)
 .vector_new_44
                0x9d000780       0x14 C:\Users\nukem419\AppData\Local\V.Micro\Arduino\Builds\IREC_2017\chipKIT_chipkit_pic32_fubarino_sd/core.a(vector_table.S.o)
                0x9d000780                __vector_44
 *(.vector_44)
                0x00000001                ASSERT (((_vector_spacing == 0x0) || (SIZEOF (.vector_44) <= (_vector_spacing << 0x5))), function at exception vector 44 too large)

.vector_45      0x9d0007a0       0x1c
 *(.vector_new_45)
 .vector_new_45
                0x9d0007a0       0x14 C:\Users\nukem419\AppData\Local\V.Micro\Arduino\Builds\IREC_2017\chipKIT_chipkit_pic32_fubarino_sd/core.a(vector_table.S.o)
                0x9d0007a0                __vector_45
 *(.vector_45)
 .vector_45     0x9d0007b4        0x8 C:\Users\nukem419\AppData\Local\V.Micro\Arduino\Builds\IREC_2017\chipKIT_chipkit_pic32_fubarino_sd/core.a(HardwareSerial_usb.c.o)
                0x9d0007b4                __vector_dispatch_45
                0x00000001                ASSERT (((_vector_spacing == 0x0) || (SIZEOF (.vector_45) <= (_vector_spacing << 0x5))), function at exception vector 45 too large)

.vector_46      0x9d0007c0       0x14
 *(.vector_new_46)
 .vector_new_46
                0x9d0007c0       0x14 C:\Users\nukem419\AppData\Local\V.Micro\Arduino\Builds\IREC_2017\chipKIT_chipkit_pic32_fubarino_sd/core.a(vector_table.S.o)
                0x9d0007c0                __vector_46
 *(.vector_46)
                0x00000001                ASSERT (((_vector_spacing == 0x0) || (SIZEOF (.vector_46) <= (_vector_spacing << 0x5))), function at exception vector 46 too large)

.vector_47      0x9d0007e0       0x14
 *(.vector_new_47)
 .vector_new_47
                0x9d0007e0       0x14 C:\Users\nukem419\AppData\Local\V.Micro\Arduino\Builds\IREC_2017\chipKIT_chipkit_pic32_fubarino_sd/core.a(vector_table.S.o)
                0x9d0007e0                __vector_47
 *(.vector_47)
                0x00000001                ASSERT (((_vector_spacing == 0x0) || (SIZEOF (.vector_47) <= (_vector_spacing << 0x5))), function at exception vector 47 too large)

.vector_48      0x9d000800       0x14
 *(.vector_new_48)
 .vector_new_48
                0x9d000800       0x14 C:\Users\nukem419\AppData\Local\V.Micro\Arduino\Builds\IREC_2017\chipKIT_chipkit_pic32_fubarino_sd/core.a(vector_table.S.o)
                0x9d000800                __vector_48
 *(.vector_48)
                0x00000001                ASSERT (((_vector_spacing == 0x0) || (SIZEOF (.vector_48) <= (_vector_spacing << 0x5))), function at exception vector 48 too large)

.vector_49      0x9d000820       0x14
 *(.vector_new_49)
 .vector_new_49
                0x9d000820       0x14 C:\Users\nukem419\AppData\Local\V.Micro\Arduino\Builds\IREC_2017\chipKIT_chipkit_pic32_fubarino_sd/core.a(vector_table.S.o)
                0x9d000820                __vector_49
 *(.vector_49)
                0x00000001                ASSERT (((_vector_spacing == 0x0) || (SIZEOF (.vector_49) <= (_vector_spacing << 0x5))), function at exception vector 49 too large)

.vector_50      0x9d000840       0x14
 *(.vector_new_50)
 .vector_new_50
                0x9d000840       0x14 C:\Users\nukem419\AppData\Local\V.Micro\Arduino\Builds\IREC_2017\chipKIT_chipkit_pic32_fubarino_sd/core.a(vector_table.S.o)
                0x9d000840                __vector_50
 *(.vector_50)
                0x00000001                ASSERT (((_vector_spacing == 0x0) || (SIZEOF (.vector_50) <= (_vector_spacing << 0x5))), function at exception vector 50 too large)

.vector_51      0x9d000860       0x14
 *(.vector_new_51)
 .vector_new_51
                0x9d000860       0x14 C:\Users\nukem419\AppData\Local\V.Micro\Arduino\Builds\IREC_2017\chipKIT_chipkit_pic32_fubarino_sd/core.a(vector_table.S.o)
                0x9d000860                __vector_51
 *(.vector_51)
                0x00000001                ASSERT (((_vector_spacing == 0x0) || (SIZEOF (.vector_51) <= (_vector_spacing << 0x5))), function at exception vector 51 too large)

.vector_52      0x9d000880       0x14
 *(.vector_new_52)
 .vector_new_52
                0x9d000880       0x14 C:\Users\nukem419\AppData\Local\V.Micro\Arduino\Builds\IREC_2017\chipKIT_chipkit_pic32_fubarino_sd/core.a(vector_table.S.o)
                0x9d000880                __vector_52
 *(.vector_52)
                0x00000001                ASSERT (((_vector_spacing == 0x0) || (SIZEOF (.vector_52) <= (_vector_spacing << 0x5))), function at exception vector 52 too large)

.vector_53      0x9d0008a0       0x14
 *(.vector_new_53)
 .vector_new_53
                0x9d0008a0       0x14 C:\Users\nukem419\AppData\Local\V.Micro\Arduino\Builds\IREC_2017\chipKIT_chipkit_pic32_fubarino_sd/core.a(vector_table.S.o)
                0x9d0008a0                __vector_53
 *(.vector_53)
                0x00000001                ASSERT (((_vector_spacing == 0x0) || (SIZEOF (.vector_53) <= (_vector_spacing << 0x5))), function at exception vector 53 too large)

.vector_54      0x9d0008c0       0x14
 *(.vector_new_54)
 .vector_new_54
                0x9d0008c0       0x14 C:\Users\nukem419\AppData\Local\V.Micro\Arduino\Builds\IREC_2017\chipKIT_chipkit_pic32_fubarino_sd/core.a(vector_table.S.o)
                0x9d0008c0                __vector_54
 *(.vector_54)
                0x00000001                ASSERT (((_vector_spacing == 0x0) || (SIZEOF (.vector_54) <= (_vector_spacing << 0x5))), function at exception vector 54 too large)

.vector_55      0x9d0008e0       0x14
 *(.vector_new_55)
 .vector_new_55
                0x9d0008e0       0x14 C:\Users\nukem419\AppData\Local\V.Micro\Arduino\Builds\IREC_2017\chipKIT_chipkit_pic32_fubarino_sd/core.a(vector_table.S.o)
                0x9d0008e0                __vector_55
 *(.vector_55)
                0x00000001                ASSERT (((_vector_spacing == 0x0) || (SIZEOF (.vector_55) <= (_vector_spacing << 0x5))), function at exception vector 55 too large)

.vector_56      0x9d000900       0x14
 *(.vector_new_56)
 .vector_new_56
                0x9d000900       0x14 C:\Users\nukem419\AppData\Local\V.Micro\Arduino\Builds\IREC_2017\chipKIT_chipkit_pic32_fubarino_sd/core.a(vector_table.S.o)
                0x9d000900                __vector_56
 *(.vector_56)
                0x00000001                ASSERT (((_vector_spacing == 0x0) || (SIZEOF (.vector_56) <= (_vector_spacing << 0x5))), function at exception vector 56 too large)

.vector_57      0x9d000920       0x14
 *(.vector_new_57)
 .vector_new_57
                0x9d000920       0x14 C:\Users\nukem419\AppData\Local\V.Micro\Arduino\Builds\IREC_2017\chipKIT_chipkit_pic32_fubarino_sd/core.a(vector_table.S.o)
                0x9d000920                __vector_57
 *(.vector_57)
                0x00000001                ASSERT (((_vector_spacing == 0x0) || (SIZEOF (.vector_57) <= (_vector_spacing << 0x5))), function at exception vector 57 too large)

.vector_58      0x9d000940       0x14
 *(.vector_new_58)
 .vector_new_58
                0x9d000940       0x14 C:\Users\nukem419\AppData\Local\V.Micro\Arduino\Builds\IREC_2017\chipKIT_chipkit_pic32_fubarino_sd/core.a(vector_table.S.o)
                0x9d000940                __vector_58
 *(.vector_58)
                0x00000001                ASSERT (((_vector_spacing == 0x0) || (SIZEOF (.vector_58) <= (_vector_spacing << 0x5))), function at exception vector 58 too large)

.vector_59      0x9d000960       0x14
 *(.vector_new_59)
 .vector_new_59
                0x9d000960       0x14 C:\Users\nukem419\AppData\Local\V.Micro\Arduino\Builds\IREC_2017\chipKIT_chipkit_pic32_fubarino_sd/core.a(vector_table.S.o)
                0x9d000960                __vector_59
 *(.vector_59)
                0x00000001                ASSERT (((_vector_spacing == 0x0) || (SIZEOF (.vector_59) <= (_vector_spacing << 0x5))), function at exception vector 59 too large)

.vector_60      0x9d000980       0x14
 *(.vector_new_60)
 .vector_new_60
                0x9d000980       0x14 C:\Users\nukem419\AppData\Local\V.Micro\Arduino\Builds\IREC_2017\chipKIT_chipkit_pic32_fubarino_sd/core.a(vector_table.S.o)
                0x9d000980                __vector_60
 *(.vector_60)
                0x00000001                ASSERT (((_vector_spacing == 0x0) || (SIZEOF (.vector_60) <= (_vector_spacing << 0x5))), function at exception vector 60 too large)

.vector_61      0x9d0009a0       0x14
 *(.vector_new_61)
 .vector_new_61
                0x9d0009a0       0x14 C:\Users\nukem419\AppData\Local\V.Micro\Arduino\Builds\IREC_2017\chipKIT_chipkit_pic32_fubarino_sd/core.a(vector_table.S.o)
                0x9d0009a0                __vector_61
 *(.vector_61)
                0x00000001                ASSERT (((_vector_spacing == 0x0) || (SIZEOF (.vector_61) <= (_vector_spacing << 0x5))), function at exception vector 61 too large)

.vector_62      0x9d0009c0       0x14
 *(.vector_new_62)
 .vector_new_62
                0x9d0009c0       0x14 C:\Users\nukem419\AppData\Local\V.Micro\Arduino\Builds\IREC_2017\chipKIT_chipkit_pic32_fubarino_sd/core.a(vector_table.S.o)
                0x9d0009c0                __vector_62
 *(.vector_62)
                0x00000001                ASSERT (((_vector_spacing == 0x0) || (SIZEOF (.vector_62) <= (_vector_spacing << 0x5))), function at exception vector 62 too large)

.vector_63      0x9d0009e0       0x14
 *(.vector_new_63)
 .vector_new_63
                0x9d0009e0       0x14 C:\Users\nukem419\AppData\Local\V.Micro\Arduino\Builds\IREC_2017\chipKIT_chipkit_pic32_fubarino_sd/core.a(vector_table.S.o)
                0x9d0009e0                __vector_63
 *(.vector_63)
                0x00000001                ASSERT (((_vector_spacing == 0x0) || (SIZEOF (.vector_63) <= (_vector_spacing << 0x5))), function at exception vector 63 too large)

.startup        0x9d001008      0x200
 *(.startup)
 .startup       0x9d001008      0x200 C:\Users\nukem419\AppData\Local\Temp\ccQDZXfk.o

.text           0x9d001208      0x3dc
                0x9d001208                _text_begin = .
 *(.stub .gnu.linkonce.t.*)
 *(.text.*personality*)
 .text.__gxx_personality_sj0
                0x9d001208      0x3dc c:/users/nukem419/appdata/local/arduino15/packages/chipkit/tools/pic32-tools/1.42-pic32gcc/bin/bin/../../lib/gcc/pic32mx/4.8.3/../../../../pic32mx/lib/size\libsupc++.a(eh_personality.o)
                0x9d001208                __gxx_personality_sj0
 *(.mips16.fn.*)
 *(.mips16.call.*)
 *(.gnu.warning)
                0x9d0015e4                . = ALIGN (0x4)

.init           0x9d0015e4       0x24
 *crti.o(.init)
 *crtbegin.o(.init)
 .init          0x9d0015e4        0x8 c:/users/nukem419/appdata/local/arduino15/packages/chipkit/tools/pic32-tools/1.42-pic32gcc/bin/bin/../../lib/gcc/pic32mx/4.8.3/size\crtbegin.o
 *(EXCLUDE_FILE(*crtn.o *crtend?.o *crtend.o) .init)
 .init          0x9d0015ec        0x8 C:\Users\nukem419\AppData\Local\V.Micro\Arduino\Builds\IREC_2017\chipKIT_chipkit_pic32_fubarino_sd/core.a(crti.S.o)
                0x9d0015ec                _init
 *crtend.o(.init)
 .init          0x9d0015f4        0x8 c:/users/nukem419/appdata/local/arduino15/packages/chipkit/tools/pic32-tools/1.42-pic32gcc/bin/bin/../../lib/gcc/pic32mx/4.8.3/size\crtend.o
 *crtn.o(.init)
 .init          0x9d0015fc        0xc c:/users/nukem419/appdata/local/arduino15/packages/chipkit/tools/pic32-tools/1.42-pic32gcc/bin/bin/../../lib/gcc/pic32mx/4.8.3/size\crtn.o
                0x9d001608                . = ALIGN (0x4)

.fini           0x9d001608       0x1c
 *(.fini)
 .fini          0x9d001608        0x8 C:\Users\nukem419\AppData\Local\V.Micro\Arduino\Builds\IREC_2017\chipKIT_chipkit_pic32_fubarino_sd/core.a(crti.S.o)
                0x9d001608                _fini
 .fini          0x9d001610        0x8 c:/users/nukem419/appdata/local/arduino15/packages/chipkit/tools/pic32-tools/1.42-pic32gcc/bin/bin/../../lib/gcc/pic32mx/4.8.3/size\crtbegin.o
 .fini          0x9d001618        0xc c:/users/nukem419/appdata/local/arduino15/packages/chipkit/tools/pic32-tools/1.42-pic32gcc/bin/bin/../../lib/gcc/pic32mx/4.8.3/size\crtn.o
                0x9d001624                . = ALIGN (0x4)

.preinit_array  0x9d001624        0x0
                0x9d001624                PROVIDE (__preinit_array_start, .)
 *(.preinit_array)
                0x9d001624                . = ALIGN (0x4)
                0x9d001624                PROVIDE (__preinit_array_end, .)
 *(.preinit_array)
                0x9d001624                . = ALIGN (0x4)

.init_array     0x9d001624        0x0
                0x9d001624                PROVIDE (__init_array_start, .)
 *(SORT(.init_array.*))
 *(.init_array)
                0x9d001624                . = ALIGN (0x4)
                0x9d001624                PROVIDE (__init_array_end, .)

.fini_array     0x9d001624        0x0
                0x9d001624                PROVIDE (__fini_array_start, .)
 *(SORT(.fini_array.*))
 *(.fini_array)
                0x9d001624                . = ALIGN (0x4)
                0x9d001624                PROVIDE (__fini_array_end, .)

.ctors          0x9d001624       0x14
 *crtbegin.o(.ctors)
 .ctors         0x9d001624        0x4 c:/users/nukem419/appdata/local/arduino15/packages/chipkit/tools/pic32-tools/1.42-pic32gcc/bin/bin/../../lib/gcc/pic32mx/4.8.3/size\crtbegin.o
 *crtbegin?.o(.ctors)
 *(EXCLUDE_FILE(*crtend?.o *crtend.o) .ctors)
 .ctors         0x9d001628        0x4 C:\Users\nukem419\AppData\Local\V.Micro\Arduino\Builds\IREC_2017\chipKIT_chipkit_pic32_fubarino_sd\SD\SD.cpp.o
 .ctors         0x9d00162c        0x4 C:\Users\nukem419\AppData\Local\V.Micro\Arduino\Builds\IREC_2017\chipKIT_chipkit_pic32_fubarino_sd\Wire\Wire.cpp.o
 .ctors         0x9d001630        0x4 C:\Users\nukem419\AppData\Local\V.Micro\Arduino\Builds\IREC_2017\chipKIT_chipkit_pic32_fubarino_sd/core.a(HardwareSerial.cpp.o)
 *(SORT(.ctors.*))
 *(.ctors)
 .ctors         0x9d001634        0x4 c:/users/nukem419/appdata/local/arduino15/packages/chipkit/tools/pic32-tools/1.42-pic32gcc/bin/bin/../../lib/gcc/pic32mx/4.8.3/size\crtend.o
                0x9d001638                . = ALIGN (0x4)

.dtors          0x9d001638        0x8
 *crtbegin.o(.dtors)
 .dtors         0x9d001638        0x4 c:/users/nukem419/appdata/local/arduino15/packages/chipkit/tools/pic32-tools/1.42-pic32gcc/bin/bin/../../lib/gcc/pic32mx/4.8.3/size\crtbegin.o
 *crtbegin?.o(.dtors)
 *(EXCLUDE_FILE(*crtend?.o *crtend.o) .dtors)
 *(SORT(.dtors.*))
 *(.dtors)
 .dtors         0x9d00163c        0x4 c:/users/nukem419/appdata/local/arduino15/packages/chipkit/tools/pic32-tools/1.42-pic32gcc/bin/bin/../../lib/gcc/pic32mx/4.8.3/size\crtend.o
                0x9d00163c                __DTOR_END__
                0x9d001640                . = ALIGN (0x4)

.header_info    0x9d001640       0x4c
                0x9d001640                _image_header_info = .
                0x9d001640        0x4 LONG 0x4c SIZEOF (.header_info)
                0x9d001644        0x4 LONG 0xffffffff
 *(.mpide_version *.mpide_version.*)
 .mpide_version._verMPIDE_Stub
                0x9d001648        0x4 C:\Users\nukem419\AppData\Local\V.Micro\Arduino\Builds\IREC_2017\chipKIT_chipkit_pic32_fubarino_sd/core.a(wiring.c.o)
                0x9d001648                _verMPIDE_Stub
                0x9d00164c        0x4 LONG 0xffffffff
                0x9d001650        0x4 LONG 0xffffffff
                0x9d001654        0x4 LONG 0x1020001 _IMAGE_TYPE
                0x9d001658        0x4 LONG 0x9d001000 _JUMP_ADDR
                0x9d00165c        0x4 LONG 0x9d000000 _ebase_address
                0x9d001660        0x4 LONG 0x7f000 _IMAGE_FLASH_SIZE
                0x9d001664        0x4 LONG 0x9d07f000 ORIGIN (kseg0_eeprom_mem)
                0x9d001668        0x4 LONG 0x1000
                0x9d00166c        0x4 LONG 0xbfc02ff0 ORIGIN (configsfrs)
                0x9d001670        0x4 LONG 0x10
                0x9d001674        0x4 LONG 0xa0000200 _ram_header_addr
                0x9d001678        0x4 LONG 0x8 SIZEOF (.ram_exchange_data)
                0x9d00167c        0x4 LONG 0xffffffff
                0x9d001680        0x4 LONG 0x9d000214 _original_vector_0
                0x9d001684        0x4 LONG 0x9d000200 _new_vector_0
                0x9d001688        0x4 LONG 0x20 (_vector_spacing << 0x5)
                0x9d00168c                _image_header_info_end = .
                0x00000001                ASSERT ((SIZEOF (.header_info) == 0x4c), MPIDE Version not specfied correctly)

.rodata         0x9d00168c      0x18c
 *(.gnu.linkonce.r.*)
 .gnu.linkonce.r._ZTI6Stream._ZTI6Stream
                0x9d00168c        0xc C:\Users\nukem419\AppData\Local\V.Micro\Arduino\Builds\IREC_2017\chipKIT_chipkit_pic32_fubarino_sd\SD\File.cpp.o
                0x9d00168c                typeinfo for Stream
 .gnu.linkonce.r._ZTS6Stream._ZTS6Stream
                0x9d001698        0x8 C:\Users\nukem419\AppData\Local\V.Micro\Arduino\Builds\IREC_2017\chipKIT_chipkit_pic32_fubarino_sd\SD\File.cpp.o
                0x9d001698                typeinfo name for Stream
 .gnu.linkonce.r._ZTS4File._ZTS4File
                0x9d0016a0        0x8 C:\Users\nukem419\AppData\Local\V.Micro\Arduino\Builds\IREC_2017\chipKIT_chipkit_pic32_fubarino_sd\SD\File.cpp.o
                0x9d0016a0                typeinfo name for File
 .gnu.linkonce.r._ZTI4File._ZTI4File
                0x9d0016a8        0xc C:\Users\nukem419\AppData\Local\V.Micro\Arduino\Builds\IREC_2017\chipKIT_chipkit_pic32_fubarino_sd\SD\File.cpp.o
                0x9d0016a8                typeinfo for File
 *fill*         0x9d0016b4        0x4 
 .gnu.linkonce.r._ZTV4File._ZTV4File
                0x9d0016b8       0x20 C:\Users\nukem419\AppData\Local\V.Micro\Arduino\Builds\IREC_2017\chipKIT_chipkit_pic32_fubarino_sd\SD\File.cpp.o
                0x9d0016b8                vtable for File
 .gnu.linkonce.r._ZTS6SdFile._ZTS6SdFile
                0x9d0016d8        0x8 C:\Users\nukem419\AppData\Local\V.Micro\Arduino\Builds\IREC_2017\chipKIT_chipkit_pic32_fubarino_sd\SD\utility\SdFile.cpp.o
                0x9d0016d8                typeinfo name for SdFile
 .gnu.linkonce.r._ZTI6SdFile._ZTI6SdFile
                0x9d0016e0        0xc C:\Users\nukem419\AppData\Local\V.Micro\Arduino\Builds\IREC_2017\chipKIT_chipkit_pic32_fubarino_sd\SD\utility\SdFile.cpp.o
                0x9d0016e0                typeinfo for SdFile
 *fill*         0x9d0016ec        0x4 
 .gnu.linkonce.r._ZTV6SdFile._ZTV6SdFile
                0x9d0016f0       0x10 C:\Users\nukem419\AppData\Local\V.Micro\Arduino\Builds\IREC_2017\chipKIT_chipkit_pic32_fubarino_sd\SD\utility\SdFile.cpp.o
                0x9d0016f0                vtable for SdFile
 .gnu.linkonce.r._ZTS14HardwareSerial._ZTS14HardwareSerial
                0x9d001700       0x14 C:\Users\nukem419\AppData\Local\V.Micro\Arduino\Builds\IREC_2017\chipKIT_chipkit_pic32_fubarino_sd/core.a(HardwareSerial.cpp.o)
                0x9d001700                typeinfo name for HardwareSerial
 .gnu.linkonce.r._ZTI14HardwareSerial._ZTI14HardwareSerial
                0x9d001714        0xc C:\Users\nukem419\AppData\Local\V.Micro\Arduino\Builds\IREC_2017\chipKIT_chipkit_pic32_fubarino_sd/core.a(HardwareSerial.cpp.o)
                0x9d001714                typeinfo for HardwareSerial
 .gnu.linkonce.r._ZTS9USBSerial._ZTS9USBSerial
                0x9d001720        0xc C:\Users\nukem419\AppData\Local\V.Micro\Arduino\Builds\IREC_2017\chipKIT_chipkit_pic32_fubarino_sd/core.a(HardwareSerial.cpp.o)
                0x9d001720                typeinfo name for USBSerial
 .gnu.linkonce.r._ZTI9USBSerial._ZTI9USBSerial
                0x9d00172c        0xc C:\Users\nukem419\AppData\Local\V.Micro\Arduino\Builds\IREC_2017\chipKIT_chipkit_pic32_fubarino_sd/core.a(HardwareSerial.cpp.o)
                0x9d00172c                typeinfo for USBSerial
 .gnu.linkonce.r._ZTV14HardwareSerial._ZTV14HardwareSerial
                0x9d001738       0x28 C:\Users\nukem419\AppData\Local\V.Micro\Arduino\Builds\IREC_2017\chipKIT_chipkit_pic32_fubarino_sd/core.a(HardwareSerial.cpp.o)
                0x9d001738                vtable for HardwareSerial
 .gnu.linkonce.r._ZTV9USBSerial._ZTV9USBSerial
                0x9d001760       0x28 C:\Users\nukem419\AppData\Local\V.Micro\Arduino\Builds\IREC_2017\chipKIT_chipkit_pic32_fubarino_sd/core.a(HardwareSerial.cpp.o)
                0x9d001760                vtable for USBSerial
 .gnu.linkonce.r._ZTS5Print._ZTS5Print
                0x9d001788        0x8 C:\Users\nukem419\AppData\Local\V.Micro\Arduino\Builds\IREC_2017\chipKIT_chipkit_pic32_fubarino_sd/core.a(Print.cpp.o)
                0x9d001788                typeinfo name for Print
 .gnu.linkonce.r._ZTI5Print._ZTI5Print
                0x9d001790        0x8 C:\Users\nukem419\AppData\Local\V.Micro\Arduino\Builds\IREC_2017\chipKIT_chipkit_pic32_fubarino_sd/core.a(Print.cpp.o)
                0x9d001790                typeinfo for Print
 .gnu.linkonce.r._ZTVN10__cxxabiv117__class_type_infoE._ZTVN10__cxxabiv117__class_type_infoE
                0x9d001798       0x30 c:/users/nukem419/appdata/local/arduino15/packages/chipkit/tools/pic32-tools/1.42-pic32gcc/bin/bin/../../lib/gcc/pic32mx/4.8.3/../../../../pic32mx/lib/size\libsupc++.a(class_type_info.o)
                0x9d001798                vtable for __cxxabiv1::__class_type_info
 .gnu.linkonce.r._ZTVN10__cxxabiv120__si_class_type_infoE._ZTVN10__cxxabiv120__si_class_type_infoE
                0x9d0017c8       0x30 c:/users/nukem419/appdata/local/arduino15/packages/chipkit/tools/pic32-tools/1.42-pic32gcc/bin/bin/../../lib/gcc/pic32mx/4.8.3/../../../../pic32mx/lib/size\libsupc++.a(si_class_type_info.o)
                0x9d0017c8                vtable for __cxxabiv1::__si_class_type_info
 .gnu.linkonce.r._ZTVSt9type_info._ZTVSt9type_info
                0x9d0017f8       0x20 c:/users/nukem419/appdata/local/arduino15/packages/chipkit/tools/pic32-tools/1.42-pic32gcc/bin/bin/../../lib/gcc/pic32mx/4.8.3/../../../../pic32mx/lib/size\libsupc++.a(tinfo.o)
                0x9d0017f8                vtable for std::type_info
 *(.rodata1)
                0x9d001818                . = ALIGN (0x4)

.sdata2         0x9d001818        0x0
 *(.sdata2 .sdata2.* .gnu.linkonce.s2.*)
                0x9d001818                . = ALIGN (0x4)

.sbss2          0x9d001818        0x0
 *(.sbss2 .sbss2.* .gnu.linkonce.sb2.*)
                0x9d001818                . = ALIGN (0x4)

.dbg_data       0xa0000000      0x200
                0xa0000000                . = (. + DEFINED (_DEBUGGER)?0x200:0x0)
 *fill*         0xa0000000      0x200 

.ram_exchange_data
                0xa0000200        0x8
                0xa0000200                _ram_header_addr = .
                0xa0000208                . = (. + 0x8)
 *fill*         0xa0000200        0x8 

.persist        0xa0000208        0x0
                0xa0000208                _persist_begin = .
 *(.persist .persist.*)
                0xa0000208                . = ALIGN (0x4)
                0xa0000208                _persist_end = .
                0x00000001                ASSERT ((_persist_end <= (ORIGIN (kseg1_data_mem) + 0x600)), Bootloader does not preserve debug, RAM Header, or persistent data beyond the first 1.5K)
                0xa0000208                _protected_end = ((_IMAGE_TYPE & ((_imageSplitFlashBootloader | _imageProgramFlashBootloader) | _imageBootFlashBootloader)) != 0x0)?(ORIGIN (kseg1_data_mem) + 0x600):.

.protected_bootloader
                0xa0000000        0x0
                0xa0000000                . = (. + ((_IMAGE_TYPE & ((_imageSplitFlashBootloader | _imageProgramFlashBootloader) | _imageBootFlashBootloader)) != 0x0)?(ORIGIN (kseg1_data_mem) + 0x600):0x0)

.data           0xa0000208        0x4
                0xa0000208                _data_begin = .
 *(.gnu.linkonce.d.*)
 .gnu.linkonce.d.DW.ref.__gxx_personality_sj0.DW.ref.__gxx_personality_sj0
                0xa0000208        0x4 C:\Users\nukem419\AppData\Local\V.Micro\Arduino\Builds\IREC_2017\chipKIT_chipkit_pic32_fubarino_sd\IREC_2017.cpp.o
                0xa0000208                DW.ref.__gxx_personality_sj0
 *(.gnu.linkonce.d.*personality*)
 *(.data1)
                0xa000020c                . = ALIGN (0x4)
                0xa0000208                _data_image_begin = LOADADDR (.data)
                0xa000020c                . = .
                0xa0008200                _gp = (ALIGN (0x10) + 0x7ff0)

.got
 *(.got.plt)
 *(.got)

.sdata          0xa000020c       0x28
                0xa000020c                _sdata_begin = .
 *(.sdata .sdata.* .gnu.linkonce.s.*)
 .sdata._ZN8SdVolume17cacheBlockNumber_E.cacheBlockNumber_
                0xa000020c        0x4 C:\Users\nukem419\AppData\Local\V.Micro\Arduino\Builds\IREC_2017\chipKIT_chipkit_pic32_fubarino_sd\SD\utility\SdVolume.cpp.o
                0xa000020c                SdVolume::cacheBlockNumber_
 .sdata._ZL11iSessionCur.iSessionCur
                0xa0000210        0x4 C:\Users\nukem419\AppData\Local\V.Micro\Arduino\Builds\IREC_2017\chipKIT_chipkit_pic32_fubarino_sd\Wire\Wire.cpp.o
 .sdata.CTSpin.CTSpin
                0xa0000214        0x1 C:\Users\nukem419\AppData\Local\V.Micro\Arduino\Builds\IREC_2017\chipKIT_chipkit_pic32_fubarino_sd\IREC_2017.cpp.o
                0xa0000214                CTSpin
 *fill*         0xa0000215        0x3 
 .sdata.mavlink_system.mavlink_system
                0xa0000218        0x4 C:\Users\nukem419\AppData\Local\V.Micro\Arduino\Builds\IREC_2017\chipKIT_chipkit_pic32_fubarino_sd\IREC_2017.cpp.o
                0xa0000218                mavlink_system
 .sdata.line_coding.line_coding
                0xa000021c        0x8 C:\Users\nukem419\AppData\Local\V.Micro\Arduino\Builds\IREC_2017\chipKIT_chipkit_pic32_fubarino_sd/core.a(HardwareSerial_cdcacm.c.o)
 .sdata._pwmPeriod._pwmPeriod
                0xa0000224        0x4 C:\Users\nukem419\AppData\Local\V.Micro\Arduino\Builds\IREC_2017\chipKIT_chipkit_pic32_fubarino_sd/core.a(wiring_analog.c.o)
 .sdata._pwmResolution._pwmResolution
                0xa0000228        0x4 C:\Users\nukem419\AppData\Local\V.Micro\Arduino\Builds\IREC_2017\chipKIT_chipkit_pic32_fubarino_sd/core.a(wiring_analog.c.o)
 .sdata._pwmFrequency._pwmFrequency
                0xa000022c        0x4 C:\Users\nukem419\AppData\Local\V.Micro\Arduino\Builds\IREC_2017\chipKIT_chipkit_pic32_fubarino_sd/core.a(wiring_analog.c.o)
 .sdata         0xa0000230        0x4 c:/users/nukem419/appdata/local/arduino15/packages/chipkit/tools/pic32-tools/1.42-pic32gcc/bin/bin/../../lib/gcc/pic32mx/4.8.3/size\crtbegin.o
                0xa0000230                __dso_handle
                0xa0000234                . = ALIGN (0x4)
                0xa0000234                _sdata_end = .

.lit8           0xa0000234        0x0
 *(.lit8)
                0xa0000234                . = ALIGN (0x4)

.lit4
 *(.lit4)
                0xa0000234                . = ALIGN (0x4)
                0xa0000234                _data_end = .
                0xa0000234                _bss_begin = .

.sbss           0xa0000234       0xdc
                0xa0000234                _sbss_begin = .
 *(.dynsbss)
 *(.sbss .sbss.* .gnu.linkonce.sb.*)
 .sbss._ZN6SdFile12oldDateTime_E.oldDateTime_
                0xa0000234        0x4 C:\Users\nukem419\AppData\Local\V.Micro\Arduino\Builds\IREC_2017\chipKIT_chipkit_pic32_fubarino_sd\SD\utility\SdFile.cpp.o
                0xa0000234                SdFile::oldDateTime_
 .sbss._ZN6SdFile9dateTime_E.dateTime_
                0xa0000238        0x4 C:\Users\nukem419\AppData\Local\V.Micro\Arduino\Builds\IREC_2017\chipKIT_chipkit_pic32_fubarino_sd\SD\utility\SdFile.cpp.o
                0xa0000238                SdFile::dateTime_
 .sbss._ZN8SdVolume17cacheMirrorBlock_E.cacheMirrorBlock_
                0xa000023c        0x4 C:\Users\nukem419\AppData\Local\V.Micro\Arduino\Builds\IREC_2017\chipKIT_chipkit_pic32_fubarino_sd\SD\utility\SdVolume.cpp.o
                0xa000023c                SdVolume::cacheMirrorBlock_
 .sbss._ZN8SdVolume11cacheDirty_E.cacheDirty_
                0xa0000240        0x1 C:\Users\nukem419\AppData\Local\V.Micro\Arduino\Builds\IREC_2017\chipKIT_chipkit_pic32_fubarino_sd\SD\utility\SdVolume.cpp.o
                0xa0000240                SdVolume::cacheDirty_
 *fill*         0xa0000241        0x3 
 .sbss._ZN8SdVolume7sdCard_E.sdCard_
                0xa0000244        0x4 C:\Users\nukem419\AppData\Local\V.Micro\Arduino\Builds\IREC_2017\chipKIT_chipkit_pic32_fubarino_sd\SD\utility\SdVolume.cpp.o
                0xa0000244                SdVolume::sdCard_
 .sbss._ZL17onRequestServiceR.onRequestServiceR
                0xa0000248        0x4 C:\Users\nukem419\AppData\Local\V.Micro\Arduino\Builds\IREC_2017\chipKIT_chipkit_pic32_fubarino_sd\Wire\Wire.cpp.o
 .sbss._ZL17onReceiveServiceR.onReceiveServiceR
                0xa000024c        0x4 C:\Users\nukem419\AppData\Local\V.Micro\Arduino\Builds\IREC_2017\chipKIT_chipkit_pic32_fubarino_sd\Wire\Wire.cpp.o
 .sbss._ZN7TwoWire10beginCountE.beginCount
                0xa0000250        0x4 C:\Users\nukem419\AppData\Local\V.Micro\Arduino\Builds\IREC_2017\chipKIT_chipkit_pic32_fubarino_sd\Wire\Wire.cpp.o
                0xa0000250                TwoWire::beginCount
 .sbss._ZN7TwoWire14user_onReceiveE.user_onReceive
                0xa0000254        0x4 C:\Users\nukem419\AppData\Local\V.Micro\Arduino\Builds\IREC_2017\chipKIT_chipkit_pic32_fubarino_sd\Wire\Wire.cpp.o
                0xa0000254                TwoWire::user_onReceive
 .sbss._ZN7TwoWire14user_onRequestE.user_onRequest
                0xa0000258        0x4 C:\Users\nukem419\AppData\Local\V.Micro\Arduino\Builds\IREC_2017\chipKIT_chipkit_pic32_fubarino_sd\Wire\Wire.cpp.o
                0xa0000258                TwoWire::user_onRequest
 .sbss._ZN7TwoWire12transmittingE.transmitting
                0xa000025c        0x1 C:\Users\nukem419\AppData\Local\V.Micro\Arduino\Builds\IREC_2017\chipKIT_chipkit_pic32_fubarino_sd\Wire\Wire.cpp.o
                0xa000025c                TwoWire::transmitting
 .sbss._ZN7TwoWire14txBufferLengthE.txBufferLength
                0xa000025d        0x1 C:\Users\nukem419\AppData\Local\V.Micro\Arduino\Builds\IREC_2017\chipKIT_chipkit_pic32_fubarino_sd\Wire\Wire.cpp.o
                0xa000025d                TwoWire::txBufferLength
 .sbss._ZN7TwoWire13txBufferIndexE.txBufferIndex
                0xa000025e        0x1 C:\Users\nukem419\AppData\Local\V.Micro\Arduino\Builds\IREC_2017\chipKIT_chipkit_pic32_fubarino_sd\Wire\Wire.cpp.o
                0xa000025e                TwoWire::txBufferIndex
 .sbss._ZN7TwoWire9txAddressE.txAddress
                0xa000025f        0x1 C:\Users\nukem419\AppData\Local\V.Micro\Arduino\Builds\IREC_2017\chipKIT_chipkit_pic32_fubarino_sd\Wire\Wire.cpp.o
                0xa000025f                TwoWire::txAddress
 .sbss._ZN7TwoWire14rxBufferLengthE.rxBufferLength
                0xa0000260        0x1 C:\Users\nukem419\AppData\Local\V.Micro\Arduino\Builds\IREC_2017\chipKIT_chipkit_pic32_fubarino_sd\Wire\Wire.cpp.o
                0xa0000260                TwoWire::rxBufferLength
 .sbss._ZN7TwoWire13rxBufferIndexE.rxBufferIndex
                0xa0000261        0x1 C:\Users\nukem419\AppData\Local\V.Micro\Arduino\Builds\IREC_2017\chipKIT_chipkit_pic32_fubarino_sd\Wire\Wire.cpp.o
                0xa0000261                TwoWire::rxBufferIndex
 *fill*         0xa0000262        0x2 
 .sbss.Wire.Wire
                0xa0000264        0x4 C:\Users\nukem419\AppData\Local\V.Micro\Arduino\Builds\IREC_2017\chipKIT_chipkit_pic32_fubarino_sd\Wire\Wire.cpp.o
                0xa0000264                Wire
 .sbss._ZN5DTWI16pDTWI1E.pDTWI1
                0xa0000268        0x4 C:\Users\nukem419\AppData\Local\V.Micro\Arduino\Builds\IREC_2017\chipKIT_chipkit_pic32_fubarino_sd\Wire\Wire.cpp.o
                0xa0000268                DTWI1::pDTWI1
 .sbss._ZN5DTWI06pDTWI0E.pDTWI0
                0xa000026c        0x4 C:\Users\nukem419\AppData\Local\V.Micro\Arduino\Builds\IREC_2017\chipKIT_chipkit_pic32_fubarino_sd\Wire\Wire.cpp.o
                0xa000026c                DTWI0::pDTWI0
 .sbss.serial_buffer_length.serial_buffer_length
                0xa0000270        0x2 C:\Users\nukem419\AppData\Local\V.Micro\Arduino\Builds\IREC_2017\chipKIT_chipkit_pic32_fubarino_sd\IREC_2017.cpp.o
                0xa0000270                serial_buffer_length
 *fill*         0xa0000272        0x2 
 .sbss.tmsLastEvent.tmsLastEvent
                0xa0000274        0x4 C:\Users\nukem419\AppData\Local\V.Micro\Arduino\Builds\IREC_2017\chipKIT_chipkit_pic32_fubarino_sd/core.a(task_manager.c.o)
 .sbss.tmsNextEvent.tmsNextEvent
                0xa0000278        0x4 C:\Users\nukem419\AppData\Local\V.Micro\Arduino\Builds\IREC_2017\chipKIT_chipkit_pic32_fubarino_sd/core.a(task_manager.c.o)
 .sbss.cntActiveTask.cntActiveTask
                0xa000027c        0x4 C:\Users\nukem419\AppData\Local\V.Micro\Arduino\Builds\IREC_2017\chipKIT_chipkit_pic32_fubarino_sd/core.a(task_manager.c.o)
 .sbss.nextInt.18705.nextInt
                0xa0000280        0x4 C:\Users\nukem419\AppData\Local\V.Micro\Arduino\Builds\IREC_2017\chipKIT_chipkit_pic32_fubarino_sd/core.a(wiring.c.o)
 .sbss.gLastBaseCount.gLastBaseCount
                0xa0000284        0x4 C:\Users\nukem419\AppData\Local\V.Micro\Arduino\Builds\IREC_2017\chipKIT_chipkit_pic32_fubarino_sd/core.a(wiring.c.o)
 .sbss.ppsGlobalLock.ppsGlobalLock
                0xa0000288        0x1 C:\Users\nukem419\AppData\Local\V.Micro\Arduino\Builds\IREC_2017\chipKIT_chipkit_pic32_fubarino_sd/core.a(wiring.c.o)
                0xa0000288                ppsGlobalLock
 *fill*         0xa0000289        0x3 
 .sbss.gSoftPWMServoUpdate.gSoftPWMServoUpdate
                0xa000028c        0x4 C:\Users\nukem419\AppData\Local\V.Micro\Arduino\Builds\IREC_2017\chipKIT_chipkit_pic32_fubarino_sd/core.a(wiring.c.o)
                0xa000028c                gSoftPWMServoUpdate
 .sbss.gMicros_calculating.gMicros_calculating
                0xa0000290        0x4 C:\Users\nukem419\AppData\Local\V.Micro\Arduino\Builds\IREC_2017\chipKIT_chipkit_pic32_fubarino_sd/core.a(wiring.c.o)
                0xa0000290                gMicros_calculating
 .sbss.gCore_timer_first_val.gCore_timer_first_val
                0xa0000294        0x4 C:\Users\nukem419\AppData\Local\V.Micro\Arduino\Builds\IREC_2017\chipKIT_chipkit_pic32_fubarino_sd/core.a(wiring.c.o)
                0xa0000294                gCore_timer_first_val
 .sbss.gMicros_overflows.gMicros_overflows
                0xa0000298        0x4 C:\Users\nukem419\AppData\Local\V.Micro\Arduino\Builds\IREC_2017\chipKIT_chipkit_pic32_fubarino_sd/core.a(wiring.c.o)
                0xa0000298                gMicros_overflows
 .sbss.gCore_timer_micros.gCore_timer_micros
                0xa000029c        0x4 C:\Users\nukem419\AppData\Local\V.Micro\Arduino\Builds\IREC_2017\chipKIT_chipkit_pic32_fubarino_sd/core.a(wiring.c.o)
                0xa000029c                gCore_timer_micros
 .sbss.gCore_timer_last_val.gCore_timer_last_val
                0xa00002a0        0x4 C:\Users\nukem419\AppData\Local\V.Micro\Arduino\Builds\IREC_2017\chipKIT_chipkit_pic32_fubarino_sd/core.a(wiring.c.o)
                0xa00002a0                gCore_timer_last_val
 .sbss.gTimer0_millis.gTimer0_millis
                0xa00002a4        0x4 C:\Users\nukem419\AppData\Local\V.Micro\Arduino\Builds\IREC_2017\chipKIT_chipkit_pic32_fubarino_sd/core.a(wiring.c.o)
                0xa00002a4                gTimer0_millis
 .sbss._ZZN6StringixEjE19dummy_writable_char.dummy_writable_char
                0xa00002a8        0x1 C:\Users\nukem419\AppData\Local\V.Micro\Arduino\Builds\IREC_2017\chipKIT_chipkit_pic32_fubarino_sd/core.a(WString.cpp.o)
 .sbss.gWaiting.gWaiting
                0xa00002a9        0x1 C:\Users\nukem419\AppData\Local\V.Micro\Arduino\Builds\IREC_2017\chipKIT_chipkit_pic32_fubarino_sd/core.a(HardwareSerial_cdcacm.c.o)
 .sbss.gRX_out.gRX_out
                0xa00002aa        0x1 C:\Users\nukem419\AppData\Local\V.Micro\Arduino\Builds\IREC_2017\chipKIT_chipkit_pic32_fubarino_sd/core.a(HardwareSerial_cdcacm.c.o)
 .sbss.gRX_in.gRX_in
                0xa00002ab        0x1 C:\Users\nukem419\AppData\Local\V.Micro\Arduino\Builds\IREC_2017\chipKIT_chipkit_pic32_fubarino_sd/core.a(HardwareSerial_cdcacm.c.o)
 .sbss.gStoredata_cbfn.gStoredata_cbfn
                0xa00002ac        0x4 C:\Users\nukem419\AppData\Local\V.Micro\Arduino\Builds\IREC_2017\chipKIT_chipkit_pic32_fubarino_sd/core.a(HardwareSerial_cdcacm.c.o)
 .sbss.gReset_cbfn.gReset_cbfn
                0xa00002b0        0x4 C:\Users\nukem419\AppData\Local\V.Micro\Arduino\Builds\IREC_2017\chipKIT_chipkit_pic32_fubarino_sd/core.a(HardwareSerial_cdcacm.c.o)
 .sbss.gCdcacm_active.gCdcacm_active
                0xa00002b4        0x1 C:\Users\nukem419\AppData\Local\V.Micro\Arduino\Builds\IREC_2017\chipKIT_chipkit_pic32_fubarino_sd/core.a(HardwareSerial_cdcacm.c.o)
                0xa00002b4                gCdcacm_active
 *fill*         0xa00002b5        0x3 
 .sbss.cdcacm_string_descriptor.cdcacm_string_descriptor
                0xa00002b8        0x4 C:\Users\nukem419\AppData\Local\V.Micro\Arduino\Builds\IREC_2017\chipKIT_chipkit_pic32_fubarino_sd/core.a(HardwareSerial_cdcacm.c.o)
 .sbss.next_address.next_address
                0xa00002bc        0x1 C:\Users\nukem419\AppData\Local\V.Micro\Arduino\Builds\IREC_2017\chipKIT_chipkit_pic32_fubarino_sd/core.a(HardwareSerial_usb.c.o)
 *fill*         0xa00002bd        0x3 
 .sbss.setup_buffer.setup_buffer
                0xa00002c0        0x8 C:\Users\nukem419\AppData\Local\V.Micro\Arduino\Builds\IREC_2017\chipKIT_chipkit_pic32_fubarino_sd/core.a(HardwareSerial_usb.c.o)
 .sbss.gBulk_transfer_cbfn.gBulk_transfer_cbfn
                0xa00002c8        0x4 C:\Users\nukem419\AppData\Local\V.Micro\Arduino\Builds\IREC_2017\chipKIT_chipkit_pic32_fubarino_sd/core.a(HardwareSerial_usb.c.o)
 .sbss.gControl_transfer_cbfn.gControl_transfer_cbfn
                0xa00002cc        0x4 C:\Users\nukem419\AppData\Local\V.Micro\Arduino\Builds\IREC_2017\chipKIT_chipkit_pic32_fubarino_sd/core.a(HardwareSerial_usb.c.o)
 .sbss.gReset_cbfn.gReset_cbfn
                0xa00002d0        0x4 C:\Users\nukem419\AppData\Local\V.Micro\Arduino\Builds\IREC_2017\chipKIT_chipkit_pic32_fubarino_sd/core.a(HardwareSerial_usb.c.o)
 .sbss.string_descriptor_length.string_descriptor_length
                0xa00002d4        0x4 C:\Users\nukem419\AppData\Local\V.Micro\Arduino\Builds\IREC_2017\chipKIT_chipkit_pic32_fubarino_sd/core.a(HardwareSerial_usb.c.o)
 .sbss.string_descriptor.string_descriptor
                0xa00002d8        0x4 C:\Users\nukem419\AppData\Local\V.Micro\Arduino\Builds\IREC_2017\chipKIT_chipkit_pic32_fubarino_sd/core.a(HardwareSerial_usb.c.o)
 .sbss.configuration_descriptor_length.configuration_descriptor_length
                0xa00002dc        0x4 C:\Users\nukem419\AppData\Local\V.Micro\Arduino\Builds\IREC_2017\chipKIT_chipkit_pic32_fubarino_sd/core.a(HardwareSerial_usb.c.o)
 .sbss.configuration_descriptor.configuration_descriptor
                0xa00002e0        0x4 C:\Users\nukem419\AppData\Local\V.Micro\Arduino\Builds\IREC_2017\chipKIT_chipkit_pic32_fubarino_sd/core.a(HardwareSerial_usb.c.o)
 .sbss.device_descriptor_length.device_descriptor_length
                0xa00002e4        0x4 C:\Users\nukem419\AppData\Local\V.Micro\Arduino\Builds\IREC_2017\chipKIT_chipkit_pic32_fubarino_sd/core.a(HardwareSerial_usb.c.o)
 .sbss.device_descriptor.device_descriptor
                0xa00002e8        0x4 C:\Users\nukem419\AppData\Local\V.Micro\Arduino\Builds\IREC_2017\chipKIT_chipkit_pic32_fubarino_sd/core.a(HardwareSerial_usb.c.o)
 .sbss.bdts.bdts
                0xa00002ec        0x4 C:\Users\nukem419\AppData\Local\V.Micro\Arduino\Builds\IREC_2017\chipKIT_chipkit_pic32_fubarino_sd/core.a(HardwareSerial_usb.c.o)
 .sbss.pwm_active.pwm_active
                0xa00002f0        0x2 C:\Users\nukem419\AppData\Local\V.Micro\Arduino\Builds\IREC_2017\chipKIT_chipkit_pic32_fubarino_sd/core.a(wiring_analog.c.o)
                0xa00002f0                pwm_active
 *fill*         0xa00002f2        0x2 
 .sbss.analog_reference.analog_reference
                0xa00002f4        0x4 C:\Users\nukem419\AppData\Local\V.Micro\Arduino\Builds\IREC_2017\chipKIT_chipkit_pic32_fubarino_sd/core.a(wiring_analog.c.o)
                0xa00002f4                analog_reference
 *(.scommon)
 .scommon       0xa00002f8        0x4 C:\Users\nukem419\AppData\Local\V.Micro\Arduino\Builds\IREC_2017\chipKIT_chipkit_pic32_fubarino_sd/core.a(wiring.c.o)
                0xa00002f8                __PIC32_pbClk
 .scommon       0xa00002fc       0x10 C:\Users\nukem419\AppData\Local\V.Micro\Arduino\Builds\IREC_2017\chipKIT_chipkit_pic32_fubarino_sd/core.a(HardwareSerial_usb.c.o)
                0xa00002fc                scsi_attached_count
                0xa0000300                bulk_out_ep
                0xa0000301                int_ep
                0xa0000302                other_attached
                0xa0000304                gCdcacm_attached_count
                0xa0000308                gCdcacm_attached
                0xa0000309                scsi_attached
                0xa000030a                cdc_attached
                0xa000030b                bulk_in_ep
 .scommon       0xa000030c        0x1 C:\Users\nukem419\AppData\Local\V.Micro\Arduino\Builds\IREC_2017\chipKIT_chipkit_pic32_fubarino_sd/core.a(wiring_analog.c.o)
                0xa000030c                _analogRead_channelNumber
                0xa0000310                . = ALIGN (0x4)
 *fill*         0xa000030d        0x3 
                0xa0000310                _sbss_end = .

.bss            0xa0000310      0x180
 *(.dynbss)
 *(.gnu.linkonce.b.*)
 *(COMMON)
 COMMON         0xa0000310      0x180 C:\Users\nukem419\AppData\Local\V.Micro\Arduino\Builds\IREC_2017\chipKIT_chipkit_pic32_fubarino_sd/core.a(HardwareSerial_usb.c.o)
                0xa0000310                endpoints
                0xa0000490                . = ALIGN (0x4)
                0xa0000490                . = ALIGN (0x4)
                0xa0000490                _end = .
                0xa0000490                _bss_end = .
                0x00020000                _bmxdudba_address = 0x20000
                0x00020000                _bmxdupba_address = 0x20000

.gcc_compiled_long32
 *(.gcc_compiled_long32)

.gcc_compiled_long64
 *(.gcc_compiled_long64)

.stab
 *(.stab)

.stabstr
 *(.stabstr)

.stab.excl
 *(.stab.excl)

.stab.exclstr
 *(.stab.exclstr)

.stab.index
 *(.stab.index)

.stab.indexstr
 *(.stab.indexstr)

.comment        0x00000000       0x86
 *(.comment)
 .comment       0x00000000       0x3b C:\Users\nukem419\AppData\Local\V.Micro\Arduino\Builds\IREC_2017\chipKIT_chipkit_pic32_fubarino_sd\SD\File.cpp.o
                                 0x3c (size before relaxing)
 .comment       0x00000000       0x3c C:\Users\nukem419\AppData\Local\V.Micro\Arduino\Builds\IREC_2017\chipKIT_chipkit_pic32_fubarino_sd\SD\SD.cpp.o
 .comment       0x00000000       0x3c C:\Users\nukem419\AppData\Local\V.Micro\Arduino\Builds\IREC_2017\chipKIT_chipkit_pic32_fubarino_sd\SD\utility\Sd2Card.cpp.o
 .comment       0x00000000       0x3c C:\Users\nukem419\AppData\Local\V.Micro\Arduino\Builds\IREC_2017\chipKIT_chipkit_pic32_fubarino_sd\SD\utility\SdFile.cpp.o
 .comment       0x00000000       0x3c C:\Users\nukem419\AppData\Local\V.Micro\Arduino\Builds\IREC_2017\chipKIT_chipkit_pic32_fubarino_sd\SD\utility\SdVolume.cpp.o
 .comment       0x00000000       0x3c C:\Users\nukem419\AppData\Local\V.Micro\Arduino\Builds\IREC_2017\chipKIT_chipkit_pic32_fubarino_sd\Wire\Wire.cpp.o
 .comment       0x00000000       0x3c C:\Users\nukem419\AppData\Local\V.Micro\Arduino\Builds\IREC_2017\chipKIT_chipkit_pic32_fubarino_sd\IREC_2017.cpp.o
 .comment       0x00000000       0x3c C:\Users\nukem419\AppData\Local\V.Micro\Arduino\Builds\IREC_2017\chipKIT_chipkit_pic32_fubarino_sd\BMP180.cpp.o
 .comment       0x00000000       0x3c C:\Users\nukem419\AppData\Local\V.Micro\Arduino\Builds\IREC_2017\chipKIT_chipkit_pic32_fubarino_sd\DataLogger.cpp.o
 .comment       0x00000000       0x3c C:\Users\nukem419\AppData\Local\V.Micro\Arduino\Builds\IREC_2017\chipKIT_chipkit_pic32_fubarino_sd\EM_506.cpp.o
 .comment       0x00000000       0x3c C:\Users\nukem419\AppData\Local\V.Micro\Arduino\Builds\IREC_2017\chipKIT_chipkit_pic32_fubarino_sd\L3GD20TR.cpp.o
 .comment       0x00000000       0x3c C:\Users\nukem419\AppData\Local\V.Micro\Arduino\Builds\IREC_2017\chipKIT_chipkit_pic32_fubarino_sd\LIS331HH.cpp.o
 .comment       0x00000000       0x3c C:\Users\nukem419\AppData\Local\V.Micro\Arduino\Builds\IREC_2017\chipKIT_chipkit_pic32_fubarino_sd\Parameters.cpp.o
 .comment       0x00000000       0x3c C:\Users\nukem419\AppData\Local\V.Micro\Arduino\Builds\IREC_2017\chipKIT_chipkit_pic32_fubarino_sd\WSU_mavlink.cpp.o
 .comment       0x00000000       0x3c C:\Users\nukem419\AppData\Local\V.Micro\Arduino\Builds\IREC_2017\chipKIT_chipkit_pic32_fubarino_sd/core.a(task_manager.c.o)
 .comment       0x00000000       0x3c C:\Users\nukem419\AppData\Local\V.Micro\Arduino\Builds\IREC_2017\chipKIT_chipkit_pic32_fubarino_sd/core.a(wiring.c.o)
 .comment       0x00000000       0x3c C:\Users\nukem419\AppData\Local\V.Micro\Arduino\Builds\IREC_2017\chipKIT_chipkit_pic32_fubarino_sd/core.a(wiring_digital.c.o)
 .comment       0x00000000       0x3c C:\Users\nukem419\AppData\Local\V.Micro\Arduino\Builds\IREC_2017\chipKIT_chipkit_pic32_fubarino_sd/core.a(WSystem.c.o)
 .comment       0x00000000       0x3c C:\Users\nukem419\AppData\Local\V.Micro\Arduino\Builds\IREC_2017\chipKIT_chipkit_pic32_fubarino_sd/core.a(HardwareSerial.cpp.o)
 .comment       0x00000000       0x3c C:\Users\nukem419\AppData\Local\V.Micro\Arduino\Builds\IREC_2017\chipKIT_chipkit_pic32_fubarino_sd/core.a(main.cpp.o)
 .comment       0x00000000       0x3c C:\Users\nukem419\AppData\Local\V.Micro\Arduino\Builds\IREC_2017\chipKIT_chipkit_pic32_fubarino_sd/core.a(Print.cpp.o)
 .comment       0x00000000       0x3c C:\Users\nukem419\AppData\Local\V.Micro\Arduino\Builds\IREC_2017\chipKIT_chipkit_pic32_fubarino_sd/core.a(Stream.cpp.o)
 .comment       0x00000000       0x3c C:\Users\nukem419\AppData\Local\V.Micro\Arduino\Builds\IREC_2017\chipKIT_chipkit_pic32_fubarino_sd/core.a(WString.cpp.o)
 .comment       0x00000000       0x3c C:\Users\nukem419\AppData\Local\V.Micro\Arduino\Builds\IREC_2017\chipKIT_chipkit_pic32_fubarino_sd/core.a(HardwareSerial_cdcacm.c.o)
 .comment       0x00000000       0x3c C:\Users\nukem419\AppData\Local\V.Micro\Arduino\Builds\IREC_2017\chipKIT_chipkit_pic32_fubarino_sd/core.a(HardwareSerial_usb.c.o)
 .comment       0x00000000       0x3c C:\Users\nukem419\AppData\Local\V.Micro\Arduino\Builds\IREC_2017\chipKIT_chipkit_pic32_fubarino_sd/core.a(pins_arduino.c.o)
 .comment       0x00000000       0x3c C:\Users\nukem419\AppData\Local\V.Micro\Arduino\Builds\IREC_2017\chipKIT_chipkit_pic32_fubarino_sd/core.a(wiring_analog.c.o)
 .comment       0x00000000       0x3c C:\Users\nukem419\AppData\Local\V.Micro\Arduino\Builds\IREC_2017\chipKIT_chipkit_pic32_fubarino_sd/core.a(doprnt.cpp.o)
 .comment       0x00000000       0x3c c:/users/nukem419/appdata/local/arduino15/packages/chipkit/tools/pic32-tools/1.42-pic32gcc/bin/bin/../../lib/gcc/pic32mx/4.8.3/../../../../pic32mx/lib/size\libsupc++.a(class_type_info.o)
 .comment       0x00000000       0x3c c:/users/nukem419/appdata/local/arduino15/packages/chipkit/tools/pic32-tools/1.42-pic32gcc/bin/bin/../../lib/gcc/pic32mx/4.8.3/../../../../pic32mx/lib/size\libsupc++.a(del_op.o)
 .comment       0x00000000       0x3c c:/users/nukem419/appdata/local/arduino15/packages/chipkit/tools/pic32-tools/1.42-pic32gcc/bin/bin/../../lib/gcc/pic32mx/4.8.3/../../../../pic32mx/lib/size\libsupc++.a(eh_personality.o)
 .comment       0x00000000       0x3c c:/users/nukem419/appdata/local/arduino15/packages/chipkit/tools/pic32-tools/1.42-pic32gcc/bin/bin/../../lib/gcc/pic32mx/4.8.3/../../../../pic32mx/lib/size\libsupc++.a(eh_terminate.o)
 .comment       0x00000000       0x3c c:/users/nukem419/appdata/local/arduino15/packages/chipkit/tools/pic32-tools/1.42-pic32gcc/bin/bin/../../lib/gcc/pic32mx/4.8.3/../../../../pic32mx/lib/size\libsupc++.a(eh_unex_handler.o)
 .comment       0x00000000       0x3c c:/users/nukem419/appdata/local/arduino15/packages/chipkit/tools/pic32-tools/1.42-pic32gcc/bin/bin/../../lib/gcc/pic32mx/4.8.3/../../../../pic32mx/lib/size\libsupc++.a(new_op.o)
 .comment       0x00000000       0x3c c:/users/nukem419/appdata/local/arduino15/packages/chipkit/tools/pic32-tools/1.42-pic32gcc/bin/bin/../../lib/gcc/pic32mx/4.8.3/../../../../pic32mx/lib/size\libsupc++.a(si_class_type_info.o)
 .comment       0x00000000       0x3c c:/users/nukem419/appdata/local/arduino15/packages/chipkit/tools/pic32-tools/1.42-pic32gcc/bin/bin/../../lib/gcc/pic32mx/4.8.3/../../../../pic32mx/lib/size\libsupc++.a(tinfo.o)
 .comment       0x00000000       0x3c c:/users/nukem419/appdata/local/arduino15/packages/chipkit/tools/pic32-tools/1.42-pic32gcc/bin/bin/../../lib/gcc/pic32mx/4.8.3/../../../../pic32mx/lib/size\libsupc++.a(pure.o)
 .comment       0x00000000       0x3c c:/users/nukem419/appdata/local/arduino15/packages/chipkit/tools/pic32-tools/1.42-pic32gcc/bin/bin/../../lib/gcc/pic32mx/4.8.3/../../../../pic32mx/lib/size\libsupc++.a(eh_call.o)
 .comment       0x00000000       0x3c c:/users/nukem419/appdata/local/arduino15/packages/chipkit/tools/pic32-tools/1.42-pic32gcc/bin/bin/../../lib/gcc/pic32mx/4.8.3/../../../../pic32mx/lib/size\libsupc++.a(eh_catch.o)
 .comment       0x00000000       0x3c c:/users/nukem419/appdata/local/arduino15/packages/chipkit/tools/pic32-tools/1.42-pic32gcc/bin/bin/../../lib/gcc/pic32mx/4.8.3/../../../../pic32mx/lib/size\libsupc++.a(eh_globals.o)
 .comment       0x00000000       0x3c c:/users/nukem419/appdata/local/arduino15/packages/chipkit/tools/pic32-tools/1.42-pic32gcc/bin/bin/../../lib/gcc/pic32mx/4.8.3/../../../../pic32mx/lib/size\libsupc++.a(eh_term_handler.o)
 .comment       0x00000000       0x3c c:/users/nukem419/appdata/local/arduino15/packages/chipkit/tools/pic32-tools/1.42-pic32gcc/bin/bin/../../lib/gcc/pic32mx/4.8.3/../../../../pic32mx/lib/size\libsupc++.a(new_handler.o)
 .comment       0x00000000       0x3c c:/users/nukem419/appdata/local/arduino15/packages/chipkit/tools/pic32-tools/1.42-pic32gcc/bin/bin/../../lib/gcc/pic32mx/4.8.3/../../../../pic32mx/lib/size\libm.a(lib_a-s_fpclassify.o)
 .comment       0x00000000       0x3c c:/users/nukem419/appdata/local/arduino15/packages/chipkit/tools/pic32-tools/1.42-pic32gcc/bin/bin/../../lib/gcc/pic32mx/4.8.3/../../../../pic32mx/lib/size\libm.a(lib_a-s_modf.o)
 .comment       0x00000000       0x3c c:/users/nukem419/appdata/local/arduino15/packages/chipkit/tools/pic32-tools/1.42-pic32gcc/bin/bin/../../lib/gcc/pic32mx/4.8.3/../../../../pic32mx/lib/size\libm.a(lib_a-w_fmod.o)
 .comment       0x00000000       0x3c c:/users/nukem419/appdata/local/arduino15/packages/chipkit/tools/pic32-tools/1.42-pic32gcc/bin/bin/../../lib/gcc/pic32mx/4.8.3/../../../../pic32mx/lib/size\libm.a(lib_a-w_pow.o)
 .comment       0x00000000       0x3c c:/users/nukem419/appdata/local/arduino15/packages/chipkit/tools/pic32-tools/1.42-pic32gcc/bin/bin/../../lib/gcc/pic32mx/4.8.3/../../../../pic32mx/lib/size\libm.a(lib_a-e_fmod.o)
 .comment       0x00000000       0x3c c:/users/nukem419/appdata/local/arduino15/packages/chipkit/tools/pic32-tools/1.42-pic32gcc/bin/bin/../../lib/gcc/pic32mx/4.8.3/../../../../pic32mx/lib/size\libm.a(lib_a-e_pow.o)
 .comment       0x00000000       0x3c c:/users/nukem419/appdata/local/arduino15/packages/chipkit/tools/pic32-tools/1.42-pic32gcc/bin/bin/../../lib/gcc/pic32mx/4.8.3/../../../../pic32mx/lib/size\libm.a(lib_a-e_sqrt.o)
 .comment       0x00000000       0x3c c:/users/nukem419/appdata/local/arduino15/packages/chipkit/tools/pic32-tools/1.42-pic32gcc/bin/bin/../../lib/gcc/pic32mx/4.8.3/../../../../pic32mx/lib/size\libm.a(lib_a-s_fabs.o)
 .comment       0x00000000       0x3c c:/users/nukem419/appdata/local/arduino15/packages/chipkit/tools/pic32-tools/1.42-pic32gcc/bin/bin/../../lib/gcc/pic32mx/4.8.3/../../../../pic32mx/lib/size\libm.a(lib_a-s_finite.o)
 .comment       0x00000000       0x3c c:/users/nukem419/appdata/local/arduino15/packages/chipkit/tools/pic32-tools/1.42-pic32gcc/bin/bin/../../lib/gcc/pic32mx/4.8.3/../../../../pic32mx/lib/size\libm.a(lib_a-s_lib_ver.o)
 .comment       0x00000000       0x3c c:/users/nukem419/appdata/local/arduino15/packages/chipkit/tools/pic32-tools/1.42-pic32gcc/bin/bin/../../lib/gcc/pic32mx/4.8.3/../../../../pic32mx/lib/size\libm.a(lib_a-s_matherr.o)
 .comment       0x00000000       0x3c c:/users/nukem419/appdata/local/arduino15/packages/chipkit/tools/pic32-tools/1.42-pic32gcc/bin/bin/../../lib/gcc/pic32mx/4.8.3/../../../../pic32mx/lib/size\libm.a(lib_a-s_nan.o)
 .comment       0x00000000       0x3c c:/users/nukem419/appdata/local/arduino15/packages/chipkit/tools/pic32-tools/1.42-pic32gcc/bin/bin/../../lib/gcc/pic32mx/4.8.3/../../../../pic32mx/lib/size\libm.a(lib_a-s_rint.o)
 .comment       0x00000000       0x3c c:/users/nukem419/appdata/local/arduino15/packages/chipkit/tools/pic32-tools/1.42-pic32gcc/bin/bin/../../lib/gcc/pic32mx/4.8.3/../../../../pic32mx/lib/size\libm.a(lib_a-s_scalbn.o)
 .comment       0x00000000       0x3c c:/users/nukem419/appdata/local/arduino15/packages/chipkit/tools/pic32-tools/1.42-pic32gcc/bin/bin/../../lib/gcc/pic32mx/4.8.3/../../../../pic32mx/lib/size\libm.a(lib_a-s_copysign.o)
 .comment       0x00000000       0x3c c:/users/nukem419/appdata/local/arduino15/packages/chipkit/tools/pic32-tools/1.42-pic32gcc/bin/bin/../../lib/gcc/pic32mx/4.8.3/size\crtbegin.o
 .comment       0x00000000       0x3c c:/users/nukem419/appdata/local/arduino15/packages/chipkit/tools/pic32-tools/1.42-pic32gcc/bin/bin/../../lib/gcc/pic32mx/4.8.3/size\crtend.o
 .comment       0x00000000       0x3c c:/users/nukem419/appdata/local/arduino15/packages/chipkit/tools/pic32-tools/1.42-pic32gcc/bin/bin/../../lib/gcc/pic32mx/4.8.3/size\libgcc.a(addsf3.o)
 .comment       0x00000000       0x3c c:/users/nukem419/appdata/local/arduino15/packages/chipkit/tools/pic32-tools/1.42-pic32gcc/bin/bin/../../lib/gcc/pic32mx/4.8.3/size\libgcc.a(divsf3.o)
 .comment       0x00000000       0x3c c:/users/nukem419/appdata/local/arduino15/packages/chipkit/tools/pic32-tools/1.42-pic32gcc/bin/bin/../../lib/gcc/pic32mx/4.8.3/size\libgcc.a(eqsf2.o)
 .comment       0x00000000       0x3c c:/users/nukem419/appdata/local/arduino15/packages/chipkit/tools/pic32-tools/1.42-pic32gcc/bin/bin/../../lib/gcc/pic32mx/4.8.3/size\libgcc.a(gesf2.o)
 .comment       0x00000000       0x3c c:/users/nukem419/appdata/local/arduino15/packages/chipkit/tools/pic32-tools/1.42-pic32gcc/bin/bin/../../lib/gcc/pic32mx/4.8.3/size\libgcc.a(mulsf3.o)
 .comment       0x00000000       0x3c c:/users/nukem419/appdata/local/arduino15/packages/chipkit/tools/pic32-tools/1.42-pic32gcc/bin/bin/../../lib/gcc/pic32mx/4.8.3/size\libgcc.a(subsf3.o)
 .comment       0x00000000       0x3c c:/users/nukem419/appdata/local/arduino15/packages/chipkit/tools/pic32-tools/1.42-pic32gcc/bin/bin/../../lib/gcc/pic32mx/4.8.3/size\libgcc.a(fixsfsi.o)
 .comment       0x00000000       0x3c c:/users/nukem419/appdata/local/arduino15/packages/chipkit/tools/pic32-tools/1.42-pic32gcc/bin/bin/../../lib/gcc/pic32mx/4.8.3/size\libgcc.a(fixunssfsi.o)
 .comment       0x00000000       0x3c c:/users/nukem419/appdata/local/arduino15/packages/chipkit/tools/pic32-tools/1.42-pic32gcc/bin/bin/../../lib/gcc/pic32mx/4.8.3/size\libgcc.a(floatsisf.o)
 .comment       0x00000000       0x3c c:/users/nukem419/appdata/local/arduino15/packages/chipkit/tools/pic32-tools/1.42-pic32gcc/bin/bin/../../lib/gcc/pic32mx/4.8.3/size\libgcc.a(floatunsisf.o)
 .comment       0x00000000       0x3c c:/users/nukem419/appdata/local/arduino15/packages/chipkit/tools/pic32-tools/1.42-pic32gcc/bin/bin/../../lib/gcc/pic32mx/4.8.3/size\libgcc.a(fixunssfdi.o)
 .comment       0x00000000       0x3c c:/users/nukem419/appdata/local/arduino15/packages/chipkit/tools/pic32-tools/1.42-pic32gcc/bin/bin/../../lib/gcc/pic32mx/4.8.3/size\libgcc.a(adddf3.o)
 .comment       0x00000000       0x3c c:/users/nukem419/appdata/local/arduino15/packages/chipkit/tools/pic32-tools/1.42-pic32gcc/bin/bin/../../lib/gcc/pic32mx/4.8.3/size\libgcc.a(divdf3.o)
 .comment       0x00000000       0x3c c:/users/nukem419/appdata/local/arduino15/packages/chipkit/tools/pic32-tools/1.42-pic32gcc/bin/bin/../../lib/gcc/pic32mx/4.8.3/size\libgcc.a(eqdf2.o)
 .comment       0x00000000       0x3c c:/users/nukem419/appdata/local/arduino15/packages/chipkit/tools/pic32-tools/1.42-pic32gcc/bin/bin/../../lib/gcc/pic32mx/4.8.3/size\libgcc.a(gedf2.o)
 .comment       0x00000000       0x3c c:/users/nukem419/appdata/local/arduino15/packages/chipkit/tools/pic32-tools/1.42-pic32gcc/bin/bin/../../lib/gcc/pic32mx/4.8.3/size\libgcc.a(ledf2.o)
 .comment       0x00000000       0x3c c:/users/nukem419/appdata/local/arduino15/packages/chipkit/tools/pic32-tools/1.42-pic32gcc/bin/bin/../../lib/gcc/pic32mx/4.8.3/size\libgcc.a(muldf3.o)
 .comment       0x00000000       0x3c c:/users/nukem419/appdata/local/arduino15/packages/chipkit/tools/pic32-tools/1.42-pic32gcc/bin/bin/../../lib/gcc/pic32mx/4.8.3/size\libgcc.a(subdf3.o)
 .comment       0x00000000       0x3c c:/users/nukem419/appdata/local/arduino15/packages/chipkit/tools/pic32-tools/1.42-pic32gcc/bin/bin/../../lib/gcc/pic32mx/4.8.3/size\libgcc.a(fixdfsi.o)
 .comment       0x00000000       0x3c c:/users/nukem419/appdata/local/arduino15/packages/chipkit/tools/pic32-tools/1.42-pic32gcc/bin/bin/../../lib/gcc/pic32mx/4.8.3/size\libgcc.a(fixunsdfsi.o)
 .comment       0x00000000       0x3c c:/users/nukem419/appdata/local/arduino15/packages/chipkit/tools/pic32-tools/1.42-pic32gcc/bin/bin/../../lib/gcc/pic32mx/4.8.3/size\libgcc.a(floatsidf.o)
 .comment       0x00000000       0x3c c:/users/nukem419/appdata/local/arduino15/packages/chipkit/tools/pic32-tools/1.42-pic32gcc/bin/bin/../../lib/gcc/pic32mx/4.8.3/size\libgcc.a(floatunsidf.o)
 .comment       0x00000000       0x3c c:/users/nukem419/appdata/local/arduino15/packages/chipkit/tools/pic32-tools/1.42-pic32gcc/bin/bin/../../lib/gcc/pic32mx/4.8.3/size\libgcc.a(extendsfdf2.o)
 .comment       0x00000000       0x3c c:/users/nukem419/appdata/local/arduino15/packages/chipkit/tools/pic32-tools/1.42-pic32gcc/bin/bin/../../lib/gcc/pic32mx/4.8.3/size\libgcc.a(truncdfsf2.o)
 .comment       0x00000000       0x3c c:/users/nukem419/appdata/local/arduino15/packages/chipkit/tools/pic32-tools/1.42-pic32gcc/bin/bin/../../lib/gcc/pic32mx/4.8.3/size\libgcc.a(unwind-sjlj.o)
 .comment       0x00000000       0x3c c:/users/nukem419/appdata/local/arduino15/packages/chipkit/tools/pic32-tools/1.42-pic32gcc/bin/bin/../../lib/gcc/pic32mx/4.8.3/size\libgcc.a(_ashldi3.o)
 .comment       0x00000000       0x3c c:/users/nukem419/appdata/local/arduino15/packages/chipkit/tools/pic32-tools/1.42-pic32gcc/bin/bin/../../lib/gcc/pic32mx/4.8.3/../../../../pic32mx/lib/size\libc.a(lib_a-abort.o)
 .comment       0x00000000       0x3c c:/users/nukem419/appdata/local/arduino15/packages/chipkit/tools/pic32-tools/1.42-pic32gcc/bin/bin/../../lib/gcc/pic32mx/4.8.3/../../../../pic32mx/lib/size\libc.a(lib_a-atof.o)
 .comment       0x00000000       0x3c c:/users/nukem419/appdata/local/arduino15/packages/chipkit/tools/pic32-tools/1.42-pic32gcc/bin/bin/../../lib/gcc/pic32mx/4.8.3/../../../../pic32mx/lib/size\libc.a(lib_a-atol.o)
 .comment       0x00000000       0x3c c:/users/nukem419/appdata/local/arduino15/packages/chipkit/tools/pic32-tools/1.42-pic32gcc/bin/bin/../../lib/gcc/pic32mx/4.8.3/../../../../pic32mx/lib/size\libc.a(lib_a-errno.o)
 .comment       0x00000000       0x3c c:/users/nukem419/appdata/local/arduino15/packages/chipkit/tools/pic32-tools/1.42-pic32gcc/bin/bin/../../lib/gcc/pic32mx/4.8.3/../../../../pic32mx/lib/size\libc.a(lib_a-impure.o)
 .comment       0x00000000       0x3c c:/users/nukem419/appdata/local/arduino15/packages/chipkit/tools/pic32-tools/1.42-pic32gcc/bin/bin/../../lib/gcc/pic32mx/4.8.3/../../../../pic32mx/lib/size\libc.a(lib_a-isspace.o)
 .comment       0x00000000       0x3c c:/users/nukem419/appdata/local/arduino15/packages/chipkit/tools/pic32-tools/1.42-pic32gcc/bin/bin/../../lib/gcc/pic32mx/4.8.3/../../../../pic32mx/lib/size\libc.a(lib_a-malloc.o)
 .comment       0x00000000       0x3c c:/users/nukem419/appdata/local/arduino15/packages/chipkit/tools/pic32-tools/1.42-pic32gcc/bin/bin/../../lib/gcc/pic32mx/4.8.3/../../../../pic32mx/lib/size\libc.a(lib_a-mallocr.o)
 .comment       0x00000000       0x3c c:/users/nukem419/appdata/local/arduino15/packages/chipkit/tools/pic32-tools/1.42-pic32gcc/bin/bin/../../lib/gcc/pic32mx/4.8.3/../../../../pic32mx/lib/size\libc.a(lib_a-memcmp.o)
 .comment       0x00000000       0x3c c:/users/nukem419/appdata/local/arduino15/packages/chipkit/tools/pic32-tools/1.42-pic32gcc/bin/bin/../../lib/gcc/pic32mx/4.8.3/../../../../pic32mx/lib/size\libc.a(lib_a-memcpy.o)
 .comment       0x00000000       0x3c c:/users/nukem419/appdata/local/arduino15/packages/chipkit/tools/pic32-tools/1.42-pic32gcc/bin/bin/../../lib/gcc/pic32mx/4.8.3/../../../../pic32mx/lib/size\libc.a(lib_a-memmove.o)
 .comment       0x00000000       0x3c c:/users/nukem419/appdata/local/arduino15/packages/chipkit/tools/pic32-tools/1.42-pic32gcc/bin/bin/../../lib/gcc/pic32mx/4.8.3/../../../../pic32mx/lib/size\libc.a(lib_a-memset.o)
 .comment       0x00000000       0x3c c:/users/nukem419/appdata/local/arduino15/packages/chipkit/tools/pic32-tools/1.42-pic32gcc/bin/bin/../../lib/gcc/pic32mx/4.8.3/../../../../pic32mx/lib/size\libc.a(lib_a-mlock.o)
 .comment       0x00000000       0x3c c:/users/nukem419/appdata/local/arduino15/packages/chipkit/tools/pic32-tools/1.42-pic32gcc/bin/bin/../../lib/gcc/pic32mx/4.8.3/../../../../pic32mx/lib/size\libc.a(lib_a-realloc.o)
 .comment       0x00000000       0x3c c:/users/nukem419/appdata/local/arduino15/packages/chipkit/tools/pic32-tools/1.42-pic32gcc/bin/bin/../../lib/gcc/pic32mx/4.8.3/../../../../pic32mx/lib/size\libc.a(lib_a-reallocr.o)
 .comment       0x00000000       0x3c c:/users/nukem419/appdata/local/arduino15/packages/chipkit/tools/pic32-tools/1.42-pic32gcc/bin/bin/../../lib/gcc/pic32mx/4.8.3/../../../../pic32mx/lib/size\libc.a(lib_a-sbrkr.o)
 .comment       0x00000000       0x3c c:/users/nukem419/appdata/local/arduino15/packages/chipkit/tools/pic32-tools/1.42-pic32gcc/bin/bin/../../lib/gcc/pic32mx/4.8.3/../../../../pic32mx/lib/size\libc.a(lib_a-signal.o)
 .comment       0x00000000       0x3c c:/users/nukem419/appdata/local/arduino15/packages/chipkit/tools/pic32-tools/1.42-pic32gcc/bin/bin/../../lib/gcc/pic32mx/4.8.3/../../../../pic32mx/lib/size\libc.a(lib_a-signalr.o)
 .comment       0x00000000       0x3c c:/users/nukem419/appdata/local/arduino15/packages/chipkit/tools/pic32-tools/1.42-pic32gcc/bin/bin/../../lib/gcc/pic32mx/4.8.3/../../../../pic32mx/lib/size\libc.a(lib_a-snprintf.o)
 .comment       0x00000000       0x3c c:/users/nukem419/appdata/local/arduino15/packages/chipkit/tools/pic32-tools/1.42-pic32gcc/bin/bin/../../lib/gcc/pic32mx/4.8.3/../../../../pic32mx/lib/size\libc.a(lib_a-strchr.o)
 .comment       0x00000000       0x3c c:/users/nukem419/appdata/local/arduino15/packages/chipkit/tools/pic32-tools/1.42-pic32gcc/bin/bin/../../lib/gcc/pic32mx/4.8.3/../../../../pic32mx/lib/size\libc.a(lib_a-strcmp.o)
 .comment       0x00000000       0x3c c:/users/nukem419/appdata/local/arduino15/packages/chipkit/tools/pic32-tools/1.42-pic32gcc/bin/bin/../../lib/gcc/pic32mx/4.8.3/../../../../pic32mx/lib/size\libc.a(lib_a-strcpy.o)
 .comment       0x00000000       0x3c c:/users/nukem419/appdata/local/arduino15/packages/chipkit/tools/pic32-tools/1.42-pic32gcc/bin/bin/../../lib/gcc/pic32mx/4.8.3/../../../../pic32mx/lib/size\libc.a(lib_a-strlen.o)
 .comment       0x00000000       0x3c c:/users/nukem419/appdata/local/arduino15/packages/chipkit/tools/pic32-tools/1.42-pic32gcc/bin/bin/../../lib/gcc/pic32mx/4.8.3/../../../../pic32mx/lib/size\libc.a(lib_a-strncmp.o)
 .comment       0x00000000       0x3c c:/users/nukem419/appdata/local/arduino15/packages/chipkit/tools/pic32-tools/1.42-pic32gcc/bin/bin/../../lib/gcc/pic32mx/4.8.3/../../../../pic32mx/lib/size\libc.a(lib_a-strncpy.o)
 .comment       0x00000000       0x3c c:/users/nukem419/appdata/local/arduino15/packages/chipkit/tools/pic32-tools/1.42-pic32gcc/bin/bin/../../lib/gcc/pic32mx/4.8.3/../../../../pic32mx/lib/size\libc.a(lib_a-strrchr.o)
 .comment       0x00000000       0x3c c:/users/nukem419/appdata/local/arduino15/packages/chipkit/tools/pic32-tools/1.42-pic32gcc/bin/bin/../../lib/gcc/pic32mx/4.8.3/../../../../pic32mx/lib/size\libc.a(lib_a-strstr.o)
 .comment       0x00000000       0x3c c:/users/nukem419/appdata/local/arduino15/packages/chipkit/tools/pic32-tools/1.42-pic32gcc/bin/bin/../../lib/gcc/pic32mx/4.8.3/../../../../pic32mx/lib/size\libc.a(lib_a-strtod.o)
 .comment       0x00000000       0x3c c:/users/nukem419/appdata/local/arduino15/packages/chipkit/tools/pic32-tools/1.42-pic32gcc/bin/bin/../../lib/gcc/pic32mx/4.8.3/../../../../pic32mx/lib/size\libc.a(lib_a-strtol.o)
 .comment       0x00000000       0x3c c:/users/nukem419/appdata/local/arduino15/packages/chipkit/tools/pic32-tools/1.42-pic32gcc/bin/bin/../../lib/gcc/pic32mx/4.8.3/../../../../pic32mx/lib/size\libc.a(lib_a-svfprintf.o)
 .comment       0x00000000       0x3c c:/users/nukem419/appdata/local/arduino15/packages/chipkit/tools/pic32-tools/1.42-pic32gcc/bin/bin/../../lib/gcc/pic32mx/4.8.3/../../../../pic32mx/lib/size\libc.a(lib_a-tolower.o)
 .comment       0x00000000       0x3c c:/users/nukem419/appdata/local/arduino15/packages/chipkit/tools/pic32-tools/1.42-pic32gcc/bin/bin/../../lib/gcc/pic32mx/4.8.3/../../../../pic32mx/lib/size\libc.a(lib_a-toupper.o)
 .comment       0x00000000       0x3c c:/users/nukem419/appdata/local/arduino15/packages/chipkit/tools/pic32-tools/1.42-pic32gcc/bin/bin/../../lib/gcc/pic32mx/4.8.3/../../../../pic32mx/lib/size\libc.a(lib_a-ctype_.o)
 .comment       0x00000000       0x3c c:/users/nukem419/appdata/local/arduino15/packages/chipkit/tools/pic32-tools/1.42-pic32gcc/bin/bin/../../lib/gcc/pic32mx/4.8.3/../../../../pic32mx/lib/size\libc.a(lib_a-dtoa.o)
 .comment       0x00000000       0x3c c:/users/nukem419/appdata/local/arduino15/packages/chipkit/tools/pic32-tools/1.42-pic32gcc/bin/bin/../../lib/gcc/pic32mx/4.8.3/../../../../pic32mx/lib/size\libc.a(lib_a-freer.o)
 .comment       0x00000000       0x3c c:/users/nukem419/appdata/local/arduino15/packages/chipkit/tools/pic32-tools/1.42-pic32gcc/bin/bin/../../lib/gcc/pic32mx/4.8.3/../../../../pic32mx/lib/size\libc.a(lib_a-gdtoa-gethex.o)
 .comment       0x00000000       0x3c c:/users/nukem419/appdata/local/arduino15/packages/chipkit/tools/pic32-tools/1.42-pic32gcc/bin/bin/../../lib/gcc/pic32mx/4.8.3/../../../../pic32mx/lib/size\libc.a(lib_a-gdtoa-hexnan.o)
 .comment       0x00000000       0x3c c:/users/nukem419/appdata/local/arduino15/packages/chipkit/tools/pic32-tools/1.42-pic32gcc/bin/bin/../../lib/gcc/pic32mx/4.8.3/../../../../pic32mx/lib/size\libc.a(lib_a-locale.o)
 .comment       0x00000000       0x3c c:/users/nukem419/appdata/local/arduino15/packages/chipkit/tools/pic32-tools/1.42-pic32gcc/bin/bin/../../lib/gcc/pic32mx/4.8.3/../../../../pic32mx/lib/size\libc.a(lib_a-memchr.o)
 .comment       0x00000000       0x3c c:/users/nukem419/appdata/local/arduino15/packages/chipkit/tools/pic32-tools/1.42-pic32gcc/bin/bin/../../lib/gcc/pic32mx/4.8.3/../../../../pic32mx/lib/size\libc.a(lib_a-mprec.o)
 .comment       0x00000000       0x3c c:/users/nukem419/appdata/local/arduino15/packages/chipkit/tools/pic32-tools/1.42-pic32gcc/bin/bin/../../lib/gcc/pic32mx/4.8.3/../../../../pic32mx/lib/size\libc.a(lib_a-reent.o)
 .comment       0x00000000       0x3c c:/users/nukem419/appdata/local/arduino15/packages/chipkit/tools/pic32-tools/1.42-pic32gcc/bin/bin/../../lib/gcc/pic32mx/4.8.3/../../../../pic32mx/lib/size\libc.a(lib_a-sf_nan.o)
 .comment       0x00000000       0x3c c:/users/nukem419/appdata/local/arduino15/packages/chipkit/tools/pic32-tools/1.42-pic32gcc/bin/bin/../../lib/gcc/pic32mx/4.8.3/../../../../pic32mx/lib/size\libc.a(lib_a-svfiprintf.o)
 .comment       0x00000000       0x3c c:/users/nukem419/appdata/local/arduino15/packages/chipkit/tools/pic32-tools/1.42-pic32gcc/bin/bin/../../lib/gcc/pic32mx/4.8.3/../../../../pic32mx/lib/size\libc.a(lib_a-callocr.o)
 .comment       0x0000003b       0x4b c:/users/nukem419/appdata/local/arduino15/packages/chipkit/tools/pic32-tools/1.42-pic32gcc/bin/bin/../../lib/gcc/pic32mx/4.8.3/../../../../pic32mx/lib/size\libpic32.a(sbrk.o)
                                 0x87 (size before relaxing)
 .comment       0x00000000       0x3c c:/users/nukem419/appdata/local/arduino15/packages/chipkit/tools/pic32-tools/1.42-pic32gcc/bin/bin/../../lib/gcc/pic32mx/4.8.3/../../../../pic32mx/lib/size\libpic32.a(default-bootstrap-exception-handler.o)
 .comment       0x00000000       0x3c c:/users/nukem419/appdata/local/arduino15/packages/chipkit/tools/pic32-tools/1.42-pic32gcc/bin/bin/../../lib/gcc/pic32mx/4.8.3/../../../../pic32mx/lib/size\libpic32.a(default-on-reset.o)
 .comment       0x00000000       0x3c c:/users/nukem419/appdata/local/arduino15/packages/chipkit/tools/pic32-tools/1.42-pic32gcc/bin/bin/../../lib/gcc/pic32mx/4.8.3/../../../../pic32mx/lib/size\libpic32.a(default-on-bootstrap.o)
 .comment       0x00000000       0x3c c:/users/nukem419/appdata/local/arduino15/packages/chipkit/tools/pic32-tools/1.42-pic32gcc/bin/bin/../../lib/gcc/pic32mx/4.8.3/../../../../pic32mx/lib/size\libpic32.a(_exit.o)
 .comment       0x00000000       0x3c c:/users/nukem419/appdata/local/arduino15/packages/chipkit/tools/pic32-tools/1.42-pic32gcc/bin/bin/../../lib/gcc/pic32mx/4.8.3/../../../../pic32mx/lib/size\libpic32.a(kill.o)
 .comment       0x00000000       0x3c c:/users/nukem419/appdata/local/arduino15/packages/chipkit/tools/pic32-tools/1.42-pic32gcc/bin/bin/../../lib/gcc/pic32mx/4.8.3/../../../../pic32mx/lib/size\libpic32.a(getpid.o)
 .comment       0x00000000       0x3c c:/users/nukem419/appdata/local/arduino15/packages/chipkit/tools/pic32-tools/1.42-pic32gcc/bin/bin/../../lib/gcc/pic32mx/4.8.3/size\libgcc.a(_udivdi3.o)
 .comment       0x00000000       0x3c c:/users/nukem419/appdata/local/arduino15/packages/chipkit/tools/pic32-tools/1.42-pic32gcc/bin/bin/../../lib/gcc/pic32mx/4.8.3/size\libgcc.a(_umoddi3.o)

.debug
 *(.debug)

.line
 *(.line)

.debug_srcinfo
 *(.debug_srcinfo)

.debug_sfnames
 *(.debug_sfnames)

.debug_aranges  0x00000000     0x1998
 *(.debug_aranges)
 .debug_aranges
                0x00000000       0xa0 C:\Users\nukem419\AppData\Local\V.Micro\Arduino\Builds\IREC_2017\chipKIT_chipkit_pic32_fubarino_sd\SD\File.cpp.o
 .debug_aranges
                0x000000a0       0x98 C:\Users\nukem419\AppData\Local\V.Micro\Arduino\Builds\IREC_2017\chipKIT_chipkit_pic32_fubarino_sd\SD\SD.cpp.o
 .debug_aranges
                0x00000138       0xc8 C:\Users\nukem419\AppData\Local\V.Micro\Arduino\Builds\IREC_2017\chipKIT_chipkit_pic32_fubarino_sd\SD\utility\Sd2Card.cpp.o
 .debug_aranges
                0x00000200      0x140 C:\Users\nukem419\AppData\Local\V.Micro\Arduino\Builds\IREC_2017\chipKIT_chipkit_pic32_fubarino_sd\SD\utility\SdFile.cpp.o
 .debug_aranges
                0x00000340       0x60 C:\Users\nukem419\AppData\Local\V.Micro\Arduino\Builds\IREC_2017\chipKIT_chipkit_pic32_fubarino_sd\SD\utility\SdVolume.cpp.o
 .debug_aranges
                0x000003a0      0x1a8 C:\Users\nukem419\AppData\Local\V.Micro\Arduino\Builds\IREC_2017\chipKIT_chipkit_pic32_fubarino_sd\Wire\Wire.cpp.o
 .debug_aranges
                0x00000548       0x30 C:\Users\nukem419\AppData\Local\V.Micro\Arduino\Builds\IREC_2017\chipKIT_chipkit_pic32_fubarino_sd\IREC_2017.cpp.o
 .debug_aranges
                0x00000578       0x98 C:\Users\nukem419\AppData\Local\V.Micro\Arduino\Builds\IREC_2017\chipKIT_chipkit_pic32_fubarino_sd\BMP180.cpp.o
 .debug_aranges
                0x00000610       0x48 C:\Users\nukem419\AppData\Local\V.Micro\Arduino\Builds\IREC_2017\chipKIT_chipkit_pic32_fubarino_sd\DataLogger.cpp.o
 .debug_aranges
                0x00000658       0xc0 C:\Users\nukem419\AppData\Local\V.Micro\Arduino\Builds\IREC_2017\chipKIT_chipkit_pic32_fubarino_sd\EM_506.cpp.o
 .debug_aranges
                0x00000718       0x40 C:\Users\nukem419\AppData\Local\V.Micro\Arduino\Builds\IREC_2017\chipKIT_chipkit_pic32_fubarino_sd\L3GD20TR.cpp.o
 .debug_aranges
                0x00000758       0x40 C:\Users\nukem419\AppData\Local\V.Micro\Arduino\Builds\IREC_2017\chipKIT_chipkit_pic32_fubarino_sd\LIS331HH.cpp.o
 .debug_aranges
                0x00000798       0x58 C:\Users\nukem419\AppData\Local\V.Micro\Arduino\Builds\IREC_2017\chipKIT_chipkit_pic32_fubarino_sd\Parameters.cpp.o
 .debug_aranges
                0x000007f0       0x28 C:\Users\nukem419\AppData\Local\V.Micro\Arduino\Builds\IREC_2017\chipKIT_chipkit_pic32_fubarino_sd/core.a(crti.S.o)
 .debug_aranges
                0x00000818       0x88 C:\Users\nukem419\AppData\Local\V.Micro\Arduino\Builds\IREC_2017\chipKIT_chipkit_pic32_fubarino_sd/core.a(task_manager.c.o)
 .debug_aranges
                0x000008a0       0x70 C:\Users\nukem419\AppData\Local\V.Micro\Arduino\Builds\IREC_2017\chipKIT_chipkit_pic32_fubarino_sd/core.a(wiring.c.o)
 .debug_aranges
                0x00000910       0x38 C:\Users\nukem419\AppData\Local\V.Micro\Arduino\Builds\IREC_2017\chipKIT_chipkit_pic32_fubarino_sd/core.a(wiring_digital.c.o)
 .debug_aranges
                0x00000948       0xc8 C:\Users\nukem419\AppData\Local\V.Micro\Arduino\Builds\IREC_2017\chipKIT_chipkit_pic32_fubarino_sd/core.a(WSystem.c.o)
 .debug_aranges
                0x00000a10      0x150 C:\Users\nukem419\AppData\Local\V.Micro\Arduino\Builds\IREC_2017\chipKIT_chipkit_pic32_fubarino_sd/core.a(HardwareSerial.cpp.o)
 .debug_aranges
                0x00000b60       0x20 C:\Users\nukem419\AppData\Local\V.Micro\Arduino\Builds\IREC_2017\chipKIT_chipkit_pic32_fubarino_sd/core.a(main.cpp.o)
 .debug_aranges
                0x00000b80       0xf0 C:\Users\nukem419\AppData\Local\V.Micro\Arduino\Builds\IREC_2017\chipKIT_chipkit_pic32_fubarino_sd/core.a(Print.cpp.o)
 .debug_aranges
                0x00000c70       0xa0 C:\Users\nukem419\AppData\Local\V.Micro\Arduino\Builds\IREC_2017\chipKIT_chipkit_pic32_fubarino_sd/core.a(Stream.cpp.o)
 .debug_aranges
                0x00000d10      0x2c8 C:\Users\nukem419\AppData\Local\V.Micro\Arduino\Builds\IREC_2017\chipKIT_chipkit_pic32_fubarino_sd/core.a(WString.cpp.o)
 .debug_aranges
                0x00000fd8      0x218 C:\Users\nukem419\AppData\Local\V.Micro\Arduino\Builds\IREC_2017\chipKIT_chipkit_pic32_fubarino_sd/core.a(vector_table.S.o)
 .debug_aranges
                0x000011f0       0x58 C:\Users\nukem419\AppData\Local\V.Micro\Arduino\Builds\IREC_2017\chipKIT_chipkit_pic32_fubarino_sd/core.a(HardwareSerial_cdcacm.c.o)
 .debug_aranges
                0x00001248       0x58 C:\Users\nukem419\AppData\Local\V.Micro\Arduino\Builds\IREC_2017\chipKIT_chipkit_pic32_fubarino_sd/core.a(HardwareSerial_usb.c.o)
 .debug_aranges
                0x000012a0       0x20 C:\Users\nukem419\AppData\Local\V.Micro\Arduino\Builds\IREC_2017\chipKIT_chipkit_pic32_fubarino_sd/core.a(pins_arduino.c.o)
 .debug_aranges
                0x000012c0       0x68 C:\Users\nukem419\AppData\Local\V.Micro\Arduino\Builds\IREC_2017\chipKIT_chipkit_pic32_fubarino_sd/core.a(wiring_analog.c.o)
 .debug_aranges
                0x00001328       0x28 C:\Users\nukem419\AppData\Local\V.Micro\Arduino\Builds\IREC_2017\chipKIT_chipkit_pic32_fubarino_sd/core.a(doprnt.cpp.o)
 .debug_aranges
                0x00001350       0x58 c:/users/nukem419/appdata/local/arduino15/packages/chipkit/tools/pic32-tools/1.42-pic32gcc/bin/bin/../../lib/gcc/pic32mx/4.8.3/../../../../pic32mx/lib/size\libsupc++.a(class_type_info.o)
 .debug_aranges
                0x000013a8       0x20 c:/users/nukem419/appdata/local/arduino15/packages/chipkit/tools/pic32-tools/1.42-pic32gcc/bin/bin/../../lib/gcc/pic32mx/4.8.3/../../../../pic32mx/lib/size\libsupc++.a(del_op.o)
 .debug_aranges
                0x000013c8       0x60 c:/users/nukem419/appdata/local/arduino15/packages/chipkit/tools/pic32-tools/1.42-pic32gcc/bin/bin/../../lib/gcc/pic32mx/4.8.3/../../../../pic32mx/lib/size\libsupc++.a(eh_personality.o)
 .debug_aranges
                0x00001428       0x48 c:/users/nukem419/appdata/local/arduino15/packages/chipkit/tools/pic32-tools/1.42-pic32gcc/bin/bin/../../lib/gcc/pic32mx/4.8.3/../../../../pic32mx/lib/size\libsupc++.a(eh_terminate.o)
 .debug_aranges
                0x00001470       0x18 c:/users/nukem419/appdata/local/arduino15/packages/chipkit/tools/pic32-tools/1.42-pic32gcc/bin/bin/../../lib/gcc/pic32mx/4.8.3/../../../../pic32mx/lib/size\libsupc++.a(eh_unex_handler.o)
 .debug_aranges
                0x00001488       0x20 c:/users/nukem419/appdata/local/arduino15/packages/chipkit/tools/pic32-tools/1.42-pic32gcc/bin/bin/../../lib/gcc/pic32mx/4.8.3/../../../../pic32mx/lib/size\libsupc++.a(new_op.o)
 .debug_aranges
                0x000014a8       0x48 c:/users/nukem419/appdata/local/arduino15/packages/chipkit/tools/pic32-tools/1.42-pic32gcc/bin/bin/../../lib/gcc/pic32mx/4.8.3/../../../../pic32mx/lib/size\libsupc++.a(si_class_type_info.o)
 .debug_aranges
                0x000014f0       0x48 c:/users/nukem419/appdata/local/arduino15/packages/chipkit/tools/pic32-tools/1.42-pic32gcc/bin/bin/../../lib/gcc/pic32mx/4.8.3/../../../../pic32mx/lib/size\libsupc++.a(tinfo.o)
 .debug_aranges
                0x00001538       0x28 c:/users/nukem419/appdata/local/arduino15/packages/chipkit/tools/pic32-tools/1.42-pic32gcc/bin/bin/../../lib/gcc/pic32mx/4.8.3/../../../../pic32mx/lib/size\libsupc++.a(pure.o)
 .debug_aranges
                0x00001560       0x20 c:/users/nukem419/appdata/local/arduino15/packages/chipkit/tools/pic32-tools/1.42-pic32gcc/bin/bin/../../lib/gcc/pic32mx/4.8.3/../../../../pic32mx/lib/size\libsupc++.a(eh_call.o)
 .debug_aranges
                0x00001580       0x38 c:/users/nukem419/appdata/local/arduino15/packages/chipkit/tools/pic32-tools/1.42-pic32gcc/bin/bin/../../lib/gcc/pic32mx/4.8.3/../../../../pic32mx/lib/size\libsupc++.a(eh_catch.o)
 .debug_aranges
                0x000015b8       0x28 c:/users/nukem419/appdata/local/arduino15/packages/chipkit/tools/pic32-tools/1.42-pic32gcc/bin/bin/../../lib/gcc/pic32mx/4.8.3/../../../../pic32mx/lib/size\libsupc++.a(eh_globals.o)
 .debug_aranges
                0x000015e0       0x18 c:/users/nukem419/appdata/local/arduino15/packages/chipkit/tools/pic32-tools/1.42-pic32gcc/bin/bin/../../lib/gcc/pic32mx/4.8.3/../../../../pic32mx/lib/size\libsupc++.a(eh_term_handler.o)
 .debug_aranges
                0x000015f8       0x20 c:/users/nukem419/appdata/local/arduino15/packages/chipkit/tools/pic32-tools/1.42-pic32gcc/bin/bin/../../lib/gcc/pic32mx/4.8.3/../../../../pic32mx/lib/size\libsupc++.a(new_handler.o)
 .debug_aranges
                0x00001618       0x20 c:/users/nukem419/appdata/local/arduino15/packages/chipkit/tools/pic32-tools/1.42-pic32gcc/bin/bin/../../lib/gcc/pic32mx/4.8.3/size\libgcc.a(addsf3.o)
 .debug_aranges
                0x00001638       0x20 c:/users/nukem419/appdata/local/arduino15/packages/chipkit/tools/pic32-tools/1.42-pic32gcc/bin/bin/../../lib/gcc/pic32mx/4.8.3/size\libgcc.a(divsf3.o)
 .debug_aranges
                0x00001658       0x20 c:/users/nukem419/appdata/local/arduino15/packages/chipkit/tools/pic32-tools/1.42-pic32gcc/bin/bin/../../lib/gcc/pic32mx/4.8.3/size\libgcc.a(eqsf2.o)
 .debug_aranges
                0x00001678       0x20 c:/users/nukem419/appdata/local/arduino15/packages/chipkit/tools/pic32-tools/1.42-pic32gcc/bin/bin/../../lib/gcc/pic32mx/4.8.3/size\libgcc.a(gesf2.o)
 .debug_aranges
                0x00001698       0x20 c:/users/nukem419/appdata/local/arduino15/packages/chipkit/tools/pic32-tools/1.42-pic32gcc/bin/bin/../../lib/gcc/pic32mx/4.8.3/size\libgcc.a(mulsf3.o)
 .debug_aranges
                0x000016b8       0x20 c:/users/nukem419/appdata/local/arduino15/packages/chipkit/tools/pic32-tools/1.42-pic32gcc/bin/bin/../../lib/gcc/pic32mx/4.8.3/size\libgcc.a(subsf3.o)
 .debug_aranges
                0x000016d8       0x20 c:/users/nukem419/appdata/local/arduino15/packages/chipkit/tools/pic32-tools/1.42-pic32gcc/bin/bin/../../lib/gcc/pic32mx/4.8.3/size\libgcc.a(fixsfsi.o)
 .debug_aranges
                0x000016f8       0x20 c:/users/nukem419/appdata/local/arduino15/packages/chipkit/tools/pic32-tools/1.42-pic32gcc/bin/bin/../../lib/gcc/pic32mx/4.8.3/size\libgcc.a(fixunssfsi.o)
 .debug_aranges
                0x00001718       0x20 c:/users/nukem419/appdata/local/arduino15/packages/chipkit/tools/pic32-tools/1.42-pic32gcc/bin/bin/../../lib/gcc/pic32mx/4.8.3/size\libgcc.a(floatsisf.o)
 .debug_aranges
                0x00001738       0x20 c:/users/nukem419/appdata/local/arduino15/packages/chipkit/tools/pic32-tools/1.42-pic32gcc/bin/bin/../../lib/gcc/pic32mx/4.8.3/size\libgcc.a(floatunsisf.o)
 .debug_aranges
                0x00001758       0x20 c:/users/nukem419/appdata/local/arduino15/packages/chipkit/tools/pic32-tools/1.42-pic32gcc/bin/bin/../../lib/gcc/pic32mx/4.8.3/size\libgcc.a(fixunssfdi.o)
 .debug_aranges
                0x00001778       0x20 c:/users/nukem419/appdata/local/arduino15/packages/chipkit/tools/pic32-tools/1.42-pic32gcc/bin/bin/../../lib/gcc/pic32mx/4.8.3/size\libgcc.a(adddf3.o)
 .debug_aranges
                0x00001798       0x20 c:/users/nukem419/appdata/local/arduino15/packages/chipkit/tools/pic32-tools/1.42-pic32gcc/bin/bin/../../lib/gcc/pic32mx/4.8.3/size\libgcc.a(divdf3.o)
 .debug_aranges
                0x000017b8       0x20 c:/users/nukem419/appdata/local/arduino15/packages/chipkit/tools/pic32-tools/1.42-pic32gcc/bin/bin/../../lib/gcc/pic32mx/4.8.3/size\libgcc.a(eqdf2.o)
 .debug_aranges
                0x000017d8       0x20 c:/users/nukem419/appdata/local/arduino15/packages/chipkit/tools/pic32-tools/1.42-pic32gcc/bin/bin/../../lib/gcc/pic32mx/4.8.3/size\libgcc.a(gedf2.o)
 .debug_aranges
                0x000017f8       0x20 c:/users/nukem419/appdata/local/arduino15/packages/chipkit/tools/pic32-tools/1.42-pic32gcc/bin/bin/../../lib/gcc/pic32mx/4.8.3/size\libgcc.a(ledf2.o)
 .debug_aranges
                0x00001818       0x20 c:/users/nukem419/appdata/local/arduino15/packages/chipkit/tools/pic32-tools/1.42-pic32gcc/bin/bin/../../lib/gcc/pic32mx/4.8.3/size\libgcc.a(muldf3.o)
 .debug_aranges
                0x00001838       0x20 c:/users/nukem419/appdata/local/arduino15/packages/chipkit/tools/pic32-tools/1.42-pic32gcc/bin/bin/../../lib/gcc/pic32mx/4.8.3/size\libgcc.a(subdf3.o)
 .debug_aranges
                0x00001858       0x20 c:/users/nukem419/appdata/local/arduino15/packages/chipkit/tools/pic32-tools/1.42-pic32gcc/bin/bin/../../lib/gcc/pic32mx/4.8.3/size\libgcc.a(fixdfsi.o)
 .debug_aranges
                0x00001878       0x20 c:/users/nukem419/appdata/local/arduino15/packages/chipkit/tools/pic32-tools/1.42-pic32gcc/bin/bin/../../lib/gcc/pic32mx/4.8.3/size\libgcc.a(fixunsdfsi.o)
 .debug_aranges
                0x00001898       0x20 c:/users/nukem419/appdata/local/arduino15/packages/chipkit/tools/pic32-tools/1.42-pic32gcc/bin/bin/../../lib/gcc/pic32mx/4.8.3/size\libgcc.a(floatsidf.o)
 .debug_aranges
                0x000018b8       0x20 c:/users/nukem419/appdata/local/arduino15/packages/chipkit/tools/pic32-tools/1.42-pic32gcc/bin/bin/../../lib/gcc/pic32mx/4.8.3/size\libgcc.a(floatunsidf.o)
 .debug_aranges
                0x000018d8       0x20 c:/users/nukem419/appdata/local/arduino15/packages/chipkit/tools/pic32-tools/1.42-pic32gcc/bin/bin/../../lib/gcc/pic32mx/4.8.3/size\libgcc.a(extendsfdf2.o)
 .debug_aranges
                0x000018f8       0x20 c:/users/nukem419/appdata/local/arduino15/packages/chipkit/tools/pic32-tools/1.42-pic32gcc/bin/bin/../../lib/gcc/pic32mx/4.8.3/size\libgcc.a(truncdfsf2.o)
 .debug_aranges
                0x00001918       0x20 c:/users/nukem419/appdata/local/arduino15/packages/chipkit/tools/pic32-tools/1.42-pic32gcc/bin/bin/../../lib/gcc/pic32mx/4.8.3/size\libgcc.a(unwind-sjlj.o)
 .debug_aranges
                0x00001938       0x20 c:/users/nukem419/appdata/local/arduino15/packages/chipkit/tools/pic32-tools/1.42-pic32gcc/bin/bin/../../lib/gcc/pic32mx/4.8.3/size\libgcc.a(_ashldi3.o)
 .debug_aranges
                0x00001958       0x20 c:/users/nukem419/appdata/local/arduino15/packages/chipkit/tools/pic32-tools/1.42-pic32gcc/bin/bin/../../lib/gcc/pic32mx/4.8.3/size\libgcc.a(_udivdi3.o)
 .debug_aranges
                0x00001978       0x20 c:/users/nukem419/appdata/local/arduino15/packages/chipkit/tools/pic32-tools/1.42-pic32gcc/bin/bin/../../lib/gcc/pic32mx/4.8.3/size\libgcc.a(_umoddi3.o)

.debug_pubnames
 *(.debug_pubnames)

.debug_info     0x00000000    0x60ab2
 *(.debug_info .gnu.linkonce.wi.*)
 .debug_info    0x00000000     0x36d6 C:\Users\nukem419\AppData\Local\V.Micro\Arduino\Builds\IREC_2017\chipKIT_chipkit_pic32_fubarino_sd\SD\File.cpp.o
 .debug_info    0x000036d6     0x4cc7 C:\Users\nukem419\AppData\Local\V.Micro\Arduino\Builds\IREC_2017\chipKIT_chipkit_pic32_fubarino_sd\SD\SD.cpp.o
 .debug_info    0x0000839d     0x2d69 C:\Users\nukem419\AppData\Local\V.Micro\Arduino\Builds\IREC_2017\chipKIT_chipkit_pic32_fubarino_sd\SD\utility\Sd2Card.cpp.o
 .debug_info    0x0000b106     0x695d C:\Users\nukem419\AppData\Local\V.Micro\Arduino\Builds\IREC_2017\chipKIT_chipkit_pic32_fubarino_sd\SD\utility\SdFile.cpp.o
 .debug_info    0x00011a63     0x3422 C:\Users\nukem419\AppData\Local\V.Micro\Arduino\Builds\IREC_2017\chipKIT_chipkit_pic32_fubarino_sd\SD\utility\SdVolume.cpp.o
 .debug_info    0x00014e85     0x39da C:\Users\nukem419\AppData\Local\V.Micro\Arduino\Builds\IREC_2017\chipKIT_chipkit_pic32_fubarino_sd\Wire\Wire.cpp.o
 .debug_info    0x0001885f     0xb89f C:\Users\nukem419\AppData\Local\V.Micro\Arduino\Builds\IREC_2017\chipKIT_chipkit_pic32_fubarino_sd\IREC_2017.cpp.o
 .debug_info    0x000240fe     0x1e18 C:\Users\nukem419\AppData\Local\V.Micro\Arduino\Builds\IREC_2017\chipKIT_chipkit_pic32_fubarino_sd\BMP180.cpp.o
 .debug_info    0x00025f16     0x5d99 C:\Users\nukem419\AppData\Local\V.Micro\Arduino\Builds\IREC_2017\chipKIT_chipkit_pic32_fubarino_sd\DataLogger.cpp.o
 .debug_info    0x0002bcaf     0x62e0 C:\Users\nukem419\AppData\Local\V.Micro\Arduino\Builds\IREC_2017\chipKIT_chipkit_pic32_fubarino_sd\EM_506.cpp.o
 .debug_info    0x00031f8f     0x1c23 C:\Users\nukem419\AppData\Local\V.Micro\Arduino\Builds\IREC_2017\chipKIT_chipkit_pic32_fubarino_sd\L3GD20TR.cpp.o
 .debug_info    0x00033bb2     0x17ee C:\Users\nukem419\AppData\Local\V.Micro\Arduino\Builds\IREC_2017\chipKIT_chipkit_pic32_fubarino_sd\LIS331HH.cpp.o
 .debug_info    0x000353a0     0x14e6 C:\Users\nukem419\AppData\Local\V.Micro\Arduino\Builds\IREC_2017\chipKIT_chipkit_pic32_fubarino_sd\Parameters.cpp.o
 .debug_info    0x00036886       0xa7 C:\Users\nukem419\AppData\Local\V.Micro\Arduino\Builds\IREC_2017\chipKIT_chipkit_pic32_fubarino_sd/core.a(crti.S.o)
 .debug_info    0x0003692d      0x861 C:\Users\nukem419\AppData\Local\V.Micro\Arduino\Builds\IREC_2017\chipKIT_chipkit_pic32_fubarino_sd/core.a(task_manager.c.o)
 .debug_info    0x0003718e     0x169c C:\Users\nukem419\AppData\Local\V.Micro\Arduino\Builds\IREC_2017\chipKIT_chipkit_pic32_fubarino_sd/core.a(wiring.c.o)
 .debug_info    0x0003882a      0x8cf C:\Users\nukem419\AppData\Local\V.Micro\Arduino\Builds\IREC_2017\chipKIT_chipkit_pic32_fubarino_sd/core.a(wiring_digital.c.o)
 .debug_info    0x000390f9     0x10b8 C:\Users\nukem419\AppData\Local\V.Micro\Arduino\Builds\IREC_2017\chipKIT_chipkit_pic32_fubarino_sd/core.a(WSystem.c.o)
 .debug_info    0x0003a1b1     0x412f C:\Users\nukem419\AppData\Local\V.Micro\Arduino\Builds\IREC_2017\chipKIT_chipkit_pic32_fubarino_sd/core.a(HardwareSerial.cpp.o)
 .debug_info    0x0003e2e0      0x29f C:\Users\nukem419\AppData\Local\V.Micro\Arduino\Builds\IREC_2017\chipKIT_chipkit_pic32_fubarino_sd/core.a(main.cpp.o)
 .debug_info    0x0003e57f     0x33f3 C:\Users\nukem419\AppData\Local\V.Micro\Arduino\Builds\IREC_2017\chipKIT_chipkit_pic32_fubarino_sd/core.a(Print.cpp.o)
 .debug_info    0x00041972     0x2885 C:\Users\nukem419\AppData\Local\V.Micro\Arduino\Builds\IREC_2017\chipKIT_chipkit_pic32_fubarino_sd/core.a(Stream.cpp.o)
 .debug_info    0x000441f7     0x4b21 C:\Users\nukem419\AppData\Local\V.Micro\Arduino\Builds\IREC_2017\chipKIT_chipkit_pic32_fubarino_sd/core.a(WString.cpp.o)
 .debug_info    0x00048d18       0xaf C:\Users\nukem419\AppData\Local\V.Micro\Arduino\Builds\IREC_2017\chipKIT_chipkit_pic32_fubarino_sd/core.a(vector_table.S.o)
 .debug_info    0x00048dc7      0xe75 C:\Users\nukem419\AppData\Local\V.Micro\Arduino\Builds\IREC_2017\chipKIT_chipkit_pic32_fubarino_sd/core.a(HardwareSerial_cdcacm.c.o)
 .debug_info    0x00049c3c     0x1b6f C:\Users\nukem419\AppData\Local\V.Micro\Arduino\Builds\IREC_2017\chipKIT_chipkit_pic32_fubarino_sd/core.a(HardwareSerial_usb.c.o)
 .debug_info    0x0004b7ab      0x3b6 C:\Users\nukem419\AppData\Local\V.Micro\Arduino\Builds\IREC_2017\chipKIT_chipkit_pic32_fubarino_sd/core.a(pins_arduino.c.o)
 .debug_info    0x0004bb61      0xa84 C:\Users\nukem419\AppData\Local\V.Micro\Arduino\Builds\IREC_2017\chipKIT_chipkit_pic32_fubarino_sd/core.a(wiring_analog.c.o)
 .debug_info    0x0004c5e5      0xeca C:\Users\nukem419\AppData\Local\V.Micro\Arduino\Builds\IREC_2017\chipKIT_chipkit_pic32_fubarino_sd/core.a(doprnt.cpp.o)
 .debug_info    0x0004d4af     0x13bf c:/users/nukem419/appdata/local/arduino15/packages/chipkit/tools/pic32-tools/1.42-pic32gcc/bin/bin/../../lib/gcc/pic32mx/4.8.3/../../../../pic32mx/lib/size\libsupc++.a(class_type_info.o)
 .debug_info    0x0004e86e      0x576 c:/users/nukem419/appdata/local/arduino15/packages/chipkit/tools/pic32-tools/1.42-pic32gcc/bin/bin/../../lib/gcc/pic32mx/4.8.3/../../../../pic32mx/lib/size\libsupc++.a(del_op.o)
 .debug_info    0x0004ede4     0x21e3 c:/users/nukem419/appdata/local/arduino15/packages/chipkit/tools/pic32-tools/1.42-pic32gcc/bin/bin/../../lib/gcc/pic32mx/4.8.3/../../../../pic32mx/lib/size\libsupc++.a(eh_personality.o)
 .debug_info    0x00050fc7      0xc22 c:/users/nukem419/appdata/local/arduino15/packages/chipkit/tools/pic32-tools/1.42-pic32gcc/bin/bin/../../lib/gcc/pic32mx/4.8.3/../../../../pic32mx/lib/size\libsupc++.a(eh_terminate.o)
 .debug_info    0x00051be9      0x95d c:/users/nukem419/appdata/local/arduino15/packages/chipkit/tools/pic32-tools/1.42-pic32gcc/bin/bin/../../lib/gcc/pic32mx/4.8.3/../../../../pic32mx/lib/size\libsupc++.a(eh_unex_handler.o)
 .debug_info    0x00052546      0x653 c:/users/nukem419/appdata/local/arduino15/packages/chipkit/tools/pic32-tools/1.42-pic32gcc/bin/bin/../../lib/gcc/pic32mx/4.8.3/../../../../pic32mx/lib/size\libsupc++.a(new_op.o)
 .debug_info    0x00052b99     0x10e7 c:/users/nukem419/appdata/local/arduino15/packages/chipkit/tools/pic32-tools/1.42-pic32gcc/bin/bin/../../lib/gcc/pic32mx/4.8.3/../../../../pic32mx/lib/size\libsupc++.a(si_class_type_info.o)
 .debug_info    0x00053c80      0xbf1 c:/users/nukem419/appdata/local/arduino15/packages/chipkit/tools/pic32-tools/1.42-pic32gcc/bin/bin/../../lib/gcc/pic32mx/4.8.3/../../../../pic32mx/lib/size\libsupc++.a(tinfo.o)
 .debug_info    0x00054871      0x97b c:/users/nukem419/appdata/local/arduino15/packages/chipkit/tools/pic32-tools/1.42-pic32gcc/bin/bin/../../lib/gcc/pic32mx/4.8.3/../../../../pic32mx/lib/size\libsupc++.a(pure.o)
 .debug_info    0x000551ec      0xe2b c:/users/nukem419/appdata/local/arduino15/packages/chipkit/tools/pic32-tools/1.42-pic32gcc/bin/bin/../../lib/gcc/pic32mx/4.8.3/../../../../pic32mx/lib/size\libsupc++.a(eh_call.o)
 .debug_info    0x00056017     0x109c c:/users/nukem419/appdata/local/arduino15/packages/chipkit/tools/pic32-tools/1.42-pic32gcc/bin/bin/../../lib/gcc/pic32mx/4.8.3/../../../../pic32mx/lib/size\libsupc++.a(eh_catch.o)
 .debug_info    0x000570b3      0xd59 c:/users/nukem419/appdata/local/arduino15/packages/chipkit/tools/pic32-tools/1.42-pic32gcc/bin/bin/../../lib/gcc/pic32mx/4.8.3/../../../../pic32mx/lib/size\libsupc++.a(eh_globals.o)
 .debug_info    0x00057e0c      0x95a c:/users/nukem419/appdata/local/arduino15/packages/chipkit/tools/pic32-tools/1.42-pic32gcc/bin/bin/../../lib/gcc/pic32mx/4.8.3/../../../../pic32mx/lib/size\libsupc++.a(eh_term_handler.o)
 .debug_info    0x00058766      0x623 c:/users/nukem419/appdata/local/arduino15/packages/chipkit/tools/pic32-tools/1.42-pic32gcc/bin/bin/../../lib/gcc/pic32mx/4.8.3/../../../../pic32mx/lib/size\libsupc++.a(new_handler.o)
 .debug_info    0x00058d89      0x433 c:/users/nukem419/appdata/local/arduino15/packages/chipkit/tools/pic32-tools/1.42-pic32gcc/bin/bin/../../lib/gcc/pic32mx/4.8.3/size\libgcc.a(addsf3.o)
 .debug_info    0x000591bc      0x49c c:/users/nukem419/appdata/local/arduino15/packages/chipkit/tools/pic32-tools/1.42-pic32gcc/bin/bin/../../lib/gcc/pic32mx/4.8.3/size\libgcc.a(divsf3.o)
 .debug_info    0x00059658      0x301 c:/users/nukem419/appdata/local/arduino15/packages/chipkit/tools/pic32-tools/1.42-pic32gcc/bin/bin/../../lib/gcc/pic32mx/4.8.3/size\libgcc.a(eqsf2.o)
 .debug_info    0x00059959      0x341 c:/users/nukem419/appdata/local/arduino15/packages/chipkit/tools/pic32-tools/1.42-pic32gcc/bin/bin/../../lib/gcc/pic32mx/4.8.3/size\libgcc.a(gesf2.o)
 .debug_info    0x00059c9a      0x434 c:/users/nukem419/appdata/local/arduino15/packages/chipkit/tools/pic32-tools/1.42-pic32gcc/bin/bin/../../lib/gcc/pic32mx/4.8.3/size\libgcc.a(mulsf3.o)
 .debug_info    0x0005a0ce      0x437 c:/users/nukem419/appdata/local/arduino15/packages/chipkit/tools/pic32-tools/1.42-pic32gcc/bin/bin/../../lib/gcc/pic32mx/4.8.3/size\libgcc.a(subsf3.o)
 .debug_info    0x0005a505      0x2d3 c:/users/nukem419/appdata/local/arduino15/packages/chipkit/tools/pic32-tools/1.42-pic32gcc/bin/bin/../../lib/gcc/pic32mx/4.8.3/size\libgcc.a(fixsfsi.o)
 .debug_info    0x0005a7d8      0x2c9 c:/users/nukem419/appdata/local/arduino15/packages/chipkit/tools/pic32-tools/1.42-pic32gcc/bin/bin/../../lib/gcc/pic32mx/4.8.3/size\libgcc.a(fixunssfsi.o)
 .debug_info    0x0005aaa1      0x32f c:/users/nukem419/appdata/local/arduino15/packages/chipkit/tools/pic32-tools/1.42-pic32gcc/bin/bin/../../lib/gcc/pic32mx/4.8.3/size\libgcc.a(floatsisf.o)
 .debug_info    0x0005add0      0x16b c:/users/nukem419/appdata/local/arduino15/packages/chipkit/tools/pic32-tools/1.42-pic32gcc/bin/bin/../../lib/gcc/pic32mx/4.8.3/size\libgcc.a(floatunsisf.o)
 .debug_info    0x0005af3b      0x2cb c:/users/nukem419/appdata/local/arduino15/packages/chipkit/tools/pic32-tools/1.42-pic32gcc/bin/bin/../../lib/gcc/pic32mx/4.8.3/size\libgcc.a(fixunssfdi.o)
 .debug_info    0x0005b206      0x624 c:/users/nukem419/appdata/local/arduino15/packages/chipkit/tools/pic32-tools/1.42-pic32gcc/bin/bin/../../lib/gcc/pic32mx/4.8.3/size\libgcc.a(adddf3.o)
 .debug_info    0x0005b82a      0x695 c:/users/nukem419/appdata/local/arduino15/packages/chipkit/tools/pic32-tools/1.42-pic32gcc/bin/bin/../../lib/gcc/pic32mx/4.8.3/size\libgcc.a(divdf3.o)
 .debug_info    0x0005bebf      0x32f c:/users/nukem419/appdata/local/arduino15/packages/chipkit/tools/pic32-tools/1.42-pic32gcc/bin/bin/../../lib/gcc/pic32mx/4.8.3/size\libgcc.a(eqdf2.o)
 .debug_info    0x0005c1ee      0x373 c:/users/nukem419/appdata/local/arduino15/packages/chipkit/tools/pic32-tools/1.42-pic32gcc/bin/bin/../../lib/gcc/pic32mx/4.8.3/size\libgcc.a(gedf2.o)
 .debug_info    0x0005c561      0x36b c:/users/nukem419/appdata/local/arduino15/packages/chipkit/tools/pic32-tools/1.42-pic32gcc/bin/bin/../../lib/gcc/pic32mx/4.8.3/size\libgcc.a(ledf2.o)
 .debug_info    0x0005c8cc      0x5fd c:/users/nukem419/appdata/local/arduino15/packages/chipkit/tools/pic32-tools/1.42-pic32gcc/bin/bin/../../lib/gcc/pic32mx/4.8.3/size\libgcc.a(muldf3.o)
 .debug_info    0x0005cec9      0x628 c:/users/nukem419/appdata/local/arduino15/packages/chipkit/tools/pic32-tools/1.42-pic32gcc/bin/bin/../../lib/gcc/pic32mx/4.8.3/size\libgcc.a(subdf3.o)
 .debug_info    0x0005d4f1      0x2fc c:/users/nukem419/appdata/local/arduino15/packages/chipkit/tools/pic32-tools/1.42-pic32gcc/bin/bin/../../lib/gcc/pic32mx/4.8.3/size\libgcc.a(fixdfsi.o)
 .debug_info    0x0005d7ed      0x2f0 c:/users/nukem419/appdata/local/arduino15/packages/chipkit/tools/pic32-tools/1.42-pic32gcc/bin/bin/../../lib/gcc/pic32mx/4.8.3/size\libgcc.a(fixunsdfsi.o)
 .debug_info    0x0005dadd      0x31e c:/users/nukem419/appdata/local/arduino15/packages/chipkit/tools/pic32-tools/1.42-pic32gcc/bin/bin/../../lib/gcc/pic32mx/4.8.3/size\libgcc.a(floatsidf.o)
 .debug_info    0x0005ddfb      0x179 c:/users/nukem419/appdata/local/arduino15/packages/chipkit/tools/pic32-tools/1.42-pic32gcc/bin/bin/../../lib/gcc/pic32mx/4.8.3/size\libgcc.a(floatunsidf.o)
 .debug_info    0x0005df74      0x3ab c:/users/nukem419/appdata/local/arduino15/packages/chipkit/tools/pic32-tools/1.42-pic32gcc/bin/bin/../../lib/gcc/pic32mx/4.8.3/size\libgcc.a(extendsfdf2.o)
 .debug_info    0x0005e31f      0x3c7 c:/users/nukem419/appdata/local/arduino15/packages/chipkit/tools/pic32-tools/1.42-pic32gcc/bin/bin/../../lib/gcc/pic32mx/4.8.3/size\libgcc.a(truncdfsf2.o)
 .debug_info    0x0005e6e6     0x11f9 c:/users/nukem419/appdata/local/arduino15/packages/chipkit/tools/pic32-tools/1.42-pic32gcc/bin/bin/../../lib/gcc/pic32mx/4.8.3/size\libgcc.a(unwind-sjlj.o)
 .debug_info    0x0005f8df      0x2f8 c:/users/nukem419/appdata/local/arduino15/packages/chipkit/tools/pic32-tools/1.42-pic32gcc/bin/bin/../../lib/gcc/pic32mx/4.8.3/size\libgcc.a(_ashldi3.o)
 .debug_info    0x0005fbd7      0x741 c:/users/nukem419/appdata/local/arduino15/packages/chipkit/tools/pic32-tools/1.42-pic32gcc/bin/bin/../../lib/gcc/pic32mx/4.8.3/size\libgcc.a(_udivdi3.o)
 .debug_info    0x00060318      0x79a c:/users/nukem419/appdata/local/arduino15/packages/chipkit/tools/pic32-tools/1.42-pic32gcc/bin/bin/../../lib/gcc/pic32mx/4.8.3/size\libgcc.a(_umoddi3.o)

.debug_abbrev   0x00000000     0xc099
 *(.debug_abbrev)
 .debug_abbrev  0x00000000      0x546 C:\Users\nukem419\AppData\Local\V.Micro\Arduino\Builds\IREC_2017\chipKIT_chipkit_pic32_fubarino_sd\SD\File.cpp.o
 .debug_abbrev  0x00000546      0x7e8 C:\Users\nukem419\AppData\Local\V.Micro\Arduino\Builds\IREC_2017\chipKIT_chipkit_pic32_fubarino_sd\SD\SD.cpp.o
 .debug_abbrev  0x00000d2e      0x4dd C:\Users\nukem419\AppData\Local\V.Micro\Arduino\Builds\IREC_2017\chipKIT_chipkit_pic32_fubarino_sd\SD\utility\Sd2Card.cpp.o
 .debug_abbrev  0x0000120b      0x95d C:\Users\nukem419\AppData\Local\V.Micro\Arduino\Builds\IREC_2017\chipKIT_chipkit_pic32_fubarino_sd\SD\utility\SdFile.cpp.o
 .debug_abbrev  0x00001b68      0x5bc C:\Users\nukem419\AppData\Local\V.Micro\Arduino\Builds\IREC_2017\chipKIT_chipkit_pic32_fubarino_sd\SD\utility\SdVolume.cpp.o
 .debug_abbrev  0x00002124      0x86a C:\Users\nukem419\AppData\Local\V.Micro\Arduino\Builds\IREC_2017\chipKIT_chipkit_pic32_fubarino_sd\Wire\Wire.cpp.o
 .debug_abbrev  0x0000298e      0x7db C:\Users\nukem419\AppData\Local\V.Micro\Arduino\Builds\IREC_2017\chipKIT_chipkit_pic32_fubarino_sd\IREC_2017.cpp.o
 .debug_abbrev  0x00003169      0x38c C:\Users\nukem419\AppData\Local\V.Micro\Arduino\Builds\IREC_2017\chipKIT_chipkit_pic32_fubarino_sd\BMP180.cpp.o
 .debug_abbrev  0x000034f5      0x749 C:\Users\nukem419\AppData\Local\V.Micro\Arduino\Builds\IREC_2017\chipKIT_chipkit_pic32_fubarino_sd\DataLogger.cpp.o
 .debug_abbrev  0x00003c3e      0x523 C:\Users\nukem419\AppData\Local\V.Micro\Arduino\Builds\IREC_2017\chipKIT_chipkit_pic32_fubarino_sd\EM_506.cpp.o
 .debug_abbrev  0x00004161      0x330 C:\Users\nukem419\AppData\Local\V.Micro\Arduino\Builds\IREC_2017\chipKIT_chipkit_pic32_fubarino_sd\L3GD20TR.cpp.o
 .debug_abbrev  0x00004491      0x2da C:\Users\nukem419\AppData\Local\V.Micro\Arduino\Builds\IREC_2017\chipKIT_chipkit_pic32_fubarino_sd\LIS331HH.cpp.o
 .debug_abbrev  0x0000476b      0x352 C:\Users\nukem419\AppData\Local\V.Micro\Arduino\Builds\IREC_2017\chipKIT_chipkit_pic32_fubarino_sd\Parameters.cpp.o
 .debug_abbrev  0x00004abd       0x12 C:\Users\nukem419\AppData\Local\V.Micro\Arduino\Builds\IREC_2017\chipKIT_chipkit_pic32_fubarino_sd/core.a(crti.S.o)
 .debug_abbrev  0x00004acf      0x209 C:\Users\nukem419\AppData\Local\V.Micro\Arduino\Builds\IREC_2017\chipKIT_chipkit_pic32_fubarino_sd/core.a(task_manager.c.o)
 .debug_abbrev  0x00004cd8      0x3a4 C:\Users\nukem419\AppData\Local\V.Micro\Arduino\Builds\IREC_2017\chipKIT_chipkit_pic32_fubarino_sd/core.a(wiring.c.o)
 .debug_abbrev  0x0000507c      0x1da C:\Users\nukem419\AppData\Local\V.Micro\Arduino\Builds\IREC_2017\chipKIT_chipkit_pic32_fubarino_sd/core.a(wiring_digital.c.o)
 .debug_abbrev  0x00005256      0x301 C:\Users\nukem419\AppData\Local\V.Micro\Arduino\Builds\IREC_2017\chipKIT_chipkit_pic32_fubarino_sd/core.a(WSystem.c.o)
 .debug_abbrev  0x00005557      0x7e8 C:\Users\nukem419\AppData\Local\V.Micro\Arduino\Builds\IREC_2017\chipKIT_chipkit_pic32_fubarino_sd/core.a(HardwareSerial.cpp.o)
 .debug_abbrev  0x00005d3f       0x97 C:\Users\nukem419\AppData\Local\V.Micro\Arduino\Builds\IREC_2017\chipKIT_chipkit_pic32_fubarino_sd/core.a(main.cpp.o)
 .debug_abbrev  0x00005dd6      0x49b C:\Users\nukem419\AppData\Local\V.Micro\Arduino\Builds\IREC_2017\chipKIT_chipkit_pic32_fubarino_sd/core.a(Print.cpp.o)
 .debug_abbrev  0x00006271      0x49c C:\Users\nukem419\AppData\Local\V.Micro\Arduino\Builds\IREC_2017\chipKIT_chipkit_pic32_fubarino_sd/core.a(Stream.cpp.o)
 .debug_abbrev  0x0000670d      0x604 C:\Users\nukem419\AppData\Local\V.Micro\Arduino\Builds\IREC_2017\chipKIT_chipkit_pic32_fubarino_sd/core.a(WString.cpp.o)
 .debug_abbrev  0x00006d11       0x12 C:\Users\nukem419\AppData\Local\V.Micro\Arduino\Builds\IREC_2017\chipKIT_chipkit_pic32_fubarino_sd/core.a(vector_table.S.o)
 .debug_abbrev  0x00006d23      0x31a C:\Users\nukem419\AppData\Local\V.Micro\Arduino\Builds\IREC_2017\chipKIT_chipkit_pic32_fubarino_sd/core.a(HardwareSerial_cdcacm.c.o)
 .debug_abbrev  0x0000703d      0x303 C:\Users\nukem419\AppData\Local\V.Micro\Arduino\Builds\IREC_2017\chipKIT_chipkit_pic32_fubarino_sd/core.a(HardwareSerial_usb.c.o)
 .debug_abbrev  0x00007340       0xa6 C:\Users\nukem419\AppData\Local\V.Micro\Arduino\Builds\IREC_2017\chipKIT_chipkit_pic32_fubarino_sd/core.a(pins_arduino.c.o)
 .debug_abbrev  0x000073e6      0x30c C:\Users\nukem419\AppData\Local\V.Micro\Arduino\Builds\IREC_2017\chipKIT_chipkit_pic32_fubarino_sd/core.a(wiring_analog.c.o)
 .debug_abbrev  0x000076f2      0x2a1 C:\Users\nukem419\AppData\Local\V.Micro\Arduino\Builds\IREC_2017\chipKIT_chipkit_pic32_fubarino_sd/core.a(doprnt.cpp.o)
 .debug_abbrev  0x00007993      0x52c c:/users/nukem419/appdata/local/arduino15/packages/chipkit/tools/pic32-tools/1.42-pic32gcc/bin/bin/../../lib/gcc/pic32mx/4.8.3/../../../../pic32mx/lib/size\libsupc++.a(class_type_info.o)
 .debug_abbrev  0x00007ebf      0x1bf c:/users/nukem419/appdata/local/arduino15/packages/chipkit/tools/pic32-tools/1.42-pic32gcc/bin/bin/../../lib/gcc/pic32mx/4.8.3/../../../../pic32mx/lib/size\libsupc++.a(del_op.o)
 .debug_abbrev  0x0000807e      0x604 c:/users/nukem419/appdata/local/arduino15/packages/chipkit/tools/pic32-tools/1.42-pic32gcc/bin/bin/../../lib/gcc/pic32mx/4.8.3/../../../../pic32mx/lib/size\libsupc++.a(eh_personality.o)
 .debug_abbrev  0x00008682      0x2e2 c:/users/nukem419/appdata/local/arduino15/packages/chipkit/tools/pic32-tools/1.42-pic32gcc/bin/bin/../../lib/gcc/pic32mx/4.8.3/../../../../pic32mx/lib/size\libsupc++.a(eh_terminate.o)
 .debug_abbrev  0x00008964      0x227 c:/users/nukem419/appdata/local/arduino15/packages/chipkit/tools/pic32-tools/1.42-pic32gcc/bin/bin/../../lib/gcc/pic32mx/4.8.3/../../../../pic32mx/lib/size\libsupc++.a(eh_unex_handler.o)
 .debug_abbrev  0x00008b8b      0x217 c:/users/nukem419/appdata/local/arduino15/packages/chipkit/tools/pic32-tools/1.42-pic32gcc/bin/bin/../../lib/gcc/pic32mx/4.8.3/../../../../pic32mx/lib/size\libsupc++.a(new_op.o)
 .debug_abbrev  0x00008da2      0x49a c:/users/nukem419/appdata/local/arduino15/packages/chipkit/tools/pic32-tools/1.42-pic32gcc/bin/bin/../../lib/gcc/pic32mx/4.8.3/../../../../pic32mx/lib/size\libsupc++.a(si_class_type_info.o)
 .debug_abbrev  0x0000923c      0x348 c:/users/nukem419/appdata/local/arduino15/packages/chipkit/tools/pic32-tools/1.42-pic32gcc/bin/bin/../../lib/gcc/pic32mx/4.8.3/../../../../pic32mx/lib/size\libsupc++.a(tinfo.o)
 .debug_abbrev  0x00009584      0x252 c:/users/nukem419/appdata/local/arduino15/packages/chipkit/tools/pic32-tools/1.42-pic32gcc/bin/bin/../../lib/gcc/pic32mx/4.8.3/../../../../pic32mx/lib/size\libsupc++.a(pure.o)
 .debug_abbrev  0x000097d6      0x354 c:/users/nukem419/appdata/local/arduino15/packages/chipkit/tools/pic32-tools/1.42-pic32gcc/bin/bin/../../lib/gcc/pic32mx/4.8.3/../../../../pic32mx/lib/size\libsupc++.a(eh_call.o)
 .debug_abbrev  0x00009b2a      0x3c0 c:/users/nukem419/appdata/local/arduino15/packages/chipkit/tools/pic32-tools/1.42-pic32gcc/bin/bin/../../lib/gcc/pic32mx/4.8.3/../../../../pic32mx/lib/size\libsupc++.a(eh_catch.o)
 .debug_abbrev  0x00009eea      0x289 c:/users/nukem419/appdata/local/arduino15/packages/chipkit/tools/pic32-tools/1.42-pic32gcc/bin/bin/../../lib/gcc/pic32mx/4.8.3/../../../../pic32mx/lib/size\libsupc++.a(eh_globals.o)
 .debug_abbrev  0x0000a173      0x227 c:/users/nukem419/appdata/local/arduino15/packages/chipkit/tools/pic32-tools/1.42-pic32gcc/bin/bin/../../lib/gcc/pic32mx/4.8.3/../../../../pic32mx/lib/size\libsupc++.a(eh_term_handler.o)
 .debug_abbrev  0x0000a39a      0x202 c:/users/nukem419/appdata/local/arduino15/packages/chipkit/tools/pic32-tools/1.42-pic32gcc/bin/bin/../../lib/gcc/pic32mx/4.8.3/../../../../pic32mx/lib/size\libsupc++.a(new_handler.o)
 .debug_abbrev  0x0000a59c       0xf5 c:/users/nukem419/appdata/local/arduino15/packages/chipkit/tools/pic32-tools/1.42-pic32gcc/bin/bin/../../lib/gcc/pic32mx/4.8.3/size\libgcc.a(addsf3.o)
 .debug_abbrev  0x0000a691       0xdd c:/users/nukem419/appdata/local/arduino15/packages/chipkit/tools/pic32-tools/1.42-pic32gcc/bin/bin/../../lib/gcc/pic32mx/4.8.3/size\libgcc.a(divsf3.o)
 .debug_abbrev  0x0000a76e       0xe3 c:/users/nukem419/appdata/local/arduino15/packages/chipkit/tools/pic32-tools/1.42-pic32gcc/bin/bin/../../lib/gcc/pic32mx/4.8.3/size\libgcc.a(eqsf2.o)
 .debug_abbrev  0x0000a851       0xe1 c:/users/nukem419/appdata/local/arduino15/packages/chipkit/tools/pic32-tools/1.42-pic32gcc/bin/bin/../../lib/gcc/pic32mx/4.8.3/size\libgcc.a(gesf2.o)
 .debug_abbrev  0x0000a932       0xdd c:/users/nukem419/appdata/local/arduino15/packages/chipkit/tools/pic32-tools/1.42-pic32gcc/bin/bin/../../lib/gcc/pic32mx/4.8.3/size\libgcc.a(mulsf3.o)
 .debug_abbrev  0x0000aa0f       0xf5 c:/users/nukem419/appdata/local/arduino15/packages/chipkit/tools/pic32-tools/1.42-pic32gcc/bin/bin/../../lib/gcc/pic32mx/4.8.3/size\libgcc.a(subsf3.o)
 .debug_abbrev  0x0000ab04       0xd4 c:/users/nukem419/appdata/local/arduino15/packages/chipkit/tools/pic32-tools/1.42-pic32gcc/bin/bin/../../lib/gcc/pic32mx/4.8.3/size\libgcc.a(fixsfsi.o)
 .debug_abbrev  0x0000abd8       0xe3 c:/users/nukem419/appdata/local/arduino15/packages/chipkit/tools/pic32-tools/1.42-pic32gcc/bin/bin/../../lib/gcc/pic32mx/4.8.3/size\libgcc.a(fixunssfsi.o)
 .debug_abbrev  0x0000acbb       0xf1 c:/users/nukem419/appdata/local/arduino15/packages/chipkit/tools/pic32-tools/1.42-pic32gcc/bin/bin/../../lib/gcc/pic32mx/4.8.3/size\libgcc.a(floatsisf.o)
 .debug_abbrev  0x0000adac       0x64 c:/users/nukem419/appdata/local/arduino15/packages/chipkit/tools/pic32-tools/1.42-pic32gcc/bin/bin/../../lib/gcc/pic32mx/4.8.3/size\libgcc.a(floatunsisf.o)
 .debug_abbrev  0x0000ae10       0xd4 c:/users/nukem419/appdata/local/arduino15/packages/chipkit/tools/pic32-tools/1.42-pic32gcc/bin/bin/../../lib/gcc/pic32mx/4.8.3/size\libgcc.a(fixunssfdi.o)
 .debug_abbrev  0x0000aee4       0xe2 c:/users/nukem419/appdata/local/arduino15/packages/chipkit/tools/pic32-tools/1.42-pic32gcc/bin/bin/../../lib/gcc/pic32mx/4.8.3/size\libgcc.a(adddf3.o)
 .debug_abbrev  0x0000afc6       0xce c:/users/nukem419/appdata/local/arduino15/packages/chipkit/tools/pic32-tools/1.42-pic32gcc/bin/bin/../../lib/gcc/pic32mx/4.8.3/size\libgcc.a(divdf3.o)
 .debug_abbrev  0x0000b094       0xf2 c:/users/nukem419/appdata/local/arduino15/packages/chipkit/tools/pic32-tools/1.42-pic32gcc/bin/bin/../../lib/gcc/pic32mx/4.8.3/size\libgcc.a(eqdf2.o)
 .debug_abbrev  0x0000b186       0xf0 c:/users/nukem419/appdata/local/arduino15/packages/chipkit/tools/pic32-tools/1.42-pic32gcc/bin/bin/../../lib/gcc/pic32mx/4.8.3/size\libgcc.a(gedf2.o)
 .debug_abbrev  0x0000b276       0xf0 c:/users/nukem419/appdata/local/arduino15/packages/chipkit/tools/pic32-tools/1.42-pic32gcc/bin/bin/../../lib/gcc/pic32mx/4.8.3/size\libgcc.a(ledf2.o)
 .debug_abbrev  0x0000b366       0xe7 c:/users/nukem419/appdata/local/arduino15/packages/chipkit/tools/pic32-tools/1.42-pic32gcc/bin/bin/../../lib/gcc/pic32mx/4.8.3/size\libgcc.a(muldf3.o)
 .debug_abbrev  0x0000b44d       0xe2 c:/users/nukem419/appdata/local/arduino15/packages/chipkit/tools/pic32-tools/1.42-pic32gcc/bin/bin/../../lib/gcc/pic32mx/4.8.3/size\libgcc.a(subdf3.o)
 .debug_abbrev  0x0000b52f       0xd4 c:/users/nukem419/appdata/local/arduino15/packages/chipkit/tools/pic32-tools/1.42-pic32gcc/bin/bin/../../lib/gcc/pic32mx/4.8.3/size\libgcc.a(fixdfsi.o)
 .debug_abbrev  0x0000b603       0xd4 c:/users/nukem419/appdata/local/arduino15/packages/chipkit/tools/pic32-tools/1.42-pic32gcc/bin/bin/../../lib/gcc/pic32mx/4.8.3/size\libgcc.a(fixunsdfsi.o)
 .debug_abbrev  0x0000b6d7       0xdd c:/users/nukem419/appdata/local/arduino15/packages/chipkit/tools/pic32-tools/1.42-pic32gcc/bin/bin/../../lib/gcc/pic32mx/4.8.3/size\libgcc.a(floatsidf.o)
 .debug_abbrev  0x0000b7b4       0x64 c:/users/nukem419/appdata/local/arduino15/packages/chipkit/tools/pic32-tools/1.42-pic32gcc/bin/bin/../../lib/gcc/pic32mx/4.8.3/size\libgcc.a(floatunsidf.o)
 .debug_abbrev  0x0000b818       0xdd c:/users/nukem419/appdata/local/arduino15/packages/chipkit/tools/pic32-tools/1.42-pic32gcc/bin/bin/../../lib/gcc/pic32mx/4.8.3/size\libgcc.a(extendsfdf2.o)
 .debug_abbrev  0x0000b8f5       0xdd c:/users/nukem419/appdata/local/arduino15/packages/chipkit/tools/pic32-tools/1.42-pic32gcc/bin/bin/../../lib/gcc/pic32mx/4.8.3/size\libgcc.a(truncdfsf2.o)
 .debug_abbrev  0x0000b9d2      0x392 c:/users/nukem419/appdata/local/arduino15/packages/chipkit/tools/pic32-tools/1.42-pic32gcc/bin/bin/../../lib/gcc/pic32mx/4.8.3/size\libgcc.a(unwind-sjlj.o)
 .debug_abbrev  0x0000bd64       0xc8 c:/users/nukem419/appdata/local/arduino15/packages/chipkit/tools/pic32-tools/1.42-pic32gcc/bin/bin/../../lib/gcc/pic32mx/4.8.3/size\libgcc.a(_ashldi3.o)
 .debug_abbrev  0x0000be2c      0x12f c:/users/nukem419/appdata/local/arduino15/packages/chipkit/tools/pic32-tools/1.42-pic32gcc/bin/bin/../../lib/gcc/pic32mx/4.8.3/size\libgcc.a(_udivdi3.o)
 .debug_abbrev  0x0000bf5b      0x13e c:/users/nukem419/appdata/local/arduino15/packages/chipkit/tools/pic32-tools/1.42-pic32gcc/bin/bin/../../lib/gcc/pic32mx/4.8.3/size\libgcc.a(_umoddi3.o)

.debug_line     0x00000000     0xd382
 *(.debug_line)
 .debug_line    0x00000000      0x4a3 C:\Users\nukem419\AppData\Local\V.Micro\Arduino\Builds\IREC_2017\chipKIT_chipkit_pic32_fubarino_sd\SD\File.cpp.o
 .debug_line    0x000004a3      0x63c C:\Users\nukem419\AppData\Local\V.Micro\Arduino\Builds\IREC_2017\chipKIT_chipkit_pic32_fubarino_sd\SD\SD.cpp.o
 .debug_line    0x00000adf      0x6b8 C:\Users\nukem419\AppData\Local\V.Micro\Arduino\Builds\IREC_2017\chipKIT_chipkit_pic32_fubarino_sd\SD\utility\Sd2Card.cpp.o
 .debug_line    0x00001197      0xb51 C:\Users\nukem419\AppData\Local\V.Micro\Arduino\Builds\IREC_2017\chipKIT_chipkit_pic32_fubarino_sd\SD\utility\SdFile.cpp.o
 .debug_line    0x00001ce8      0x3aa C:\Users\nukem419\AppData\Local\V.Micro\Arduino\Builds\IREC_2017\chipKIT_chipkit_pic32_fubarino_sd\SD\utility\SdVolume.cpp.o
 .debug_line    0x00002092      0xbd4 C:\Users\nukem419\AppData\Local\V.Micro\Arduino\Builds\IREC_2017\chipKIT_chipkit_pic32_fubarino_sd\Wire\Wire.cpp.o
 .debug_line    0x00002c66      0xf1e C:\Users\nukem419\AppData\Local\V.Micro\Arduino\Builds\IREC_2017\chipKIT_chipkit_pic32_fubarino_sd\IREC_2017.cpp.o
 .debug_line    0x00003b84      0x4ad C:\Users\nukem419\AppData\Local\V.Micro\Arduino\Builds\IREC_2017\chipKIT_chipkit_pic32_fubarino_sd\BMP180.cpp.o
 .debug_line    0x00004031      0x4a2 C:\Users\nukem419\AppData\Local\V.Micro\Arduino\Builds\IREC_2017\chipKIT_chipkit_pic32_fubarino_sd\DataLogger.cpp.o
 .debug_line    0x000044d3      0x67f C:\Users\nukem419\AppData\Local\V.Micro\Arduino\Builds\IREC_2017\chipKIT_chipkit_pic32_fubarino_sd\EM_506.cpp.o
 .debug_line    0x00004b52      0x3b3 C:\Users\nukem419\AppData\Local\V.Micro\Arduino\Builds\IREC_2017\chipKIT_chipkit_pic32_fubarino_sd\L3GD20TR.cpp.o
 .debug_line    0x00004f05      0x316 C:\Users\nukem419\AppData\Local\V.Micro\Arduino\Builds\IREC_2017\chipKIT_chipkit_pic32_fubarino_sd\LIS331HH.cpp.o
 .debug_line    0x0000521b      0x3a9 C:\Users\nukem419\AppData\Local\V.Micro\Arduino\Builds\IREC_2017\chipKIT_chipkit_pic32_fubarino_sd\Parameters.cpp.o
 .debug_line    0x000055c4        0x0 C:\Users\nukem419\AppData\Local\V.Micro\Arduino\Builds\IREC_2017\chipKIT_chipkit_pic32_fubarino_sd\WSU_mavlink.cpp.o
 .debug_line    0x000055c4       0xa3 C:\Users\nukem419\AppData\Local\V.Micro\Arduino\Builds\IREC_2017\chipKIT_chipkit_pic32_fubarino_sd/core.a(crti.S.o)
 .debug_line    0x00005667      0x33e C:\Users\nukem419\AppData\Local\V.Micro\Arduino\Builds\IREC_2017\chipKIT_chipkit_pic32_fubarino_sd/core.a(task_manager.c.o)
 .debug_line    0x000059a5      0x39a C:\Users\nukem419\AppData\Local\V.Micro\Arduino\Builds\IREC_2017\chipKIT_chipkit_pic32_fubarino_sd/core.a(wiring.c.o)
 .debug_line    0x00005d3f      0x2e0 C:\Users\nukem419\AppData\Local\V.Micro\Arduino\Builds\IREC_2017\chipKIT_chipkit_pic32_fubarino_sd/core.a(wiring_digital.c.o)
 .debug_line    0x0000601f      0x459 C:\Users\nukem419\AppData\Local\V.Micro\Arduino\Builds\IREC_2017\chipKIT_chipkit_pic32_fubarino_sd/core.a(WSystem.c.o)
 .debug_line    0x00006478      0x70c C:\Users\nukem419\AppData\Local\V.Micro\Arduino\Builds\IREC_2017\chipKIT_chipkit_pic32_fubarino_sd/core.a(HardwareSerial.cpp.o)
 .debug_line    0x00006b84      0x190 C:\Users\nukem419\AppData\Local\V.Micro\Arduino\Builds\IREC_2017\chipKIT_chipkit_pic32_fubarino_sd/core.a(main.cpp.o)
 .debug_line    0x00006d14      0x52f C:\Users\nukem419\AppData\Local\V.Micro\Arduino\Builds\IREC_2017\chipKIT_chipkit_pic32_fubarino_sd/core.a(Print.cpp.o)
 .debug_line    0x00007243      0x3f3 C:\Users\nukem419\AppData\Local\V.Micro\Arduino\Builds\IREC_2017\chipKIT_chipkit_pic32_fubarino_sd/core.a(Stream.cpp.o)
 .debug_line    0x00007636      0xb93 C:\Users\nukem419\AppData\Local\V.Micro\Arduino\Builds\IREC_2017\chipKIT_chipkit_pic32_fubarino_sd/core.a(WString.cpp.o)
 .debug_line    0x000081c9      0x48b C:\Users\nukem419\AppData\Local\V.Micro\Arduino\Builds\IREC_2017\chipKIT_chipkit_pic32_fubarino_sd/core.a(vector_table.S.o)
 .debug_line    0x00008654      0x3ab C:\Users\nukem419\AppData\Local\V.Micro\Arduino\Builds\IREC_2017\chipKIT_chipkit_pic32_fubarino_sd/core.a(HardwareSerial_cdcacm.c.o)
 .debug_line    0x000089ff      0x48b C:\Users\nukem419\AppData\Local\V.Micro\Arduino\Builds\IREC_2017\chipKIT_chipkit_pic32_fubarino_sd/core.a(HardwareSerial_usb.c.o)
 .debug_line    0x00008e8a      0x1ad C:\Users\nukem419\AppData\Local\V.Micro\Arduino\Builds\IREC_2017\chipKIT_chipkit_pic32_fubarino_sd/core.a(pins_arduino.c.o)
 .debug_line    0x00009037      0x39f C:\Users\nukem419\AppData\Local\V.Micro\Arduino\Builds\IREC_2017\chipKIT_chipkit_pic32_fubarino_sd/core.a(wiring_analog.c.o)
 .debug_line    0x000093d6      0x631 C:\Users\nukem419\AppData\Local\V.Micro\Arduino\Builds\IREC_2017\chipKIT_chipkit_pic32_fubarino_sd/core.a(doprnt.cpp.o)
 .debug_line    0x00009a07      0x28e c:/users/nukem419/appdata/local/arduino15/packages/chipkit/tools/pic32-tools/1.42-pic32gcc/bin/bin/../../lib/gcc/pic32mx/4.8.3/../../../../pic32mx/lib/size\libsupc++.a(class_type_info.o)
 .debug_line    0x00009c95      0x14a c:/users/nukem419/appdata/local/arduino15/packages/chipkit/tools/pic32-tools/1.42-pic32gcc/bin/bin/../../lib/gcc/pic32mx/4.8.3/../../../../pic32mx/lib/size\libsupc++.a(del_op.o)
 .debug_line    0x00009ddf      0x520 c:/users/nukem419/appdata/local/arduino15/packages/chipkit/tools/pic32-tools/1.42-pic32gcc/bin/bin/../../lib/gcc/pic32mx/4.8.3/../../../../pic32mx/lib/size\libsupc++.a(eh_personality.o)
 .debug_line    0x0000a2ff      0x32c c:/users/nukem419/appdata/local/arduino15/packages/chipkit/tools/pic32-tools/1.42-pic32gcc/bin/bin/../../lib/gcc/pic32mx/4.8.3/../../../../pic32mx/lib/size\libsupc++.a(eh_terminate.o)
 .debug_line    0x0000a62b      0x251 c:/users/nukem419/appdata/local/arduino15/packages/chipkit/tools/pic32-tools/1.42-pic32gcc/bin/bin/../../lib/gcc/pic32mx/4.8.3/../../../../pic32mx/lib/size\libsupc++.a(eh_unex_handler.o)
 .debug_line    0x0000a87c      0x157 c:/users/nukem419/appdata/local/arduino15/packages/chipkit/tools/pic32-tools/1.42-pic32gcc/bin/bin/../../lib/gcc/pic32mx/4.8.3/../../../../pic32mx/lib/size\libsupc++.a(new_op.o)
 .debug_line    0x0000a9d3      0x263 c:/users/nukem419/appdata/local/arduino15/packages/chipkit/tools/pic32-tools/1.42-pic32gcc/bin/bin/../../lib/gcc/pic32mx/4.8.3/../../../../pic32mx/lib/size\libsupc++.a(si_class_type_info.o)
 .debug_line    0x0000ac36      0x1d7 c:/users/nukem419/appdata/local/arduino15/packages/chipkit/tools/pic32-tools/1.42-pic32gcc/bin/bin/../../lib/gcc/pic32mx/4.8.3/../../../../pic32mx/lib/size\libsupc++.a(tinfo.o)
 .debug_line    0x0000ae0d      0x266 c:/users/nukem419/appdata/local/arduino15/packages/chipkit/tools/pic32-tools/1.42-pic32gcc/bin/bin/../../lib/gcc/pic32mx/4.8.3/../../../../pic32mx/lib/size\libsupc++.a(pure.o)
 .debug_line    0x0000b073      0x26a c:/users/nukem419/appdata/local/arduino15/packages/chipkit/tools/pic32-tools/1.42-pic32gcc/bin/bin/../../lib/gcc/pic32mx/4.8.3/../../../../pic32mx/lib/size\libsupc++.a(eh_call.o)
 .debug_line    0x0000b2dd      0x2d0 c:/users/nukem419/appdata/local/arduino15/packages/chipkit/tools/pic32-tools/1.42-pic32gcc/bin/bin/../../lib/gcc/pic32mx/4.8.3/../../../../pic32mx/lib/size\libsupc++.a(eh_catch.o)
 .debug_line    0x0000b5ad      0x26e c:/users/nukem419/appdata/local/arduino15/packages/chipkit/tools/pic32-tools/1.42-pic32gcc/bin/bin/../../lib/gcc/pic32mx/4.8.3/../../../../pic32mx/lib/size\libsupc++.a(eh_globals.o)
 .debug_line    0x0000b81b      0x251 c:/users/nukem419/appdata/local/arduino15/packages/chipkit/tools/pic32-tools/1.42-pic32gcc/bin/bin/../../lib/gcc/pic32mx/4.8.3/../../../../pic32mx/lib/size\libsupc++.a(eh_term_handler.o)
 .debug_line    0x0000ba6c      0x154 c:/users/nukem419/appdata/local/arduino15/packages/chipkit/tools/pic32-tools/1.42-pic32gcc/bin/bin/../../lib/gcc/pic32mx/4.8.3/../../../../pic32mx/lib/size\libsupc++.a(new_handler.o)
 .debug_line    0x0000bbc0       0xb7 c:/users/nukem419/appdata/local/arduino15/packages/chipkit/tools/pic32-tools/1.42-pic32gcc/bin/bin/../../lib/gcc/pic32mx/4.8.3/size\libgcc.a(addsf3.o)
 .debug_line    0x0000bc77       0xbc c:/users/nukem419/appdata/local/arduino15/packages/chipkit/tools/pic32-tools/1.42-pic32gcc/bin/bin/../../lib/gcc/pic32mx/4.8.3/size\libgcc.a(divsf3.o)
 .debug_line    0x0000bd33      0x11a c:/users/nukem419/appdata/local/arduino15/packages/chipkit/tools/pic32-tools/1.42-pic32gcc/bin/bin/../../lib/gcc/pic32mx/4.8.3/size\libgcc.a(eqsf2.o)
 .debug_line    0x0000be4d      0x11b c:/users/nukem419/appdata/local/arduino15/packages/chipkit/tools/pic32-tools/1.42-pic32gcc/bin/bin/../../lib/gcc/pic32mx/4.8.3/size\libgcc.a(gesf2.o)
 .debug_line    0x0000bf68       0xc6 c:/users/nukem419/appdata/local/arduino15/packages/chipkit/tools/pic32-tools/1.42-pic32gcc/bin/bin/../../lib/gcc/pic32mx/4.8.3/size\libgcc.a(mulsf3.o)
 .debug_line    0x0000c02e       0xb2 c:/users/nukem419/appdata/local/arduino15/packages/chipkit/tools/pic32-tools/1.42-pic32gcc/bin/bin/../../lib/gcc/pic32mx/4.8.3/size\libgcc.a(subsf3.o)
 .debug_line    0x0000c0e0       0xb5 c:/users/nukem419/appdata/local/arduino15/packages/chipkit/tools/pic32-tools/1.42-pic32gcc/bin/bin/../../lib/gcc/pic32mx/4.8.3/size\libgcc.a(fixsfsi.o)
 .debug_line    0x0000c195       0xb8 c:/users/nukem419/appdata/local/arduino15/packages/chipkit/tools/pic32-tools/1.42-pic32gcc/bin/bin/../../lib/gcc/pic32mx/4.8.3/size\libgcc.a(fixunssfsi.o)
 .debug_line    0x0000c24d       0xb8 c:/users/nukem419/appdata/local/arduino15/packages/chipkit/tools/pic32-tools/1.42-pic32gcc/bin/bin/../../lib/gcc/pic32mx/4.8.3/size\libgcc.a(floatsisf.o)
 .debug_line    0x0000c305       0x97 c:/users/nukem419/appdata/local/arduino15/packages/chipkit/tools/pic32-tools/1.42-pic32gcc/bin/bin/../../lib/gcc/pic32mx/4.8.3/size\libgcc.a(floatunsisf.o)
 .debug_line    0x0000c39c       0xc0 c:/users/nukem419/appdata/local/arduino15/packages/chipkit/tools/pic32-tools/1.42-pic32gcc/bin/bin/../../lib/gcc/pic32mx/4.8.3/size\libgcc.a(fixunssfdi.o)
 .debug_line    0x0000c45c       0xd6 c:/users/nukem419/appdata/local/arduino15/packages/chipkit/tools/pic32-tools/1.42-pic32gcc/bin/bin/../../lib/gcc/pic32mx/4.8.3/size\libgcc.a(adddf3.o)
 .debug_line    0x0000c532       0xce c:/users/nukem419/appdata/local/arduino15/packages/chipkit/tools/pic32-tools/1.42-pic32gcc/bin/bin/../../lib/gcc/pic32mx/4.8.3/size\libgcc.a(divdf3.o)
 .debug_line    0x0000c600      0x11a c:/users/nukem419/appdata/local/arduino15/packages/chipkit/tools/pic32-tools/1.42-pic32gcc/bin/bin/../../lib/gcc/pic32mx/4.8.3/size\libgcc.a(eqdf2.o)
 .debug_line    0x0000c71a      0x11b c:/users/nukem419/appdata/local/arduino15/packages/chipkit/tools/pic32-tools/1.42-pic32gcc/bin/bin/../../lib/gcc/pic32mx/4.8.3/size\libgcc.a(gedf2.o)
 .debug_line    0x0000c835      0x11b c:/users/nukem419/appdata/local/arduino15/packages/chipkit/tools/pic32-tools/1.42-pic32gcc/bin/bin/../../lib/gcc/pic32mx/4.8.3/size\libgcc.a(ledf2.o)
 .debug_line    0x0000c950       0xc7 c:/users/nukem419/appdata/local/arduino15/packages/chipkit/tools/pic32-tools/1.42-pic32gcc/bin/bin/../../lib/gcc/pic32mx/4.8.3/size\libgcc.a(muldf3.o)
 .debug_line    0x0000ca17       0xd2 c:/users/nukem419/appdata/local/arduino15/packages/chipkit/tools/pic32-tools/1.42-pic32gcc/bin/bin/../../lib/gcc/pic32mx/4.8.3/size\libgcc.a(subdf3.o)
 .debug_line    0x0000cae9       0xb5 c:/users/nukem419/appdata/local/arduino15/packages/chipkit/tools/pic32-tools/1.42-pic32gcc/bin/bin/../../lib/gcc/pic32mx/4.8.3/size\libgcc.a(fixdfsi.o)
 .debug_line    0x0000cb9e       0xb8 c:/users/nukem419/appdata/local/arduino15/packages/chipkit/tools/pic32-tools/1.42-pic32gcc/bin/bin/../../lib/gcc/pic32mx/4.8.3/size\libgcc.a(fixunsdfsi.o)
 .debug_line    0x0000cc56       0xb7 c:/users/nukem419/appdata/local/arduino15/packages/chipkit/tools/pic32-tools/1.42-pic32gcc/bin/bin/../../lib/gcc/pic32mx/4.8.3/size\libgcc.a(floatsidf.o)
 .debug_line    0x0000cd0d       0x96 c:/users/nukem419/appdata/local/arduino15/packages/chipkit/tools/pic32-tools/1.42-pic32gcc/bin/bin/../../lib/gcc/pic32mx/4.8.3/size\libgcc.a(floatunsidf.o)
 .debug_line    0x0000cda3       0xba c:/users/nukem419/appdata/local/arduino15/packages/chipkit/tools/pic32-tools/1.42-pic32gcc/bin/bin/../../lib/gcc/pic32mx/4.8.3/size\libgcc.a(extendsfdf2.o)
 .debug_line    0x0000ce5d       0xbd c:/users/nukem419/appdata/local/arduino15/packages/chipkit/tools/pic32-tools/1.42-pic32gcc/bin/bin/../../lib/gcc/pic32mx/4.8.3/size\libgcc.a(truncdfsf2.o)
 .debug_line    0x0000cf1a      0x1ec c:/users/nukem419/appdata/local/arduino15/packages/chipkit/tools/pic32-tools/1.42-pic32gcc/bin/bin/../../lib/gcc/pic32mx/4.8.3/size\libgcc.a(unwind-sjlj.o)
 .debug_line    0x0000d106       0xab c:/users/nukem419/appdata/local/arduino15/packages/chipkit/tools/pic32-tools/1.42-pic32gcc/bin/bin/../../lib/gcc/pic32mx/4.8.3/size\libgcc.a(_ashldi3.o)
 .debug_line    0x0000d1b1       0xeb c:/users/nukem419/appdata/local/arduino15/packages/chipkit/tools/pic32-tools/1.42-pic32gcc/bin/bin/../../lib/gcc/pic32mx/4.8.3/size\libgcc.a(_udivdi3.o)
 .debug_line    0x0000d29c       0xe6 c:/users/nukem419/appdata/local/arduino15/packages/chipkit/tools/pic32-tools/1.42-pic32gcc/bin/bin/../../lib/gcc/pic32mx/4.8.3/size\libgcc.a(_umoddi3.o)

.debug_frame    0x00000000     0x3948
 *(.debug_frame)
 .debug_frame   0x00000000      0x15c C:\Users\nukem419\AppData\Local\V.Micro\Arduino\Builds\IREC_2017\chipKIT_chipkit_pic32_fubarino_sd\SD\File.cpp.o
 .debug_frame   0x0000015c      0x198 C:\Users\nukem419\AppData\Local\V.Micro\Arduino\Builds\IREC_2017\chipKIT_chipkit_pic32_fubarino_sd\SD\SD.cpp.o
 .debug_frame   0x000002f4      0x22c C:\Users\nukem419\AppData\Local\V.Micro\Arduino\Builds\IREC_2017\chipKIT_chipkit_pic32_fubarino_sd\SD\utility\Sd2Card.cpp.o
 .debug_frame   0x00000520      0x424 C:\Users\nukem419\AppData\Local\V.Micro\Arduino\Builds\IREC_2017\chipKIT_chipkit_pic32_fubarino_sd\SD\utility\SdFile.cpp.o
 .debug_frame   0x00000944      0x124 C:\Users\nukem419\AppData\Local\V.Micro\Arduino\Builds\IREC_2017\chipKIT_chipkit_pic32_fubarino_sd\SD\utility\SdVolume.cpp.o
 .debug_frame   0x00000a68      0x4e0 C:\Users\nukem419\AppData\Local\V.Micro\Arduino\Builds\IREC_2017\chipKIT_chipkit_pic32_fubarino_sd\Wire\Wire.cpp.o
 .debug_frame   0x00000f48       0x6c C:\Users\nukem419\AppData\Local\V.Micro\Arduino\Builds\IREC_2017\chipKIT_chipkit_pic32_fubarino_sd\IREC_2017.cpp.o
 .debug_frame   0x00000fb4      0x180 C:\Users\nukem419\AppData\Local\V.Micro\Arduino\Builds\IREC_2017\chipKIT_chipkit_pic32_fubarino_sd\BMP180.cpp.o
 .debug_frame   0x00001134       0xa0 C:\Users\nukem419\AppData\Local\V.Micro\Arduino\Builds\IREC_2017\chipKIT_chipkit_pic32_fubarino_sd\DataLogger.cpp.o
 .debug_frame   0x000011d4      0x1dc C:\Users\nukem419\AppData\Local\V.Micro\Arduino\Builds\IREC_2017\chipKIT_chipkit_pic32_fubarino_sd\EM_506.cpp.o
 .debug_frame   0x000013b0       0x9c C:\Users\nukem419\AppData\Local\V.Micro\Arduino\Builds\IREC_2017\chipKIT_chipkit_pic32_fubarino_sd\L3GD20TR.cpp.o
 .debug_frame   0x0000144c       0x88 C:\Users\nukem419\AppData\Local\V.Micro\Arduino\Builds\IREC_2017\chipKIT_chipkit_pic32_fubarino_sd\LIS331HH.cpp.o
 .debug_frame   0x000014d4       0xb4 C:\Users\nukem419\AppData\Local\V.Micro\Arduino\Builds\IREC_2017\chipKIT_chipkit_pic32_fubarino_sd\Parameters.cpp.o
 .debug_frame   0x00001588      0x158 C:\Users\nukem419\AppData\Local\V.Micro\Arduino\Builds\IREC_2017\chipKIT_chipkit_pic32_fubarino_sd/core.a(task_manager.c.o)
 .debug_frame   0x000016e0      0x154 C:\Users\nukem419\AppData\Local\V.Micro\Arduino\Builds\IREC_2017\chipKIT_chipkit_pic32_fubarino_sd/core.a(wiring.c.o)
 .debug_frame   0x00001834       0x78 C:\Users\nukem419\AppData\Local\V.Micro\Arduino\Builds\IREC_2017\chipKIT_chipkit_pic32_fubarino_sd/core.a(wiring_digital.c.o)
 .debug_frame   0x000018ac      0x170 C:\Users\nukem419\AppData\Local\V.Micro\Arduino\Builds\IREC_2017\chipKIT_chipkit_pic32_fubarino_sd/core.a(WSystem.c.o)
 .debug_frame   0x00001a1c      0x490 C:\Users\nukem419\AppData\Local\V.Micro\Arduino\Builds\IREC_2017\chipKIT_chipkit_pic32_fubarino_sd/core.a(HardwareSerial.cpp.o)
 .debug_frame   0x00001eac       0x28 C:\Users\nukem419\AppData\Local\V.Micro\Arduino\Builds\IREC_2017\chipKIT_chipkit_pic32_fubarino_sd/core.a(main.cpp.o)
 .debug_frame   0x00001ed4      0x2ac C:\Users\nukem419\AppData\Local\V.Micro\Arduino\Builds\IREC_2017\chipKIT_chipkit_pic32_fubarino_sd/core.a(Print.cpp.o)
 .debug_frame   0x00002180      0x1c0 C:\Users\nukem419\AppData\Local\V.Micro\Arduino\Builds\IREC_2017\chipKIT_chipkit_pic32_fubarino_sd/core.a(Stream.cpp.o)
 .debug_frame   0x00002340      0x854 C:\Users\nukem419\AppData\Local\V.Micro\Arduino\Builds\IREC_2017\chipKIT_chipkit_pic32_fubarino_sd/core.a(WString.cpp.o)
 .debug_frame   0x00002b94       0xe8 C:\Users\nukem419\AppData\Local\V.Micro\Arduino\Builds\IREC_2017\chipKIT_chipkit_pic32_fubarino_sd/core.a(HardwareSerial_cdcacm.c.o)
 .debug_frame   0x00002c7c       0xd8 C:\Users\nukem419\AppData\Local\V.Micro\Arduino\Builds\IREC_2017\chipKIT_chipkit_pic32_fubarino_sd/core.a(HardwareSerial_usb.c.o)
 .debug_frame   0x00002d54       0x20 C:\Users\nukem419\AppData\Local\V.Micro\Arduino\Builds\IREC_2017\chipKIT_chipkit_pic32_fubarino_sd/core.a(pins_arduino.c.o)
 .debug_frame   0x00002d74       0xf4 C:\Users\nukem419\AppData\Local\V.Micro\Arduino\Builds\IREC_2017\chipKIT_chipkit_pic32_fubarino_sd/core.a(wiring_analog.c.o)
 .debug_frame   0x00002e68       0x60 C:\Users\nukem419\AppData\Local\V.Micro\Arduino\Builds\IREC_2017\chipKIT_chipkit_pic32_fubarino_sd/core.a(doprnt.cpp.o)
 .debug_frame   0x00002ec8       0xdc c:/users/nukem419/appdata/local/arduino15/packages/chipkit/tools/pic32-tools/1.42-pic32gcc/bin/bin/../../lib/gcc/pic32mx/4.8.3/../../../../pic32mx/lib/size\libsupc++.a(class_type_info.o)
 .debug_frame   0x00002fa4       0x2c c:/users/nukem419/appdata/local/arduino15/packages/chipkit/tools/pic32-tools/1.42-pic32gcc/bin/bin/../../lib/gcc/pic32mx/4.8.3/../../../../pic32mx/lib/size\libsupc++.a(del_op.o)
 .debug_frame   0x00002fd0       0xf4 c:/users/nukem419/appdata/local/arduino15/packages/chipkit/tools/pic32-tools/1.42-pic32gcc/bin/bin/../../lib/gcc/pic32mx/4.8.3/../../../../pic32mx/lib/size\libsupc++.a(eh_personality.o)
 .debug_frame   0x000030c4       0x90 c:/users/nukem419/appdata/local/arduino15/packages/chipkit/tools/pic32-tools/1.42-pic32gcc/bin/bin/../../lib/gcc/pic32mx/4.8.3/../../../../pic32mx/lib/size\libsupc++.a(eh_terminate.o)
 .debug_frame   0x00003154       0x2c c:/users/nukem419/appdata/local/arduino15/packages/chipkit/tools/pic32-tools/1.42-pic32gcc/bin/bin/../../lib/gcc/pic32mx/4.8.3/../../../../pic32mx/lib/size\libsupc++.a(new_op.o)
 .debug_frame   0x00003180       0xc0 c:/users/nukem419/appdata/local/arduino15/packages/chipkit/tools/pic32-tools/1.42-pic32gcc/bin/bin/../../lib/gcc/pic32mx/4.8.3/../../../../pic32mx/lib/size\libsupc++.a(si_class_type_info.o)
 .debug_frame   0x00003240       0x84 c:/users/nukem419/appdata/local/arduino15/packages/chipkit/tools/pic32-tools/1.42-pic32gcc/bin/bin/../../lib/gcc/pic32mx/4.8.3/../../../../pic32mx/lib/size\libsupc++.a(tinfo.o)
 .debug_frame   0x000032c4       0x40 c:/users/nukem419/appdata/local/arduino15/packages/chipkit/tools/pic32-tools/1.42-pic32gcc/bin/bin/../../lib/gcc/pic32mx/4.8.3/../../../../pic32mx/lib/size\libsupc++.a(pure.o)
 .debug_frame   0x00003304       0x28 c:/users/nukem419/appdata/local/arduino15/packages/chipkit/tools/pic32-tools/1.42-pic32gcc/bin/bin/../../lib/gcc/pic32mx/4.8.3/../../../../pic32mx/lib/size\libsupc++.a(eh_call.o)
 .debug_frame   0x0000332c       0x68 c:/users/nukem419/appdata/local/arduino15/packages/chipkit/tools/pic32-tools/1.42-pic32gcc/bin/bin/../../lib/gcc/pic32mx/4.8.3/../../../../pic32mx/lib/size\libsupc++.a(eh_catch.o)
 .debug_frame   0x00003394       0x30 c:/users/nukem419/appdata/local/arduino15/packages/chipkit/tools/pic32-tools/1.42-pic32gcc/bin/bin/../../lib/gcc/pic32mx/4.8.3/../../../../pic32mx/lib/size\libsupc++.a(eh_globals.o)
 .debug_frame   0x000033c4       0x20 c:/users/nukem419/appdata/local/arduino15/packages/chipkit/tools/pic32-tools/1.42-pic32gcc/bin/bin/../../lib/gcc/pic32mx/4.8.3/../../../../pic32mx/lib/size\libsupc++.a(new_handler.o)
 .debug_frame   0x000033e4       0x20 c:/users/nukem419/appdata/local/arduino15/packages/chipkit/tools/pic32-tools/1.42-pic32gcc/bin/bin/../../lib/gcc/pic32mx/4.8.3/size\libgcc.a(addsf3.o)
 .debug_frame   0x00003404       0x20 c:/users/nukem419/appdata/local/arduino15/packages/chipkit/tools/pic32-tools/1.42-pic32gcc/bin/bin/../../lib/gcc/pic32mx/4.8.3/size\libgcc.a(divsf3.o)
 .debug_frame   0x00003424       0x20 c:/users/nukem419/appdata/local/arduino15/packages/chipkit/tools/pic32-tools/1.42-pic32gcc/bin/bin/../../lib/gcc/pic32mx/4.8.3/size\libgcc.a(eqsf2.o)
 .debug_frame   0x00003444       0x20 c:/users/nukem419/appdata/local/arduino15/packages/chipkit/tools/pic32-tools/1.42-pic32gcc/bin/bin/../../lib/gcc/pic32mx/4.8.3/size\libgcc.a(gesf2.o)
 .debug_frame   0x00003464       0x20 c:/users/nukem419/appdata/local/arduino15/packages/chipkit/tools/pic32-tools/1.42-pic32gcc/bin/bin/../../lib/gcc/pic32mx/4.8.3/size\libgcc.a(mulsf3.o)
 .debug_frame   0x00003484       0x20 c:/users/nukem419/appdata/local/arduino15/packages/chipkit/tools/pic32-tools/1.42-pic32gcc/bin/bin/../../lib/gcc/pic32mx/4.8.3/size\libgcc.a(subsf3.o)
 .debug_frame   0x000034a4       0x20 c:/users/nukem419/appdata/local/arduino15/packages/chipkit/tools/pic32-tools/1.42-pic32gcc/bin/bin/../../lib/gcc/pic32mx/4.8.3/size\libgcc.a(fixsfsi.o)
 .debug_frame   0x000034c4       0x20 c:/users/nukem419/appdata/local/arduino15/packages/chipkit/tools/pic32-tools/1.42-pic32gcc/bin/bin/../../lib/gcc/pic32mx/4.8.3/size\libgcc.a(fixunssfsi.o)
 .debug_frame   0x000034e4       0x20 c:/users/nukem419/appdata/local/arduino15/packages/chipkit/tools/pic32-tools/1.42-pic32gcc/bin/bin/../../lib/gcc/pic32mx/4.8.3/size\libgcc.a(floatsisf.o)
 .debug_frame   0x00003504       0x28 c:/users/nukem419/appdata/local/arduino15/packages/chipkit/tools/pic32-tools/1.42-pic32gcc/bin/bin/../../lib/gcc/pic32mx/4.8.3/size\libgcc.a(floatunsisf.o)
 .debug_frame   0x0000352c       0x2c c:/users/nukem419/appdata/local/arduino15/packages/chipkit/tools/pic32-tools/1.42-pic32gcc/bin/bin/../../lib/gcc/pic32mx/4.8.3/size\libgcc.a(fixunssfdi.o)
 .debug_frame   0x00003558       0x20 c:/users/nukem419/appdata/local/arduino15/packages/chipkit/tools/pic32-tools/1.42-pic32gcc/bin/bin/../../lib/gcc/pic32mx/4.8.3/size\libgcc.a(adddf3.o)
 .debug_frame   0x00003578       0x20 c:/users/nukem419/appdata/local/arduino15/packages/chipkit/tools/pic32-tools/1.42-pic32gcc/bin/bin/../../lib/gcc/pic32mx/4.8.3/size\libgcc.a(divdf3.o)
 .debug_frame   0x00003598       0x20 c:/users/nukem419/appdata/local/arduino15/packages/chipkit/tools/pic32-tools/1.42-pic32gcc/bin/bin/../../lib/gcc/pic32mx/4.8.3/size\libgcc.a(eqdf2.o)
 .debug_frame   0x000035b8       0x20 c:/users/nukem419/appdata/local/arduino15/packages/chipkit/tools/pic32-tools/1.42-pic32gcc/bin/bin/../../lib/gcc/pic32mx/4.8.3/size\libgcc.a(gedf2.o)
 .debug_frame   0x000035d8       0x20 c:/users/nukem419/appdata/local/arduino15/packages/chipkit/tools/pic32-tools/1.42-pic32gcc/bin/bin/../../lib/gcc/pic32mx/4.8.3/size\libgcc.a(ledf2.o)
 .debug_frame   0x000035f8       0x20 c:/users/nukem419/appdata/local/arduino15/packages/chipkit/tools/pic32-tools/1.42-pic32gcc/bin/bin/../../lib/gcc/pic32mx/4.8.3/size\libgcc.a(muldf3.o)
 .debug_frame   0x00003618       0x20 c:/users/nukem419/appdata/local/arduino15/packages/chipkit/tools/pic32-tools/1.42-pic32gcc/bin/bin/../../lib/gcc/pic32mx/4.8.3/size\libgcc.a(subdf3.o)
 .debug_frame   0x00003638       0x20 c:/users/nukem419/appdata/local/arduino15/packages/chipkit/tools/pic32-tools/1.42-pic32gcc/bin/bin/../../lib/gcc/pic32mx/4.8.3/size\libgcc.a(fixdfsi.o)
 .debug_frame   0x00003658       0x20 c:/users/nukem419/appdata/local/arduino15/packages/chipkit/tools/pic32-tools/1.42-pic32gcc/bin/bin/../../lib/gcc/pic32mx/4.8.3/size\libgcc.a(fixunsdfsi.o)
 .debug_frame   0x00003678       0x20 c:/users/nukem419/appdata/local/arduino15/packages/chipkit/tools/pic32-tools/1.42-pic32gcc/bin/bin/../../lib/gcc/pic32mx/4.8.3/size\libgcc.a(floatsidf.o)
 .debug_frame   0x00003698       0x28 c:/users/nukem419/appdata/local/arduino15/packages/chipkit/tools/pic32-tools/1.42-pic32gcc/bin/bin/../../lib/gcc/pic32mx/4.8.3/size\libgcc.a(floatunsidf.o)
 .debug_frame   0x000036c0       0x20 c:/users/nukem419/appdata/local/arduino15/packages/chipkit/tools/pic32-tools/1.42-pic32gcc/bin/bin/../../lib/gcc/pic32mx/4.8.3/size\libgcc.a(extendsfdf2.o)
 .debug_frame   0x000036e0       0x20 c:/users/nukem419/appdata/local/arduino15/packages/chipkit/tools/pic32-tools/1.42-pic32gcc/bin/bin/../../lib/gcc/pic32mx/4.8.3/size\libgcc.a(truncdfsf2.o)
 .debug_frame   0x00003700      0x1e8 c:/users/nukem419/appdata/local/arduino15/packages/chipkit/tools/pic32-tools/1.42-pic32gcc/bin/bin/../../lib/gcc/pic32mx/4.8.3/size\libgcc.a(unwind-sjlj.o)
 .debug_frame   0x000038e8       0x20 c:/users/nukem419/appdata/local/arduino15/packages/chipkit/tools/pic32-tools/1.42-pic32gcc/bin/bin/../../lib/gcc/pic32mx/4.8.3/size\libgcc.a(_ashldi3.o)
 .debug_frame   0x00003908       0x20 c:/users/nukem419/appdata/local/arduino15/packages/chipkit/tools/pic32-tools/1.42-pic32gcc/bin/bin/../../lib/gcc/pic32mx/4.8.3/size\libgcc.a(_udivdi3.o)
 .debug_frame   0x00003928       0x20 c:/users/nukem419/appdata/local/arduino15/packages/chipkit/tools/pic32-tools/1.42-pic32gcc/bin/bin/../../lib/gcc/pic32mx/4.8.3/size\libgcc.a(_umoddi3.o)

.debug_str      0x00000000     0x20f8
 *(.debug_str)
 .debug_str     0x00000000       0xf4 C:\Users\nukem419\AppData\Local\V.Micro\Arduino\Builds\IREC_2017\chipKIT_chipkit_pic32_fubarino_sd\SD\File.cpp.o
 .debug_str     0x000000f4      0x249 C:\Users\nukem419\AppData\Local\V.Micro\Arduino\Builds\IREC_2017\chipKIT_chipkit_pic32_fubarino_sd\SD\SD.cpp.o
 .debug_str     0x0000033d      0x239 C:\Users\nukem419\AppData\Local\V.Micro\Arduino\Builds\IREC_2017\chipKIT_chipkit_pic32_fubarino_sd\SD\utility\Sd2Card.cpp.o
 .debug_str     0x00000576      0x3ac C:\Users\nukem419\AppData\Local\V.Micro\Arduino\Builds\IREC_2017\chipKIT_chipkit_pic32_fubarino_sd\SD\utility\SdFile.cpp.o
 .debug_str     0x00000922      0x23c C:\Users\nukem419\AppData\Local\V.Micro\Arduino\Builds\IREC_2017\chipKIT_chipkit_pic32_fubarino_sd\SD\utility\SdVolume.cpp.o
 .debug_str     0x00000b5e      0x194 C:\Users\nukem419\AppData\Local\V.Micro\Arduino\Builds\IREC_2017\chipKIT_chipkit_pic32_fubarino_sd\Wire\Wire.cpp.o
 .debug_str     0x00000cf2      0x424 C:\Users\nukem419\AppData\Local\V.Micro\Arduino\Builds\IREC_2017\chipKIT_chipkit_pic32_fubarino_sd\IREC_2017.cpp.o
 .debug_str     0x00001116       0x44 C:\Users\nukem419\AppData\Local\V.Micro\Arduino\Builds\IREC_2017\chipKIT_chipkit_pic32_fubarino_sd\BMP180.cpp.o
 .debug_str     0x0000115a      0x2c2 C:\Users\nukem419\AppData\Local\V.Micro\Arduino\Builds\IREC_2017\chipKIT_chipkit_pic32_fubarino_sd\DataLogger.cpp.o
 .debug_str     0x0000141c       0xf3 C:\Users\nukem419\AppData\Local\V.Micro\Arduino\Builds\IREC_2017\chipKIT_chipkit_pic32_fubarino_sd\EM_506.cpp.o
 .debug_str     0x0000150f       0x3e C:\Users\nukem419\AppData\Local\V.Micro\Arduino\Builds\IREC_2017\chipKIT_chipkit_pic32_fubarino_sd\L3GD20TR.cpp.o
 .debug_str     0x0000154d       0x3f C:\Users\nukem419\AppData\Local\V.Micro\Arduino\Builds\IREC_2017\chipKIT_chipkit_pic32_fubarino_sd\LIS331HH.cpp.o
 .debug_str     0x0000158c       0x58 C:\Users\nukem419\AppData\Local\V.Micro\Arduino\Builds\IREC_2017\chipKIT_chipkit_pic32_fubarino_sd\Parameters.cpp.o
 .debug_str     0x000015e4        0x0 C:\Users\nukem419\AppData\Local\V.Micro\Arduino\Builds\IREC_2017\chipKIT_chipkit_pic32_fubarino_sd\WSU_mavlink.cpp.o
 .debug_str     0x000015e4        0x7 C:\Users\nukem419\AppData\Local\V.Micro\Arduino\Builds\IREC_2017\chipKIT_chipkit_pic32_fubarino_sd/core.a(task_manager.c.o)
 .debug_str     0x000015eb       0x22 C:\Users\nukem419\AppData\Local\V.Micro\Arduino\Builds\IREC_2017\chipKIT_chipkit_pic32_fubarino_sd/core.a(wiring.c.o)
 .debug_str     0x0000160d        0x0 C:\Users\nukem419\AppData\Local\V.Micro\Arduino\Builds\IREC_2017\chipKIT_chipkit_pic32_fubarino_sd/core.a(wiring_digital.c.o)
 .debug_str     0x0000160d        0x0 C:\Users\nukem419\AppData\Local\V.Micro\Arduino\Builds\IREC_2017\chipKIT_chipkit_pic32_fubarino_sd/core.a(WSystem.c.o)
 .debug_str     0x0000160d      0x178 C:\Users\nukem419\AppData\Local\V.Micro\Arduino\Builds\IREC_2017\chipKIT_chipkit_pic32_fubarino_sd/core.a(HardwareSerial.cpp.o)
 .debug_str     0x00001785        0x0 C:\Users\nukem419\AppData\Local\V.Micro\Arduino\Builds\IREC_2017\chipKIT_chipkit_pic32_fubarino_sd/core.a(main.cpp.o)
 .debug_str     0x00001785      0x17e C:\Users\nukem419\AppData\Local\V.Micro\Arduino\Builds\IREC_2017\chipKIT_chipkit_pic32_fubarino_sd/core.a(Print.cpp.o)
 .debug_str     0x00001903      0x10b C:\Users\nukem419\AppData\Local\V.Micro\Arduino\Builds\IREC_2017\chipKIT_chipkit_pic32_fubarino_sd/core.a(Stream.cpp.o)
 .debug_str     0x00001a0e      0x15b C:\Users\nukem419\AppData\Local\V.Micro\Arduino\Builds\IREC_2017\chipKIT_chipkit_pic32_fubarino_sd/core.a(WString.cpp.o)
 .debug_str     0x00001b69        0xe C:\Users\nukem419\AppData\Local\V.Micro\Arduino\Builds\IREC_2017\chipKIT_chipkit_pic32_fubarino_sd/core.a(HardwareSerial_cdcacm.c.o)
 .debug_str     0x00001b77       0x1b C:\Users\nukem419\AppData\Local\V.Micro\Arduino\Builds\IREC_2017\chipKIT_chipkit_pic32_fubarino_sd/core.a(HardwareSerial_usb.c.o)
 .debug_str     0x00001b92        0x0 C:\Users\nukem419\AppData\Local\V.Micro\Arduino\Builds\IREC_2017\chipKIT_chipkit_pic32_fubarino_sd/core.a(pins_arduino.c.o)
 .debug_str     0x00001b92       0x21 C:\Users\nukem419\AppData\Local\V.Micro\Arduino\Builds\IREC_2017\chipKIT_chipkit_pic32_fubarino_sd/core.a(wiring_analog.c.o)
 .debug_str     0x00001bb3        0xa C:\Users\nukem419\AppData\Local\V.Micro\Arduino\Builds\IREC_2017\chipKIT_chipkit_pic32_fubarino_sd/core.a(doprnt.cpp.o)
 .debug_str     0x00001bbd      0x12e c:/users/nukem419/appdata/local/arduino15/packages/chipkit/tools/pic32-tools/1.42-pic32gcc/bin/bin/../../lib/gcc/pic32mx/4.8.3/../../../../pic32mx/lib/size\libsupc++.a(class_type_info.o)
 .debug_str     0x00001ceb       0x18 c:/users/nukem419/appdata/local/arduino15/packages/chipkit/tools/pic32-tools/1.42-pic32gcc/bin/bin/../../lib/gcc/pic32mx/4.8.3/../../../../pic32mx/lib/size\libsupc++.a(del_op.o)
 .debug_str     0x00001d03      0x16b c:/users/nukem419/appdata/local/arduino15/packages/chipkit/tools/pic32-tools/1.42-pic32gcc/bin/bin/../../lib/gcc/pic32mx/4.8.3/../../../../pic32mx/lib/size\libsupc++.a(eh_personality.o)
 .debug_str     0x00001e6e       0x18 c:/users/nukem419/appdata/local/arduino15/packages/chipkit/tools/pic32-tools/1.42-pic32gcc/bin/bin/../../lib/gcc/pic32mx/4.8.3/../../../../pic32mx/lib/size\libsupc++.a(eh_terminate.o)
 .debug_str     0x00001e86       0x18 c:/users/nukem419/appdata/local/arduino15/packages/chipkit/tools/pic32-tools/1.42-pic32gcc/bin/bin/../../lib/gcc/pic32mx/4.8.3/../../../../pic32mx/lib/size\libsupc++.a(eh_unex_handler.o)
 .debug_str     0x00001e9e       0x18 c:/users/nukem419/appdata/local/arduino15/packages/chipkit/tools/pic32-tools/1.42-pic32gcc/bin/bin/../../lib/gcc/pic32mx/4.8.3/../../../../pic32mx/lib/size\libsupc++.a(new_op.o)
 .debug_str     0x00001eb6      0x131 c:/users/nukem419/appdata/local/arduino15/packages/chipkit/tools/pic32-tools/1.42-pic32gcc/bin/bin/../../lib/gcc/pic32mx/4.8.3/../../../../pic32mx/lib/size\libsupc++.a(si_class_type_info.o)
 .debug_str     0x00001fe7       0x27 c:/users/nukem419/appdata/local/arduino15/packages/chipkit/tools/pic32-tools/1.42-pic32gcc/bin/bin/../../lib/gcc/pic32mx/4.8.3/../../../../pic32mx/lib/size\libsupc++.a(tinfo.o)
 .debug_str     0x0000200e       0x18 c:/users/nukem419/appdata/local/arduino15/packages/chipkit/tools/pic32-tools/1.42-pic32gcc/bin/bin/../../lib/gcc/pic32mx/4.8.3/../../../../pic32mx/lib/size\libsupc++.a(pure.o)
 .debug_str     0x00002026       0x18 c:/users/nukem419/appdata/local/arduino15/packages/chipkit/tools/pic32-tools/1.42-pic32gcc/bin/bin/../../lib/gcc/pic32mx/4.8.3/../../../../pic32mx/lib/size\libsupc++.a(eh_call.o)
 .debug_str     0x0000203e       0x32 c:/users/nukem419/appdata/local/arduino15/packages/chipkit/tools/pic32-tools/1.42-pic32gcc/bin/bin/../../lib/gcc/pic32mx/4.8.3/../../../../pic32mx/lib/size\libsupc++.a(eh_catch.o)
 .debug_str     0x00002070       0x18 c:/users/nukem419/appdata/local/arduino15/packages/chipkit/tools/pic32-tools/1.42-pic32gcc/bin/bin/../../lib/gcc/pic32mx/4.8.3/../../../../pic32mx/lib/size\libsupc++.a(eh_globals.o)
 .debug_str     0x00002088       0x18 c:/users/nukem419/appdata/local/arduino15/packages/chipkit/tools/pic32-tools/1.42-pic32gcc/bin/bin/../../lib/gcc/pic32mx/4.8.3/../../../../pic32mx/lib/size\libsupc++.a(eh_term_handler.o)
 .debug_str     0x000020a0       0x18 c:/users/nukem419/appdata/local/arduino15/packages/chipkit/tools/pic32-tools/1.42-pic32gcc/bin/bin/../../lib/gcc/pic32mx/4.8.3/../../../../pic32mx/lib/size\libsupc++.a(new_handler.o)
 .debug_str     0x000020b8        0x0 c:/users/nukem419/appdata/local/arduino15/packages/chipkit/tools/pic32-tools/1.42-pic32gcc/bin/bin/../../lib/gcc/pic32mx/4.8.3/size\libgcc.a(addsf3.o)
 .debug_str     0x000020b8        0x0 c:/users/nukem419/appdata/local/arduino15/packages/chipkit/tools/pic32-tools/1.42-pic32gcc/bin/bin/../../lib/gcc/pic32mx/4.8.3/size\libgcc.a(divsf3.o)
 .debug_str     0x000020b8        0x0 c:/users/nukem419/appdata/local/arduino15/packages/chipkit/tools/pic32-tools/1.42-pic32gcc/bin/bin/../../lib/gcc/pic32mx/4.8.3/size\libgcc.a(eqsf2.o)
 .debug_str     0x000020b8        0x0 c:/users/nukem419/appdata/local/arduino15/packages/chipkit/tools/pic32-tools/1.42-pic32gcc/bin/bin/../../lib/gcc/pic32mx/4.8.3/size\libgcc.a(gesf2.o)
 .debug_str     0x000020b8        0x0 c:/users/nukem419/appdata/local/arduino15/packages/chipkit/tools/pic32-tools/1.42-pic32gcc/bin/bin/../../lib/gcc/pic32mx/4.8.3/size\libgcc.a(mulsf3.o)
 .debug_str     0x000020b8        0x0 c:/users/nukem419/appdata/local/arduino15/packages/chipkit/tools/pic32-tools/1.42-pic32gcc/bin/bin/../../lib/gcc/pic32mx/4.8.3/size\libgcc.a(subsf3.o)
 .debug_str     0x000020b8        0x0 c:/users/nukem419/appdata/local/arduino15/packages/chipkit/tools/pic32-tools/1.42-pic32gcc/bin/bin/../../lib/gcc/pic32mx/4.8.3/size\libgcc.a(fixsfsi.o)
 .debug_str     0x000020b8        0x0 c:/users/nukem419/appdata/local/arduino15/packages/chipkit/tools/pic32-tools/1.42-pic32gcc/bin/bin/../../lib/gcc/pic32mx/4.8.3/size\libgcc.a(fixunssfsi.o)
 .debug_str     0x000020b8        0x0 c:/users/nukem419/appdata/local/arduino15/packages/chipkit/tools/pic32-tools/1.42-pic32gcc/bin/bin/../../lib/gcc/pic32mx/4.8.3/size\libgcc.a(floatsisf.o)
 .debug_str     0x000020b8        0x0 c:/users/nukem419/appdata/local/arduino15/packages/chipkit/tools/pic32-tools/1.42-pic32gcc/bin/bin/../../lib/gcc/pic32mx/4.8.3/size\libgcc.a(floatunsisf.o)
 .debug_str     0x000020b8        0x0 c:/users/nukem419/appdata/local/arduino15/packages/chipkit/tools/pic32-tools/1.42-pic32gcc/bin/bin/../../lib/gcc/pic32mx/4.8.3/size\libgcc.a(fixunssfdi.o)
 .debug_str     0x000020b8        0x0 c:/users/nukem419/appdata/local/arduino15/packages/chipkit/tools/pic32-tools/1.42-pic32gcc/bin/bin/../../lib/gcc/pic32mx/4.8.3/size\libgcc.a(adddf3.o)
 .debug_str     0x000020b8        0x0 c:/users/nukem419/appdata/local/arduino15/packages/chipkit/tools/pic32-tools/1.42-pic32gcc/bin/bin/../../lib/gcc/pic32mx/4.8.3/size\libgcc.a(divdf3.o)
 .debug_str     0x000020b8        0x0 c:/users/nukem419/appdata/local/arduino15/packages/chipkit/tools/pic32-tools/1.42-pic32gcc/bin/bin/../../lib/gcc/pic32mx/4.8.3/size\libgcc.a(eqdf2.o)
 .debug_str     0x000020b8        0x0 c:/users/nukem419/appdata/local/arduino15/packages/chipkit/tools/pic32-tools/1.42-pic32gcc/bin/bin/../../lib/gcc/pic32mx/4.8.3/size\libgcc.a(gedf2.o)
 .debug_str     0x000020b8        0x0 c:/users/nukem419/appdata/local/arduino15/packages/chipkit/tools/pic32-tools/1.42-pic32gcc/bin/bin/../../lib/gcc/pic32mx/4.8.3/size\libgcc.a(ledf2.o)
 .debug_str     0x000020b8        0x0 c:/users/nukem419/appdata/local/arduino15/packages/chipkit/tools/pic32-tools/1.42-pic32gcc/bin/bin/../../lib/gcc/pic32mx/4.8.3/size\libgcc.a(muldf3.o)
 .debug_str     0x000020b8        0x0 c:/users/nukem419/appdata/local/arduino15/packages/chipkit/tools/pic32-tools/1.42-pic32gcc/bin/bin/../../lib/gcc/pic32mx/4.8.3/size\libgcc.a(subdf3.o)
 .debug_str     0x000020b8        0x0 c:/users/nukem419/appdata/local/arduino15/packages/chipkit/tools/pic32-tools/1.42-pic32gcc/bin/bin/../../lib/gcc/pic32mx/4.8.3/size\libgcc.a(fixdfsi.o)
 .debug_str     0x000020b8        0x0 c:/users/nukem419/appdata/local/arduino15/packages/chipkit/tools/pic32-tools/1.42-pic32gcc/bin/bin/../../lib/gcc/pic32mx/4.8.3/size\libgcc.a(fixunsdfsi.o)
 .debug_str     0x000020b8        0x0 c:/users/nukem419/appdata/local/arduino15/packages/chipkit/tools/pic32-tools/1.42-pic32gcc/bin/bin/../../lib/gcc/pic32mx/4.8.3/size\libgcc.a(floatsidf.o)
 .debug_str     0x000020b8        0x0 c:/users/nukem419/appdata/local/arduino15/packages/chipkit/tools/pic32-tools/1.42-pic32gcc/bin/bin/../../lib/gcc/pic32mx/4.8.3/size\libgcc.a(floatunsidf.o)
 .debug_str     0x000020b8        0x0 c:/users/nukem419/appdata/local/arduino15/packages/chipkit/tools/pic32-tools/1.42-pic32gcc/bin/bin/../../lib/gcc/pic32mx/4.8.3/size\libgcc.a(extendsfdf2.o)
 .debug_str     0x000020b8        0x0 c:/users/nukem419/appdata/local/arduino15/packages/chipkit/tools/pic32-tools/1.42-pic32gcc/bin/bin/../../lib/gcc/pic32mx/4.8.3/size\libgcc.a(truncdfsf2.o)
 .debug_str     0x000020b8       0x40 c:/users/nukem419/appdata/local/arduino15/packages/chipkit/tools/pic32-tools/1.42-pic32gcc/bin/bin/../../lib/gcc/pic32mx/4.8.3/size\libgcc.a(unwind-sjlj.o)
 .debug_str     0x000020f8        0x0 c:/users/nukem419/appdata/local/arduino15/packages/chipkit/tools/pic32-tools/1.42-pic32gcc/bin/bin/../../lib/gcc/pic32mx/4.8.3/size\libgcc.a(_ashldi3.o)
 .debug_str     0x000020f8        0x0 c:/users/nukem419/appdata/local/arduino15/packages/chipkit/tools/pic32-tools/1.42-pic32gcc/bin/bin/../../lib/gcc/pic32mx/4.8.3/size\libgcc.a(_udivdi3.o)
 .debug_str     0x000020f8        0x0 c:/users/nukem419/appdata/local/arduino15/packages/chipkit/tools/pic32-tools/1.42-pic32gcc/bin/bin/../../lib/gcc/pic32mx/4.8.3/size\libgcc.a(_umoddi3.o)

.debug_loc      0x00000000    0x22683
 *(.debug_loc)
 .debug_loc     0x00000000      0x3ec C:\Users\nukem419\AppData\Local\V.Micro\Arduino\Builds\IREC_2017\chipKIT_chipkit_pic32_fubarino_sd\SD\File.cpp.o
 .debug_loc     0x000003ec     0x15eb C:\Users\nukem419\AppData\Local\V.Micro\Arduino\Builds\IREC_2017\chipKIT_chipkit_pic32_fubarino_sd\SD\SD.cpp.o
 .debug_loc     0x000019d7     0x1568 C:\Users\nukem419\AppData\Local\V.Micro\Arduino\Builds\IREC_2017\chipKIT_chipkit_pic32_fubarino_sd\SD\utility\Sd2Card.cpp.o
 .debug_loc     0x00002f3f     0x2cbf C:\Users\nukem419\AppData\Local\V.Micro\Arduino\Builds\IREC_2017\chipKIT_chipkit_pic32_fubarino_sd\SD\utility\SdFile.cpp.o
 .debug_loc     0x00005bfe      0x91b C:\Users\nukem419\AppData\Local\V.Micro\Arduino\Builds\IREC_2017\chipKIT_chipkit_pic32_fubarino_sd\SD\utility\SdVolume.cpp.o
 .debug_loc     0x00006519     0x1716 C:\Users\nukem419\AppData\Local\V.Micro\Arduino\Builds\IREC_2017\chipKIT_chipkit_pic32_fubarino_sd\Wire\Wire.cpp.o
 .debug_loc     0x00007c2f     0x3487 C:\Users\nukem419\AppData\Local\V.Micro\Arduino\Builds\IREC_2017\chipKIT_chipkit_pic32_fubarino_sd\IREC_2017.cpp.o
 .debug_loc     0x0000b0b6     0x2773 C:\Users\nukem419\AppData\Local\V.Micro\Arduino\Builds\IREC_2017\chipKIT_chipkit_pic32_fubarino_sd\BMP180.cpp.o
 .debug_loc     0x0000d829      0x1d7 C:\Users\nukem419\AppData\Local\V.Micro\Arduino\Builds\IREC_2017\chipKIT_chipkit_pic32_fubarino_sd\DataLogger.cpp.o
 .debug_loc     0x0000da00      0x89e C:\Users\nukem419\AppData\Local\V.Micro\Arduino\Builds\IREC_2017\chipKIT_chipkit_pic32_fubarino_sd\EM_506.cpp.o
 .debug_loc     0x0000e29e      0x3ba C:\Users\nukem419\AppData\Local\V.Micro\Arduino\Builds\IREC_2017\chipKIT_chipkit_pic32_fubarino_sd\L3GD20TR.cpp.o
 .debug_loc     0x0000e658      0x210 C:\Users\nukem419\AppData\Local\V.Micro\Arduino\Builds\IREC_2017\chipKIT_chipkit_pic32_fubarino_sd\LIS331HH.cpp.o
 .debug_loc     0x0000e868      0x2f6 C:\Users\nukem419\AppData\Local\V.Micro\Arduino\Builds\IREC_2017\chipKIT_chipkit_pic32_fubarino_sd\Parameters.cpp.o
 .debug_loc     0x0000eb5e      0x4da C:\Users\nukem419\AppData\Local\V.Micro\Arduino\Builds\IREC_2017\chipKIT_chipkit_pic32_fubarino_sd/core.a(task_manager.c.o)
 .debug_loc     0x0000f038      0x42d C:\Users\nukem419\AppData\Local\V.Micro\Arduino\Builds\IREC_2017\chipKIT_chipkit_pic32_fubarino_sd/core.a(wiring.c.o)
 .debug_loc     0x0000f465      0x424 C:\Users\nukem419\AppData\Local\V.Micro\Arduino\Builds\IREC_2017\chipKIT_chipkit_pic32_fubarino_sd/core.a(wiring_digital.c.o)
 .debug_loc     0x0000f889      0x548 C:\Users\nukem419\AppData\Local\V.Micro\Arduino\Builds\IREC_2017\chipKIT_chipkit_pic32_fubarino_sd/core.a(WSystem.c.o)
 .debug_loc     0x0000fdd1      0x79e C:\Users\nukem419\AppData\Local\V.Micro\Arduino\Builds\IREC_2017\chipKIT_chipkit_pic32_fubarino_sd/core.a(HardwareSerial.cpp.o)
 .debug_loc     0x0001056f     0x18a0 C:\Users\nukem419\AppData\Local\V.Micro\Arduino\Builds\IREC_2017\chipKIT_chipkit_pic32_fubarino_sd/core.a(Print.cpp.o)
 .debug_loc     0x00011e0f      0xc47 C:\Users\nukem419\AppData\Local\V.Micro\Arduino\Builds\IREC_2017\chipKIT_chipkit_pic32_fubarino_sd/core.a(Stream.cpp.o)
 .debug_loc     0x00012a56     0x2f9e C:\Users\nukem419\AppData\Local\V.Micro\Arduino\Builds\IREC_2017\chipKIT_chipkit_pic32_fubarino_sd/core.a(WString.cpp.o)
 .debug_loc     0x000159f4      0x95b C:\Users\nukem419\AppData\Local\V.Micro\Arduino\Builds\IREC_2017\chipKIT_chipkit_pic32_fubarino_sd/core.a(HardwareSerial_cdcacm.c.o)
 .debug_loc     0x0001634f      0x4c4 C:\Users\nukem419\AppData\Local\V.Micro\Arduino\Builds\IREC_2017\chipKIT_chipkit_pic32_fubarino_sd/core.a(HardwareSerial_usb.c.o)
 .debug_loc     0x00016813      0x3b9 C:\Users\nukem419\AppData\Local\V.Micro\Arduino\Builds\IREC_2017\chipKIT_chipkit_pic32_fubarino_sd/core.a(wiring_analog.c.o)
 .debug_loc     0x00016bcc     0x2803 C:\Users\nukem419\AppData\Local\V.Micro\Arduino\Builds\IREC_2017\chipKIT_chipkit_pic32_fubarino_sd/core.a(doprnt.cpp.o)
 .debug_loc     0x000193cf      0x474 c:/users/nukem419/appdata/local/arduino15/packages/chipkit/tools/pic32-tools/1.42-pic32gcc/bin/bin/../../lib/gcc/pic32mx/4.8.3/../../../../pic32mx/lib/size\libsupc++.a(class_type_info.o)
 .debug_loc     0x00019843       0x21 c:/users/nukem419/appdata/local/arduino15/packages/chipkit/tools/pic32-tools/1.42-pic32gcc/bin/bin/../../lib/gcc/pic32mx/4.8.3/../../../../pic32mx/lib/size\libsupc++.a(del_op.o)
 .debug_loc     0x00019864      0xd56 c:/users/nukem419/appdata/local/arduino15/packages/chipkit/tools/pic32-tools/1.42-pic32gcc/bin/bin/../../lib/gcc/pic32mx/4.8.3/../../../../pic32mx/lib/size\libsupc++.a(eh_personality.o)
 .debug_loc     0x0001a5ba       0x42 c:/users/nukem419/appdata/local/arduino15/packages/chipkit/tools/pic32-tools/1.42-pic32gcc/bin/bin/../../lib/gcc/pic32mx/4.8.3/../../../../pic32mx/lib/size\libsupc++.a(eh_terminate.o)
 .debug_loc     0x0001a5fc       0x73 c:/users/nukem419/appdata/local/arduino15/packages/chipkit/tools/pic32-tools/1.42-pic32gcc/bin/bin/../../lib/gcc/pic32mx/4.8.3/../../../../pic32mx/lib/size\libsupc++.a(new_op.o)
 .debug_loc     0x0001a66f      0x3f3 c:/users/nukem419/appdata/local/arduino15/packages/chipkit/tools/pic32-tools/1.42-pic32gcc/bin/bin/../../lib/gcc/pic32mx/4.8.3/../../../../pic32mx/lib/size\libsupc++.a(si_class_type_info.o)
 .debug_loc     0x0001aa62       0x84 c:/users/nukem419/appdata/local/arduino15/packages/chipkit/tools/pic32-tools/1.42-pic32gcc/bin/bin/../../lib/gcc/pic32mx/4.8.3/../../../../pic32mx/lib/size\libsupc++.a(tinfo.o)
 .debug_loc     0x0001aae6       0x32 c:/users/nukem419/appdata/local/arduino15/packages/chipkit/tools/pic32-tools/1.42-pic32gcc/bin/bin/../../lib/gcc/pic32mx/4.8.3/../../../../pic32mx/lib/size\libsupc++.a(eh_call.o)
 .debug_loc     0x0001ab18      0x1ce c:/users/nukem419/appdata/local/arduino15/packages/chipkit/tools/pic32-tools/1.42-pic32gcc/bin/bin/../../lib/gcc/pic32mx/4.8.3/../../../../pic32mx/lib/size\libsupc++.a(eh_catch.o)
 .debug_loc     0x0001ace6      0x781 c:/users/nukem419/appdata/local/arduino15/packages/chipkit/tools/pic32-tools/1.42-pic32gcc/bin/bin/../../lib/gcc/pic32mx/4.8.3/size\libgcc.a(addsf3.o)
 .debug_loc     0x0001b467      0x62c c:/users/nukem419/appdata/local/arduino15/packages/chipkit/tools/pic32-tools/1.42-pic32gcc/bin/bin/../../lib/gcc/pic32mx/4.8.3/size\libgcc.a(divsf3.o)
 .debug_loc     0x0001ba93       0x8c c:/users/nukem419/appdata/local/arduino15/packages/chipkit/tools/pic32-tools/1.42-pic32gcc/bin/bin/../../lib/gcc/pic32mx/4.8.3/size\libgcc.a(eqsf2.o)
 .debug_loc     0x0001bb1f      0x111 c:/users/nukem419/appdata/local/arduino15/packages/chipkit/tools/pic32-tools/1.42-pic32gcc/bin/bin/../../lib/gcc/pic32mx/4.8.3/size\libgcc.a(gesf2.o)
 .debug_loc     0x0001bc30      0x438 c:/users/nukem419/appdata/local/arduino15/packages/chipkit/tools/pic32-tools/1.42-pic32gcc/bin/bin/../../lib/gcc/pic32mx/4.8.3/size\libgcc.a(mulsf3.o)
 .debug_loc     0x0001c068      0x797 c:/users/nukem419/appdata/local/arduino15/packages/chipkit/tools/pic32-tools/1.42-pic32gcc/bin/bin/../../lib/gcc/pic32mx/4.8.3/size\libgcc.a(subsf3.o)
 .debug_loc     0x0001c7ff       0xa0 c:/users/nukem419/appdata/local/arduino15/packages/chipkit/tools/pic32-tools/1.42-pic32gcc/bin/bin/../../lib/gcc/pic32mx/4.8.3/size\libgcc.a(fixsfsi.o)
 .debug_loc     0x0001c89f       0x94 c:/users/nukem419/appdata/local/arduino15/packages/chipkit/tools/pic32-tools/1.42-pic32gcc/bin/bin/../../lib/gcc/pic32mx/4.8.3/size\libgcc.a(fixunssfsi.o)
 .debug_loc     0x0001c933      0x1e5 c:/users/nukem419/appdata/local/arduino15/packages/chipkit/tools/pic32-tools/1.42-pic32gcc/bin/bin/../../lib/gcc/pic32mx/4.8.3/size\libgcc.a(floatsisf.o)
 .debug_loc     0x0001cb18       0x8a c:/users/nukem419/appdata/local/arduino15/packages/chipkit/tools/pic32-tools/1.42-pic32gcc/bin/bin/../../lib/gcc/pic32mx/4.8.3/size\libgcc.a(floatunsisf.o)
 .debug_loc     0x0001cba2       0xe8 c:/users/nukem419/appdata/local/arduino15/packages/chipkit/tools/pic32-tools/1.42-pic32gcc/bin/bin/../../lib/gcc/pic32mx/4.8.3/size\libgcc.a(fixunssfdi.o)
 .debug_loc     0x0001cc8a     0x1080 c:/users/nukem419/appdata/local/arduino15/packages/chipkit/tools/pic32-tools/1.42-pic32gcc/bin/bin/../../lib/gcc/pic32mx/4.8.3/size\libgcc.a(adddf3.o)
 .debug_loc     0x0001dd0a      0xc9a c:/users/nukem419/appdata/local/arduino15/packages/chipkit/tools/pic32-tools/1.42-pic32gcc/bin/bin/../../lib/gcc/pic32mx/4.8.3/size\libgcc.a(divdf3.o)
 .debug_loc     0x0001e9a4       0x47 c:/users/nukem419/appdata/local/arduino15/packages/chipkit/tools/pic32-tools/1.42-pic32gcc/bin/bin/../../lib/gcc/pic32mx/4.8.3/size\libgcc.a(eqdf2.o)
 .debug_loc     0x0001e9eb      0x176 c:/users/nukem419/appdata/local/arduino15/packages/chipkit/tools/pic32-tools/1.42-pic32gcc/bin/bin/../../lib/gcc/pic32mx/4.8.3/size\libgcc.a(gedf2.o)
 .debug_loc     0x0001eb61       0xf7 c:/users/nukem419/appdata/local/arduino15/packages/chipkit/tools/pic32-tools/1.42-pic32gcc/bin/bin/../../lib/gcc/pic32mx/4.8.3/size\libgcc.a(ledf2.o)
 .debug_loc     0x0001ec58      0x8c6 c:/users/nukem419/appdata/local/arduino15/packages/chipkit/tools/pic32-tools/1.42-pic32gcc/bin/bin/../../lib/gcc/pic32mx/4.8.3/size\libgcc.a(muldf3.o)
 .debug_loc     0x0001f51e     0x1096 c:/users/nukem419/appdata/local/arduino15/packages/chipkit/tools/pic32-tools/1.42-pic32gcc/bin/bin/../../lib/gcc/pic32mx/4.8.3/size\libgcc.a(subdf3.o)
 .debug_loc     0x000205b4       0xb8 c:/users/nukem419/appdata/local/arduino15/packages/chipkit/tools/pic32-tools/1.42-pic32gcc/bin/bin/../../lib/gcc/pic32mx/4.8.3/size\libgcc.a(fixdfsi.o)
 .debug_loc     0x0002066c       0xb8 c:/users/nukem419/appdata/local/arduino15/packages/chipkit/tools/pic32-tools/1.42-pic32gcc/bin/bin/../../lib/gcc/pic32mx/4.8.3/size\libgcc.a(fixunsdfsi.o)
 .debug_loc     0x00020724      0x1ab c:/users/nukem419/appdata/local/arduino15/packages/chipkit/tools/pic32-tools/1.42-pic32gcc/bin/bin/../../lib/gcc/pic32mx/4.8.3/size\libgcc.a(floatsidf.o)
 .debug_loc     0x000208cf       0x80 c:/users/nukem419/appdata/local/arduino15/packages/chipkit/tools/pic32-tools/1.42-pic32gcc/bin/bin/../../lib/gcc/pic32mx/4.8.3/size\libgcc.a(floatunsidf.o)
 .debug_loc     0x0002094f      0x1b5 c:/users/nukem419/appdata/local/arduino15/packages/chipkit/tools/pic32-tools/1.42-pic32gcc/bin/bin/../../lib/gcc/pic32mx/4.8.3/size\libgcc.a(extendsfdf2.o)
 .debug_loc     0x00020b04      0x3d5 c:/users/nukem419/appdata/local/arduino15/packages/chipkit/tools/pic32-tools/1.42-pic32gcc/bin/bin/../../lib/gcc/pic32mx/4.8.3/size\libgcc.a(truncdfsf2.o)
 .debug_loc     0x00020ed9      0x638 c:/users/nukem419/appdata/local/arduino15/packages/chipkit/tools/pic32-tools/1.42-pic32gcc/bin/bin/../../lib/gcc/pic32mx/4.8.3/size\libgcc.a(unwind-sjlj.o)
 .debug_loc     0x00021511       0x9b c:/users/nukem419/appdata/local/arduino15/packages/chipkit/tools/pic32-tools/1.42-pic32gcc/bin/bin/../../lib/gcc/pic32mx/4.8.3/size\libgcc.a(_ashldi3.o)
 .debug_loc     0x000215ac      0x8b6 c:/users/nukem419/appdata/local/arduino15/packages/chipkit/tools/pic32-tools/1.42-pic32gcc/bin/bin/../../lib/gcc/pic32mx/4.8.3/size\libgcc.a(_udivdi3.o)
 .debug_loc     0x00021e62      0x821 c:/users/nukem419/appdata/local/arduino15/packages/chipkit/tools/pic32-tools/1.42-pic32gcc/bin/bin/../../lib/gcc/pic32mx/4.8.3/size\libgcc.a(_umoddi3.o)

.debug_macinfo
 *(.debug_macinfo)

.debug_weaknames
 *(.debug_weaknames)

.debug_funcnames
 *(.debug_funcnames)

.debug_typenames
 *(.debug_typenames)

.debug_varnames
 *(.debug_varnames)

.debug_pubtypes
 *(.debug_pubtypes)

.debug_ranges   0x00000000     0x4d50
 *(.debug_ranges)
 .debug_ranges  0x00000000       0xc8 C:\Users\nukem419\AppData\Local\V.Micro\Arduino\Builds\IREC_2017\chipKIT_chipkit_pic32_fubarino_sd\SD\File.cpp.o
 .debug_ranges  0x000000c8      0x2b0 C:\Users\nukem419\AppData\Local\V.Micro\Arduino\Builds\IREC_2017\chipKIT_chipkit_pic32_fubarino_sd\SD\SD.cpp.o
 .debug_ranges  0x00000378      0x1e8 C:\Users\nukem419\AppData\Local\V.Micro\Arduino\Builds\IREC_2017\chipKIT_chipkit_pic32_fubarino_sd\SD\utility\Sd2Card.cpp.o
 .debug_ranges  0x00000560      0x870 C:\Users\nukem419\AppData\Local\V.Micro\Arduino\Builds\IREC_2017\chipKIT_chipkit_pic32_fubarino_sd\SD\utility\SdFile.cpp.o
 .debug_ranges  0x00000dd0      0x218 C:\Users\nukem419\AppData\Local\V.Micro\Arduino\Builds\IREC_2017\chipKIT_chipkit_pic32_fubarino_sd\SD\utility\SdVolume.cpp.o
 .debug_ranges  0x00000fe8      0x508 C:\Users\nukem419\AppData\Local\V.Micro\Arduino\Builds\IREC_2017\chipKIT_chipkit_pic32_fubarino_sd\Wire\Wire.cpp.o
 .debug_ranges  0x000014f0     0x1188 C:\Users\nukem419\AppData\Local\V.Micro\Arduino\Builds\IREC_2017\chipKIT_chipkit_pic32_fubarino_sd\IREC_2017.cpp.o
 .debug_ranges  0x00002678       0xd0 C:\Users\nukem419\AppData\Local\V.Micro\Arduino\Builds\IREC_2017\chipKIT_chipkit_pic32_fubarino_sd\BMP180.cpp.o
 .debug_ranges  0x00002748      0x120 C:\Users\nukem419\AppData\Local\V.Micro\Arduino\Builds\IREC_2017\chipKIT_chipkit_pic32_fubarino_sd\DataLogger.cpp.o
 .debug_ranges  0x00002868      0x158 C:\Users\nukem419\AppData\Local\V.Micro\Arduino\Builds\IREC_2017\chipKIT_chipkit_pic32_fubarino_sd\EM_506.cpp.o
 .debug_ranges  0x000029c0       0x48 C:\Users\nukem419\AppData\Local\V.Micro\Arduino\Builds\IREC_2017\chipKIT_chipkit_pic32_fubarino_sd\L3GD20TR.cpp.o
 .debug_ranges  0x00002a08       0x48 C:\Users\nukem419\AppData\Local\V.Micro\Arduino\Builds\IREC_2017\chipKIT_chipkit_pic32_fubarino_sd\LIS331HH.cpp.o
 .debug_ranges  0x00002a50       0xb0 C:\Users\nukem419\AppData\Local\V.Micro\Arduino\Builds\IREC_2017\chipKIT_chipkit_pic32_fubarino_sd\Parameters.cpp.o
 .debug_ranges  0x00002b00       0x20 C:\Users\nukem419\AppData\Local\V.Micro\Arduino\Builds\IREC_2017\chipKIT_chipkit_pic32_fubarino_sd/core.a(crti.S.o)
 .debug_ranges  0x00002b20       0x78 C:\Users\nukem419\AppData\Local\V.Micro\Arduino\Builds\IREC_2017\chipKIT_chipkit_pic32_fubarino_sd/core.a(task_manager.c.o)
 .debug_ranges  0x00002b98       0x78 C:\Users\nukem419\AppData\Local\V.Micro\Arduino\Builds\IREC_2017\chipKIT_chipkit_pic32_fubarino_sd/core.a(wiring.c.o)
 .debug_ranges  0x00002c10       0x28 C:\Users\nukem419\AppData\Local\V.Micro\Arduino\Builds\IREC_2017\chipKIT_chipkit_pic32_fubarino_sd/core.a(wiring_digital.c.o)
 .debug_ranges  0x00002c38      0x110 C:\Users\nukem419\AppData\Local\V.Micro\Arduino\Builds\IREC_2017\chipKIT_chipkit_pic32_fubarino_sd/core.a(WSystem.c.o)
 .debug_ranges  0x00002d48      0x210 C:\Users\nukem419\AppData\Local\V.Micro\Arduino\Builds\IREC_2017\chipKIT_chipkit_pic32_fubarino_sd/core.a(HardwareSerial.cpp.o)
 .debug_ranges  0x00002f58       0x10 C:\Users\nukem419\AppData\Local\V.Micro\Arduino\Builds\IREC_2017\chipKIT_chipkit_pic32_fubarino_sd/core.a(main.cpp.o)
 .debug_ranges  0x00002f68      0x2d8 C:\Users\nukem419\AppData\Local\V.Micro\Arduino\Builds\IREC_2017\chipKIT_chipkit_pic32_fubarino_sd/core.a(Print.cpp.o)
 .debug_ranges  0x00003240      0x1d0 C:\Users\nukem419\AppData\Local\V.Micro\Arduino\Builds\IREC_2017\chipKIT_chipkit_pic32_fubarino_sd/core.a(Stream.cpp.o)
 .debug_ranges  0x00003410      0x678 C:\Users\nukem419\AppData\Local\V.Micro\Arduino\Builds\IREC_2017\chipKIT_chipkit_pic32_fubarino_sd/core.a(WString.cpp.o)
 .debug_ranges  0x00003a88      0x210 C:\Users\nukem419\AppData\Local\V.Micro\Arduino\Builds\IREC_2017\chipKIT_chipkit_pic32_fubarino_sd/core.a(vector_table.S.o)
 .debug_ranges  0x00003c98       0x78 C:\Users\nukem419\AppData\Local\V.Micro\Arduino\Builds\IREC_2017\chipKIT_chipkit_pic32_fubarino_sd/core.a(HardwareSerial_cdcacm.c.o)
 .debug_ranges  0x00003d10      0x118 C:\Users\nukem419\AppData\Local\V.Micro\Arduino\Builds\IREC_2017\chipKIT_chipkit_pic32_fubarino_sd/core.a(HardwareSerial_usb.c.o)
 .debug_ranges  0x00003e28       0x10 C:\Users\nukem419\AppData\Local\V.Micro\Arduino\Builds\IREC_2017\chipKIT_chipkit_pic32_fubarino_sd/core.a(pins_arduino.c.o)
 .debug_ranges  0x00003e38       0x58 C:\Users\nukem419\AppData\Local\V.Micro\Arduino\Builds\IREC_2017\chipKIT_chipkit_pic32_fubarino_sd/core.a(wiring_analog.c.o)
 .debug_ranges  0x00003e90      0x450 C:\Users\nukem419\AppData\Local\V.Micro\Arduino\Builds\IREC_2017\chipKIT_chipkit_pic32_fubarino_sd/core.a(doprnt.cpp.o)
 .debug_ranges  0x000042e0       0x48 c:/users/nukem419/appdata/local/arduino15/packages/chipkit/tools/pic32-tools/1.42-pic32gcc/bin/bin/../../lib/gcc/pic32mx/4.8.3/../../../../pic32mx/lib/size\libsupc++.a(class_type_info.o)
 .debug_ranges  0x00004328       0x10 c:/users/nukem419/appdata/local/arduino15/packages/chipkit/tools/pic32-tools/1.42-pic32gcc/bin/bin/../../lib/gcc/pic32mx/4.8.3/../../../../pic32mx/lib/size\libsupc++.a(del_op.o)
 .debug_ranges  0x00004338      0x150 c:/users/nukem419/appdata/local/arduino15/packages/chipkit/tools/pic32-tools/1.42-pic32gcc/bin/bin/../../lib/gcc/pic32mx/4.8.3/../../../../pic32mx/lib/size\libsupc++.a(eh_personality.o)
 .debug_ranges  0x00004488       0x38 c:/users/nukem419/appdata/local/arduino15/packages/chipkit/tools/pic32-tools/1.42-pic32gcc/bin/bin/../../lib/gcc/pic32mx/4.8.3/../../../../pic32mx/lib/size\libsupc++.a(eh_terminate.o)
 .debug_ranges  0x000044c0       0x28 c:/users/nukem419/appdata/local/arduino15/packages/chipkit/tools/pic32-tools/1.42-pic32gcc/bin/bin/../../lib/gcc/pic32mx/4.8.3/../../../../pic32mx/lib/size\libsupc++.a(new_op.o)
 .debug_ranges  0x000044e8       0x38 c:/users/nukem419/appdata/local/arduino15/packages/chipkit/tools/pic32-tools/1.42-pic32gcc/bin/bin/../../lib/gcc/pic32mx/4.8.3/../../../../pic32mx/lib/size\libsupc++.a(si_class_type_info.o)
 .debug_ranges  0x00004520       0x50 c:/users/nukem419/appdata/local/arduino15/packages/chipkit/tools/pic32-tools/1.42-pic32gcc/bin/bin/../../lib/gcc/pic32mx/4.8.3/../../../../pic32mx/lib/size\libsupc++.a(tinfo.o)
 .debug_ranges  0x00004570       0x18 c:/users/nukem419/appdata/local/arduino15/packages/chipkit/tools/pic32-tools/1.42-pic32gcc/bin/bin/../../lib/gcc/pic32mx/4.8.3/../../../../pic32mx/lib/size\libsupc++.a(pure.o)
 .debug_ranges  0x00004588       0x10 c:/users/nukem419/appdata/local/arduino15/packages/chipkit/tools/pic32-tools/1.42-pic32gcc/bin/bin/../../lib/gcc/pic32mx/4.8.3/../../../../pic32mx/lib/size\libsupc++.a(eh_call.o)
 .debug_ranges  0x00004598       0x40 c:/users/nukem419/appdata/local/arduino15/packages/chipkit/tools/pic32-tools/1.42-pic32gcc/bin/bin/../../lib/gcc/pic32mx/4.8.3/../../../../pic32mx/lib/size\libsupc++.a(eh_catch.o)
 .debug_ranges  0x000045d8       0x18 c:/users/nukem419/appdata/local/arduino15/packages/chipkit/tools/pic32-tools/1.42-pic32gcc/bin/bin/../../lib/gcc/pic32mx/4.8.3/../../../../pic32mx/lib/size\libsupc++.a(eh_globals.o)
 .debug_ranges  0x000045f0       0x10 c:/users/nukem419/appdata/local/arduino15/packages/chipkit/tools/pic32-tools/1.42-pic32gcc/bin/bin/../../lib/gcc/pic32mx/4.8.3/../../../../pic32mx/lib/size\libsupc++.a(new_handler.o)
 .debug_ranges  0x00004600       0xb8 c:/users/nukem419/appdata/local/arduino15/packages/chipkit/tools/pic32-tools/1.42-pic32gcc/bin/bin/../../lib/gcc/pic32mx/4.8.3/size\libgcc.a(addsf3.o)
 .debug_ranges  0x000046b8       0x18 c:/users/nukem419/appdata/local/arduino15/packages/chipkit/tools/pic32-tools/1.42-pic32gcc/bin/bin/../../lib/gcc/pic32mx/4.8.3/size\libgcc.a(divsf3.o)
 .debug_ranges  0x000046d0       0x20 c:/users/nukem419/appdata/local/arduino15/packages/chipkit/tools/pic32-tools/1.42-pic32gcc/bin/bin/../../lib/gcc/pic32mx/4.8.3/size\libgcc.a(gesf2.o)
 .debug_ranges  0x000046f0       0x28 c:/users/nukem419/appdata/local/arduino15/packages/chipkit/tools/pic32-tools/1.42-pic32gcc/bin/bin/../../lib/gcc/pic32mx/4.8.3/size\libgcc.a(mulsf3.o)
 .debug_ranges  0x00004718       0x98 c:/users/nukem419/appdata/local/arduino15/packages/chipkit/tools/pic32-tools/1.42-pic32gcc/bin/bin/../../lib/gcc/pic32mx/4.8.3/size\libgcc.a(subsf3.o)
 .debug_ranges  0x000047b0       0x48 c:/users/nukem419/appdata/local/arduino15/packages/chipkit/tools/pic32-tools/1.42-pic32gcc/bin/bin/../../lib/gcc/pic32mx/4.8.3/size\libgcc.a(floatsisf.o)
 .debug_ranges  0x000047f8      0x160 c:/users/nukem419/appdata/local/arduino15/packages/chipkit/tools/pic32-tools/1.42-pic32gcc/bin/bin/../../lib/gcc/pic32mx/4.8.3/size\libgcc.a(adddf3.o)
 .debug_ranges  0x00004958       0x60 c:/users/nukem419/appdata/local/arduino15/packages/chipkit/tools/pic32-tools/1.42-pic32gcc/bin/bin/../../lib/gcc/pic32mx/4.8.3/size\libgcc.a(divdf3.o)
 .debug_ranges  0x000049b8       0x18 c:/users/nukem419/appdata/local/arduino15/packages/chipkit/tools/pic32-tools/1.42-pic32gcc/bin/bin/../../lib/gcc/pic32mx/4.8.3/size\libgcc.a(gedf2.o)
 .debug_ranges  0x000049d0       0x18 c:/users/nukem419/appdata/local/arduino15/packages/chipkit/tools/pic32-tools/1.42-pic32gcc/bin/bin/../../lib/gcc/pic32mx/4.8.3/size\libgcc.a(ledf2.o)
 .debug_ranges  0x000049e8       0xc0 c:/users/nukem419/appdata/local/arduino15/packages/chipkit/tools/pic32-tools/1.42-pic32gcc/bin/bin/../../lib/gcc/pic32mx/4.8.3/size\libgcc.a(muldf3.o)
 .debug_ranges  0x00004aa8      0x140 c:/users/nukem419/appdata/local/arduino15/packages/chipkit/tools/pic32-tools/1.42-pic32gcc/bin/bin/../../lib/gcc/pic32mx/4.8.3/size\libgcc.a(subdf3.o)
 .debug_ranges  0x00004be8       0x18 c:/users/nukem419/appdata/local/arduino15/packages/chipkit/tools/pic32-tools/1.42-pic32gcc/bin/bin/../../lib/gcc/pic32mx/4.8.3/size\libgcc.a(floatsidf.o)
 .debug_ranges  0x00004c00       0x18 c:/users/nukem419/appdata/local/arduino15/packages/chipkit/tools/pic32-tools/1.42-pic32gcc/bin/bin/../../lib/gcc/pic32mx/4.8.3/size\libgcc.a(extendsfdf2.o)
 .debug_ranges  0x00004c18       0x18 c:/users/nukem419/appdata/local/arduino15/packages/chipkit/tools/pic32-tools/1.42-pic32gcc/bin/bin/../../lib/gcc/pic32mx/4.8.3/size\libgcc.a(truncdfsf2.o)
 .debug_ranges  0x00004c30       0xa8 c:/users/nukem419/appdata/local/arduino15/packages/chipkit/tools/pic32-tools/1.42-pic32gcc/bin/bin/../../lib/gcc/pic32mx/4.8.3/size\libgcc.a(unwind-sjlj.o)
 .debug_ranges  0x00004cd8       0x40 c:/users/nukem419/appdata/local/arduino15/packages/chipkit/tools/pic32-tools/1.42-pic32gcc/bin/bin/../../lib/gcc/pic32mx/4.8.3/size\libgcc.a(_udivdi3.o)
 .debug_ranges  0x00004d18       0x38 c:/users/nukem419/appdata/local/arduino15/packages/chipkit/tools/pic32-tools/1.42-pic32gcc/bin/bin/../../lib/gcc/pic32mx/4.8.3/size\libgcc.a(_umoddi3.o)

.gnu.attributes
                0x00000000       0x10
 *(.gnu.attributes)
 .gnu.attributes
                0x00000000       0x10 C:\Users\nukem419\AppData\Local\V.Micro\Arduino\Builds\IREC_2017\chipKIT_chipkit_pic32_fubarino_sd\SD\File.cpp.o
 .gnu.attributes
                0x00000010       0x10 C:\Users\nukem419\AppData\Local\V.Micro\Arduino\Builds\IREC_2017\chipKIT_chipkit_pic32_fubarino_sd\SD\SD.cpp.o
 .gnu.attributes
                0x00000020       0x10 C:\Users\nukem419\AppData\Local\V.Micro\Arduino\Builds\IREC_2017\chipKIT_chipkit_pic32_fubarino_sd\SD\utility\Sd2Card.cpp.o
 .gnu.attributes
                0x00000030       0x10 C:\Users\nukem419\AppData\Local\V.Micro\Arduino\Builds\IREC_2017\chipKIT_chipkit_pic32_fubarino_sd\SD\utility\SdFile.cpp.o
 .gnu.attributes
                0x00000040       0x10 C:\Users\nukem419\AppData\Local\V.Micro\Arduino\Builds\IREC_2017\chipKIT_chipkit_pic32_fubarino_sd\SD\utility\SdVolume.cpp.o
 .gnu.attributes
                0x00000050       0x10 C:\Users\nukem419\AppData\Local\V.Micro\Arduino\Builds\IREC_2017\chipKIT_chipkit_pic32_fubarino_sd\Wire\Wire.cpp.o
 .gnu.attributes
                0x00000060       0x10 C:\Users\nukem419\AppData\Local\V.Micro\Arduino\Builds\IREC_2017\chipKIT_chipkit_pic32_fubarino_sd\IREC_2017.cpp.o
 .gnu.attributes
                0x00000070       0x10 C:\Users\nukem419\AppData\Local\V.Micro\Arduino\Builds\IREC_2017\chipKIT_chipkit_pic32_fubarino_sd\BMP180.cpp.o
 .gnu.attributes
                0x00000080       0x10 C:\Users\nukem419\AppData\Local\V.Micro\Arduino\Builds\IREC_2017\chipKIT_chipkit_pic32_fubarino_sd\DataLogger.cpp.o
 .gnu.attributes
                0x00000090       0x10 C:\Users\nukem419\AppData\Local\V.Micro\Arduino\Builds\IREC_2017\chipKIT_chipkit_pic32_fubarino_sd\EM_506.cpp.o
 .gnu.attributes
                0x000000a0       0x10 C:\Users\nukem419\AppData\Local\V.Micro\Arduino\Builds\IREC_2017\chipKIT_chipkit_pic32_fubarino_sd\L3GD20TR.cpp.o
 .gnu.attributes
                0x000000b0       0x10 C:\Users\nukem419\AppData\Local\V.Micro\Arduino\Builds\IREC_2017\chipKIT_chipkit_pic32_fubarino_sd\LIS331HH.cpp.o
 .gnu.attributes
                0x000000c0       0x10 C:\Users\nukem419\AppData\Local\V.Micro\Arduino\Builds\IREC_2017\chipKIT_chipkit_pic32_fubarino_sd\Parameters.cpp.o
 .gnu.attributes
                0x000000d0       0x10 C:\Users\nukem419\AppData\Local\V.Micro\Arduino\Builds\IREC_2017\chipKIT_chipkit_pic32_fubarino_sd\WSU_mavlink.cpp.o
 .gnu.attributes
                0x000000e0       0x10 C:\Users\nukem419\AppData\Local\V.Micro\Arduino\Builds\IREC_2017\chipKIT_chipkit_pic32_fubarino_sd/core.a(task_manager.c.o)
 .gnu.attributes
                0x000000f0       0x10 C:\Users\nukem419\AppData\Local\V.Micro\Arduino\Builds\IREC_2017\chipKIT_chipkit_pic32_fubarino_sd/core.a(wiring.c.o)
 .gnu.attributes
                0x00000100       0x10 C:\Users\nukem419\AppData\Local\V.Micro\Arduino\Builds\IREC_2017\chipKIT_chipkit_pic32_fubarino_sd/core.a(wiring_digital.c.o)
 .gnu.attributes
                0x00000110       0x10 C:\Users\nukem419\AppData\Local\V.Micro\Arduino\Builds\IREC_2017\chipKIT_chipkit_pic32_fubarino_sd/core.a(WSystem.c.o)
 .gnu.attributes
                0x00000120       0x10 C:\Users\nukem419\AppData\Local\V.Micro\Arduino\Builds\IREC_2017\chipKIT_chipkit_pic32_fubarino_sd/core.a(HardwareSerial.cpp.o)
 .gnu.attributes
                0x00000130       0x10 C:\Users\nukem419\AppData\Local\V.Micro\Arduino\Builds\IREC_2017\chipKIT_chipkit_pic32_fubarino_sd/core.a(main.cpp.o)
 .gnu.attributes
                0x00000140       0x10 C:\Users\nukem419\AppData\Local\V.Micro\Arduino\Builds\IREC_2017\chipKIT_chipkit_pic32_fubarino_sd/core.a(Print.cpp.o)
 .gnu.attributes
                0x00000150       0x10 C:\Users\nukem419\AppData\Local\V.Micro\Arduino\Builds\IREC_2017\chipKIT_chipkit_pic32_fubarino_sd/core.a(Stream.cpp.o)
 .gnu.attributes
                0x00000160       0x10 C:\Users\nukem419\AppData\Local\V.Micro\Arduino\Builds\IREC_2017\chipKIT_chipkit_pic32_fubarino_sd/core.a(WString.cpp.o)
 .gnu.attributes
                0x00000170       0x10 C:\Users\nukem419\AppData\Local\V.Micro\Arduino\Builds\IREC_2017\chipKIT_chipkit_pic32_fubarino_sd/core.a(HardwareSerial_cdcacm.c.o)
 .gnu.attributes
                0x00000180       0x10 C:\Users\nukem419\AppData\Local\V.Micro\Arduino\Builds\IREC_2017\chipKIT_chipkit_pic32_fubarino_sd/core.a(HardwareSerial_usb.c.o)
 .gnu.attributes
                0x00000190       0x10 C:\Users\nukem419\AppData\Local\V.Micro\Arduino\Builds\IREC_2017\chipKIT_chipkit_pic32_fubarino_sd/core.a(pins_arduino.c.o)
 .gnu.attributes
                0x000001a0       0x10 C:\Users\nukem419\AppData\Local\V.Micro\Arduino\Builds\IREC_2017\chipKIT_chipkit_pic32_fubarino_sd/core.a(wiring_analog.c.o)
 .gnu.attributes
                0x000001b0       0x10 C:\Users\nukem419\AppData\Local\V.Micro\Arduino\Builds\IREC_2017\chipKIT_chipkit_pic32_fubarino_sd/core.a(doprnt.cpp.o)
 .gnu.attributes
                0x000001c0       0x10 c:/users/nukem419/appdata/local/arduino15/packages/chipkit/tools/pic32-tools/1.42-pic32gcc/bin/bin/../../lib/gcc/pic32mx/4.8.3/../../../../pic32mx/lib/size\libsupc++.a(class_type_info.o)
 .gnu.attributes
                0x000001d0       0x10 c:/users/nukem419/appdata/local/arduino15/packages/chipkit/tools/pic32-tools/1.42-pic32gcc/bin/bin/../../lib/gcc/pic32mx/4.8.3/../../../../pic32mx/lib/size\libsupc++.a(del_op.o)
 .gnu.attributes
                0x000001e0       0x10 c:/users/nukem419/appdata/local/arduino15/packages/chipkit/tools/pic32-tools/1.42-pic32gcc/bin/bin/../../lib/gcc/pic32mx/4.8.3/../../../../pic32mx/lib/size\libsupc++.a(eh_personality.o)
 .gnu.attributes
                0x000001f0       0x10 c:/users/nukem419/appdata/local/arduino15/packages/chipkit/tools/pic32-tools/1.42-pic32gcc/bin/bin/../../lib/gcc/pic32mx/4.8.3/../../../../pic32mx/lib/size\libsupc++.a(eh_terminate.o)
 .gnu.attributes
                0x00000200       0x10 c:/users/nukem419/appdata/local/arduino15/packages/chipkit/tools/pic32-tools/1.42-pic32gcc/bin/bin/../../lib/gcc/pic32mx/4.8.3/../../../../pic32mx/lib/size\libsupc++.a(eh_unex_handler.o)
 .gnu.attributes
                0x00000210       0x10 c:/users/nukem419/appdata/local/arduino15/packages/chipkit/tools/pic32-tools/1.42-pic32gcc/bin/bin/../../lib/gcc/pic32mx/4.8.3/../../../../pic32mx/lib/size\libsupc++.a(new_op.o)
 .gnu.attributes
                0x00000220       0x10 c:/users/nukem419/appdata/local/arduino15/packages/chipkit/tools/pic32-tools/1.42-pic32gcc/bin/bin/../../lib/gcc/pic32mx/4.8.3/../../../../pic32mx/lib/size\libsupc++.a(si_class_type_info.o)
 .gnu.attributes
                0x00000230       0x10 c:/users/nukem419/appdata/local/arduino15/packages/chipkit/tools/pic32-tools/1.42-pic32gcc/bin/bin/../../lib/gcc/pic32mx/4.8.3/../../../../pic32mx/lib/size\libsupc++.a(tinfo.o)
 .gnu.attributes
                0x00000240       0x10 c:/users/nukem419/appdata/local/arduino15/packages/chipkit/tools/pic32-tools/1.42-pic32gcc/bin/bin/../../lib/gcc/pic32mx/4.8.3/../../../../pic32mx/lib/size\libsupc++.a(pure.o)
 .gnu.attributes
                0x00000250       0x10 c:/users/nukem419/appdata/local/arduino15/packages/chipkit/tools/pic32-tools/1.42-pic32gcc/bin/bin/../../lib/gcc/pic32mx/4.8.3/../../../../pic32mx/lib/size\libsupc++.a(eh_call.o)
 .gnu.attributes
                0x00000260       0x10 c:/users/nukem419/appdata/local/arduino15/packages/chipkit/tools/pic32-tools/1.42-pic32gcc/bin/bin/../../lib/gcc/pic32mx/4.8.3/../../../../pic32mx/lib/size\libsupc++.a(eh_catch.o)
 .gnu.attributes
                0x00000270       0x10 c:/users/nukem419/appdata/local/arduino15/packages/chipkit/tools/pic32-tools/1.42-pic32gcc/bin/bin/../../lib/gcc/pic32mx/4.8.3/../../../../pic32mx/lib/size\libsupc++.a(eh_globals.o)
 .gnu.attributes
                0x00000280       0x10 c:/users/nukem419/appdata/local/arduino15/packages/chipkit/tools/pic32-tools/1.42-pic32gcc/bin/bin/../../lib/gcc/pic32mx/4.8.3/../../../../pic32mx/lib/size\libsupc++.a(eh_term_handler.o)
 .gnu.attributes
                0x00000290       0x10 c:/users/nukem419/appdata/local/arduino15/packages/chipkit/tools/pic32-tools/1.42-pic32gcc/bin/bin/../../lib/gcc/pic32mx/4.8.3/../../../../pic32mx/lib/size\libsupc++.a(new_handler.o)
 .gnu.attributes
                0x000002a0       0x10 c:/users/nukem419/appdata/local/arduino15/packages/chipkit/tools/pic32-tools/1.42-pic32gcc/bin/bin/../../lib/gcc/pic32mx/4.8.3/../../../../pic32mx/lib/size\libm.a(lib_a-s_fpclassify.o)
 .gnu.attributes
                0x000002b0       0x10 c:/users/nukem419/appdata/local/arduino15/packages/chipkit/tools/pic32-tools/1.42-pic32gcc/bin/bin/../../lib/gcc/pic32mx/4.8.3/../../../../pic32mx/lib/size\libm.a(lib_a-s_modf.o)
 .gnu.attributes
                0x000002c0       0x10 c:/users/nukem419/appdata/local/arduino15/packages/chipkit/tools/pic32-tools/1.42-pic32gcc/bin/bin/../../lib/gcc/pic32mx/4.8.3/../../../../pic32mx/lib/size\libm.a(lib_a-w_fmod.o)
 .gnu.attributes
                0x000002d0       0x10 c:/users/nukem419/appdata/local/arduino15/packages/chipkit/tools/pic32-tools/1.42-pic32gcc/bin/bin/../../lib/gcc/pic32mx/4.8.3/../../../../pic32mx/lib/size\libm.a(lib_a-w_pow.o)
 .gnu.attributes
                0x000002e0       0x10 c:/users/nukem419/appdata/local/arduino15/packages/chipkit/tools/pic32-tools/1.42-pic32gcc/bin/bin/../../lib/gcc/pic32mx/4.8.3/../../../../pic32mx/lib/size\libm.a(lib_a-e_fmod.o)
 .gnu.attributes
                0x000002f0       0x10 c:/users/nukem419/appdata/local/arduino15/packages/chipkit/tools/pic32-tools/1.42-pic32gcc/bin/bin/../../lib/gcc/pic32mx/4.8.3/../../../../pic32mx/lib/size\libm.a(lib_a-e_pow.o)
 .gnu.attributes
                0x00000300       0x10 c:/users/nukem419/appdata/local/arduino15/packages/chipkit/tools/pic32-tools/1.42-pic32gcc/bin/bin/../../lib/gcc/pic32mx/4.8.3/../../../../pic32mx/lib/size\libm.a(lib_a-e_sqrt.o)
 .gnu.attributes
                0x00000310       0x10 c:/users/nukem419/appdata/local/arduino15/packages/chipkit/tools/pic32-tools/1.42-pic32gcc/bin/bin/../../lib/gcc/pic32mx/4.8.3/../../../../pic32mx/lib/size\libm.a(lib_a-s_fabs.o)
 .gnu.attributes
                0x00000320       0x10 c:/users/nukem419/appdata/local/arduino15/packages/chipkit/tools/pic32-tools/1.42-pic32gcc/bin/bin/../../lib/gcc/pic32mx/4.8.3/../../../../pic32mx/lib/size\libm.a(lib_a-s_finite.o)
 .gnu.attributes
                0x00000330       0x10 c:/users/nukem419/appdata/local/arduino15/packages/chipkit/tools/pic32-tools/1.42-pic32gcc/bin/bin/../../lib/gcc/pic32mx/4.8.3/../../../../pic32mx/lib/size\libm.a(lib_a-s_lib_ver.o)
 .gnu.attributes
                0x00000340       0x10 c:/users/nukem419/appdata/local/arduino15/packages/chipkit/tools/pic32-tools/1.42-pic32gcc/bin/bin/../../lib/gcc/pic32mx/4.8.3/../../../../pic32mx/lib/size\libm.a(lib_a-s_matherr.o)
 .gnu.attributes
                0x00000350       0x10 c:/users/nukem419/appdata/local/arduino15/packages/chipkit/tools/pic32-tools/1.42-pic32gcc/bin/bin/../../lib/gcc/pic32mx/4.8.3/../../../../pic32mx/lib/size\libm.a(lib_a-s_nan.o)
 .gnu.attributes
                0x00000360       0x10 c:/users/nukem419/appdata/local/arduino15/packages/chipkit/tools/pic32-tools/1.42-pic32gcc/bin/bin/../../lib/gcc/pic32mx/4.8.3/../../../../pic32mx/lib/size\libm.a(lib_a-s_rint.o)
 .gnu.attributes
                0x00000370       0x10 c:/users/nukem419/appdata/local/arduino15/packages/chipkit/tools/pic32-tools/1.42-pic32gcc/bin/bin/../../lib/gcc/pic32mx/4.8.3/../../../../pic32mx/lib/size\libm.a(lib_a-s_scalbn.o)
 .gnu.attributes
                0x00000380       0x10 c:/users/nukem419/appdata/local/arduino15/packages/chipkit/tools/pic32-tools/1.42-pic32gcc/bin/bin/../../lib/gcc/pic32mx/4.8.3/../../../../pic32mx/lib/size\libm.a(lib_a-s_copysign.o)
 .gnu.attributes
                0x00000390       0x10 c:/users/nukem419/appdata/local/arduino15/packages/chipkit/tools/pic32-tools/1.42-pic32gcc/bin/bin/../../lib/gcc/pic32mx/4.8.3/size\crtbegin.o
 .gnu.attributes
                0x000003a0       0x10 c:/users/nukem419/appdata/local/arduino15/packages/chipkit/tools/pic32-tools/1.42-pic32gcc/bin/bin/../../lib/gcc/pic32mx/4.8.3/size\crtend.o
 .gnu.attributes
                0x000003b0       0x10 c:/users/nukem419/appdata/local/arduino15/packages/chipkit/tools/pic32-tools/1.42-pic32gcc/bin/bin/../../lib/gcc/pic32mx/4.8.3/size\libgcc.a(addsf3.o)
 .gnu.attributes
                0x000003c0       0x10 c:/users/nukem419/appdata/local/arduino15/packages/chipkit/tools/pic32-tools/1.42-pic32gcc/bin/bin/../../lib/gcc/pic32mx/4.8.3/size\libgcc.a(divsf3.o)
 .gnu.attributes
                0x000003d0       0x10 c:/users/nukem419/appdata/local/arduino15/packages/chipkit/tools/pic32-tools/1.42-pic32gcc/bin/bin/../../lib/gcc/pic32mx/4.8.3/size\libgcc.a(eqsf2.o)
 .gnu.attributes
                0x000003e0       0x10 c:/users/nukem419/appdata/local/arduino15/packages/chipkit/tools/pic32-tools/1.42-pic32gcc/bin/bin/../../lib/gcc/pic32mx/4.8.3/size\libgcc.a(gesf2.o)
 .gnu.attributes
                0x000003f0       0x10 c:/users/nukem419/appdata/local/arduino15/packages/chipkit/tools/pic32-tools/1.42-pic32gcc/bin/bin/../../lib/gcc/pic32mx/4.8.3/size\libgcc.a(mulsf3.o)
 .gnu.attributes
                0x00000400       0x10 c:/users/nukem419/appdata/local/arduino15/packages/chipkit/tools/pic32-tools/1.42-pic32gcc/bin/bin/../../lib/gcc/pic32mx/4.8.3/size\libgcc.a(subsf3.o)
 .gnu.attributes
                0x00000410       0x10 c:/users/nukem419/appdata/local/arduino15/packages/chipkit/tools/pic32-tools/1.42-pic32gcc/bin/bin/../../lib/gcc/pic32mx/4.8.3/size\libgcc.a(fixsfsi.o)
 .gnu.attributes
                0x00000420       0x10 c:/users/nukem419/appdata/local/arduino15/packages/chipkit/tools/pic32-tools/1.42-pic32gcc/bin/bin/../../lib/gcc/pic32mx/4.8.3/size\libgcc.a(fixunssfsi.o)
 .gnu.attributes
                0x00000430       0x10 c:/users/nukem419/appdata/local/arduino15/packages/chipkit/tools/pic32-tools/1.42-pic32gcc/bin/bin/../../lib/gcc/pic32mx/4.8.3/size\libgcc.a(floatsisf.o)
 .gnu.attributes
                0x00000440       0x10 c:/users/nukem419/appdata/local/arduino15/packages/chipkit/tools/pic32-tools/1.42-pic32gcc/bin/bin/../../lib/gcc/pic32mx/4.8.3/size\libgcc.a(floatunsisf.o)
 .gnu.attributes
                0x00000450       0x10 c:/users/nukem419/appdata/local/arduino15/packages/chipkit/tools/pic32-tools/1.42-pic32gcc/bin/bin/../../lib/gcc/pic32mx/4.8.3/size\libgcc.a(fixunssfdi.o)
 .gnu.attributes
                0x00000460       0x10 c:/users/nukem419/appdata/local/arduino15/packages/chipkit/tools/pic32-tools/1.42-pic32gcc/bin/bin/../../lib/gcc/pic32mx/4.8.3/size\libgcc.a(adddf3.o)
 .gnu.attributes
                0x00000470       0x10 c:/users/nukem419/appdata/local/arduino15/packages/chipkit/tools/pic32-tools/1.42-pic32gcc/bin/bin/../../lib/gcc/pic32mx/4.8.3/size\libgcc.a(divdf3.o)
 .gnu.attributes
                0x00000480       0x10 c:/users/nukem419/appdata/local/arduino15/packages/chipkit/tools/pic32-tools/1.42-pic32gcc/bin/bin/../../lib/gcc/pic32mx/4.8.3/size\libgcc.a(eqdf2.o)
 .gnu.attributes
                0x00000490       0x10 c:/users/nukem419/appdata/local/arduino15/packages/chipkit/tools/pic32-tools/1.42-pic32gcc/bin/bin/../../lib/gcc/pic32mx/4.8.3/size\libgcc.a(gedf2.o)
 .gnu.attributes
                0x000004a0       0x10 c:/users/nukem419/appdata/local/arduino15/packages/chipkit/tools/pic32-tools/1.42-pic32gcc/bin/bin/../../lib/gcc/pic32mx/4.8.3/size\libgcc.a(ledf2.o)
 .gnu.attributes
                0x000004b0       0x10 c:/users/nukem419/appdata/local/arduino15/packages/chipkit/tools/pic32-tools/1.42-pic32gcc/bin/bin/../../lib/gcc/pic32mx/4.8.3/size\libgcc.a(muldf3.o)
 .gnu.attributes
                0x000004c0       0x10 c:/users/nukem419/appdata/local/arduino15/packages/chipkit/tools/pic32-tools/1.42-pic32gcc/bin/bin/../../lib/gcc/pic32mx/4.8.3/size\libgcc.a(subdf3.o)
 .gnu.attributes
                0x000004d0       0x10 c:/users/nukem419/appdata/local/arduino15/packages/chipkit/tools/pic32-tools/1.42-pic32gcc/bin/bin/../../lib/gcc/pic32mx/4.8.3/size\libgcc.a(fixdfsi.o)
 .gnu.attributes
                0x000004e0       0x10 c:/users/nukem419/appdata/local/arduino15/packages/chipkit/tools/pic32-tools/1.42-pic32gcc/bin/bin/../../lib/gcc/pic32mx/4.8.3/size\libgcc.a(fixunsdfsi.o)
 .gnu.attributes
                0x000004f0       0x10 c:/users/nukem419/appdata/local/arduino15/packages/chipkit/tools/pic32-tools/1.42-pic32gcc/bin/bin/../../lib/gcc/pic32mx/4.8.3/size\libgcc.a(floatsidf.o)
 .gnu.attributes
                0x00000500       0x10 c:/users/nukem419/appdata/local/arduino15/packages/chipkit/tools/pic32-tools/1.42-pic32gcc/bin/bin/../../lib/gcc/pic32mx/4.8.3/size\libgcc.a(floatunsidf.o)
 .gnu.attributes
                0x00000510       0x10 c:/users/nukem419/appdata/local/arduino15/packages/chipkit/tools/pic32-tools/1.42-pic32gcc/bin/bin/../../lib/gcc/pic32mx/4.8.3/size\libgcc.a(extendsfdf2.o)
 .gnu.attributes
                0x00000520       0x10 c:/users/nukem419/appdata/local/arduino15/packages/chipkit/tools/pic32-tools/1.42-pic32gcc/bin/bin/../../lib/gcc/pic32mx/4.8.3/size\libgcc.a(truncdfsf2.o)
 .gnu.attributes
                0x00000530       0x10 c:/users/nukem419/appdata/local/arduino15/packages/chipkit/tools/pic32-tools/1.42-pic32gcc/bin/bin/../../lib/gcc/pic32mx/4.8.3/size\libgcc.a(unwind-sjlj.o)
 .gnu.attributes
                0x00000540       0x10 c:/users/nukem419/appdata/local/arduino15/packages/chipkit/tools/pic32-tools/1.42-pic32gcc/bin/bin/../../lib/gcc/pic32mx/4.8.3/size\libgcc.a(_ashldi3.o)
 .gnu.attributes
                0x00000550       0x10 c:/users/nukem419/appdata/local/arduino15/packages/chipkit/tools/pic32-tools/1.42-pic32gcc/bin/bin/../../lib/gcc/pic32mx/4.8.3/../../../../pic32mx/lib/size\libc.a(lib_a-abort.o)
 .gnu.attributes
                0x00000560       0x10 c:/users/nukem419/appdata/local/arduino15/packages/chipkit/tools/pic32-tools/1.42-pic32gcc/bin/bin/../../lib/gcc/pic32mx/4.8.3/../../../../pic32mx/lib/size\libc.a(lib_a-atof.o)
 .gnu.attributes
                0x00000570       0x10 c:/users/nukem419/appdata/local/arduino15/packages/chipkit/tools/pic32-tools/1.42-pic32gcc/bin/bin/../../lib/gcc/pic32mx/4.8.3/../../../../pic32mx/lib/size\libc.a(lib_a-atol.o)
 .gnu.attributes
                0x00000580       0x10 c:/users/nukem419/appdata/local/arduino15/packages/chipkit/tools/pic32-tools/1.42-pic32gcc/bin/bin/../../lib/gcc/pic32mx/4.8.3/../../../../pic32mx/lib/size\libc.a(lib_a-errno.o)
 .gnu.attributes
                0x00000590       0x10 c:/users/nukem419/appdata/local/arduino15/packages/chipkit/tools/pic32-tools/1.42-pic32gcc/bin/bin/../../lib/gcc/pic32mx/4.8.3/../../../../pic32mx/lib/size\libc.a(lib_a-impure.o)
 .gnu.attributes
                0x000005a0       0x10 c:/users/nukem419/appdata/local/arduino15/packages/chipkit/tools/pic32-tools/1.42-pic32gcc/bin/bin/../../lib/gcc/pic32mx/4.8.3/../../../../pic32mx/lib/size\libc.a(lib_a-isspace.o)
 .gnu.attributes
                0x000005b0       0x10 c:/users/nukem419/appdata/local/arduino15/packages/chipkit/tools/pic32-tools/1.42-pic32gcc/bin/bin/../../lib/gcc/pic32mx/4.8.3/../../../../pic32mx/lib/size\libc.a(lib_a-malloc.o)
 .gnu.attributes
                0x000005c0       0x10 c:/users/nukem419/appdata/local/arduino15/packages/chipkit/tools/pic32-tools/1.42-pic32gcc/bin/bin/../../lib/gcc/pic32mx/4.8.3/../../../../pic32mx/lib/size\libc.a(lib_a-mallocr.o)
 .gnu.attributes
                0x000005d0       0x10 c:/users/nukem419/appdata/local/arduino15/packages/chipkit/tools/pic32-tools/1.42-pic32gcc/bin/bin/../../lib/gcc/pic32mx/4.8.3/../../../../pic32mx/lib/size\libc.a(lib_a-memcmp.o)
 .gnu.attributes
                0x000005e0       0x10 c:/users/nukem419/appdata/local/arduino15/packages/chipkit/tools/pic32-tools/1.42-pic32gcc/bin/bin/../../lib/gcc/pic32mx/4.8.3/../../../../pic32mx/lib/size\libc.a(lib_a-memcpy.o)
 .gnu.attributes
                0x000005f0       0x10 c:/users/nukem419/appdata/local/arduino15/packages/chipkit/tools/pic32-tools/1.42-pic32gcc/bin/bin/../../lib/gcc/pic32mx/4.8.3/../../../../pic32mx/lib/size\libc.a(lib_a-memmove.o)
 .gnu.attributes
                0x00000600       0x10 c:/users/nukem419/appdata/local/arduino15/packages/chipkit/tools/pic32-tools/1.42-pic32gcc/bin/bin/../../lib/gcc/pic32mx/4.8.3/../../../../pic32mx/lib/size\libc.a(lib_a-memset.o)
 .gnu.attributes
                0x00000610       0x10 c:/users/nukem419/appdata/local/arduino15/packages/chipkit/tools/pic32-tools/1.42-pic32gcc/bin/bin/../../lib/gcc/pic32mx/4.8.3/../../../../pic32mx/lib/size\libc.a(lib_a-mlock.o)
 .gnu.attributes
                0x00000620       0x10 c:/users/nukem419/appdata/local/arduino15/packages/chipkit/tools/pic32-tools/1.42-pic32gcc/bin/bin/../../lib/gcc/pic32mx/4.8.3/../../../../pic32mx/lib/size\libc.a(lib_a-realloc.o)
 .gnu.attributes
                0x00000630       0x10 c:/users/nukem419/appdata/local/arduino15/packages/chipkit/tools/pic32-tools/1.42-pic32gcc/bin/bin/../../lib/gcc/pic32mx/4.8.3/../../../../pic32mx/lib/size\libc.a(lib_a-reallocr.o)
 .gnu.attributes
                0x00000640       0x10 c:/users/nukem419/appdata/local/arduino15/packages/chipkit/tools/pic32-tools/1.42-pic32gcc/bin/bin/../../lib/gcc/pic32mx/4.8.3/../../../../pic32mx/lib/size\libc.a(lib_a-sbrkr.o)
 .gnu.attributes
                0x00000650       0x10 c:/users/nukem419/appdata/local/arduino15/packages/chipkit/tools/pic32-tools/1.42-pic32gcc/bin/bin/../../lib/gcc/pic32mx/4.8.3/../../../../pic32mx/lib/size\libc.a(lib_a-signal.o)
 .gnu.attributes
                0x00000660       0x10 c:/users/nukem419/appdata/local/arduino15/packages/chipkit/tools/pic32-tools/1.42-pic32gcc/bin/bin/../../lib/gcc/pic32mx/4.8.3/../../../../pic32mx/lib/size\libc.a(lib_a-signalr.o)
 .gnu.attributes
                0x00000670       0x10 c:/users/nukem419/appdata/local/arduino15/packages/chipkit/tools/pic32-tools/1.42-pic32gcc/bin/bin/../../lib/gcc/pic32mx/4.8.3/../../../../pic32mx/lib/size\libc.a(lib_a-snprintf.o)
 .gnu.attributes
                0x00000680       0x10 c:/users/nukem419/appdata/local/arduino15/packages/chipkit/tools/pic32-tools/1.42-pic32gcc/bin/bin/../../lib/gcc/pic32mx/4.8.3/../../../../pic32mx/lib/size\libc.a(lib_a-strchr.o)
 .gnu.attributes
                0x00000690       0x10 c:/users/nukem419/appdata/local/arduino15/packages/chipkit/tools/pic32-tools/1.42-pic32gcc/bin/bin/../../lib/gcc/pic32mx/4.8.3/../../../../pic32mx/lib/size\libc.a(lib_a-strcmp.o)
 .gnu.attributes
                0x000006a0       0x10 c:/users/nukem419/appdata/local/arduino15/packages/chipkit/tools/pic32-tools/1.42-pic32gcc/bin/bin/../../lib/gcc/pic32mx/4.8.3/../../../../pic32mx/lib/size\libc.a(lib_a-strcpy.o)
 .gnu.attributes
                0x000006b0       0x10 c:/users/nukem419/appdata/local/arduino15/packages/chipkit/tools/pic32-tools/1.42-pic32gcc/bin/bin/../../lib/gcc/pic32mx/4.8.3/../../../../pic32mx/lib/size\libc.a(lib_a-strlen.o)
 .gnu.attributes
                0x000006c0       0x10 c:/users/nukem419/appdata/local/arduino15/packages/chipkit/tools/pic32-tools/1.42-pic32gcc/bin/bin/../../lib/gcc/pic32mx/4.8.3/../../../../pic32mx/lib/size\libc.a(lib_a-strncmp.o)
 .gnu.attributes
                0x000006d0       0x10 c:/users/nukem419/appdata/local/arduino15/packages/chipkit/tools/pic32-tools/1.42-pic32gcc/bin/bin/../../lib/gcc/pic32mx/4.8.3/../../../../pic32mx/lib/size\libc.a(lib_a-strncpy.o)
 .gnu.attributes
                0x000006e0       0x10 c:/users/nukem419/appdata/local/arduino15/packages/chipkit/tools/pic32-tools/1.42-pic32gcc/bin/bin/../../lib/gcc/pic32mx/4.8.3/../../../../pic32mx/lib/size\libc.a(lib_a-strrchr.o)
 .gnu.attributes
                0x000006f0       0x10 c:/users/nukem419/appdata/local/arduino15/packages/chipkit/tools/pic32-tools/1.42-pic32gcc/bin/bin/../../lib/gcc/pic32mx/4.8.3/../../../../pic32mx/lib/size\libc.a(lib_a-strstr.o)
 .gnu.attributes
                0x00000700       0x10 c:/users/nukem419/appdata/local/arduino15/packages/chipkit/tools/pic32-tools/1.42-pic32gcc/bin/bin/../../lib/gcc/pic32mx/4.8.3/../../../../pic32mx/lib/size\libc.a(lib_a-strtod.o)
 .gnu.attributes
                0x00000710       0x10 c:/users/nukem419/appdata/local/arduino15/packages/chipkit/tools/pic32-tools/1.42-pic32gcc/bin/bin/../../lib/gcc/pic32mx/4.8.3/../../../../pic32mx/lib/size\libc.a(lib_a-strtol.o)
 .gnu.attributes
                0x00000720       0x10 c:/users/nukem419/appdata/local/arduino15/packages/chipkit/tools/pic32-tools/1.42-pic32gcc/bin/bin/../../lib/gcc/pic32mx/4.8.3/../../../../pic32mx/lib/size\libc.a(lib_a-svfprintf.o)
 .gnu.attributes
                0x00000730       0x10 c:/users/nukem419/appdata/local/arduino15/packages/chipkit/tools/pic32-tools/1.42-pic32gcc/bin/bin/../../lib/gcc/pic32mx/4.8.3/../../../../pic32mx/lib/size\libc.a(lib_a-tolower.o)
 .gnu.attributes
                0x00000740       0x10 c:/users/nukem419/appdata/local/arduino15/packages/chipkit/tools/pic32-tools/1.42-pic32gcc/bin/bin/../../lib/gcc/pic32mx/4.8.3/../../../../pic32mx/lib/size\libc.a(lib_a-toupper.o)
 .gnu.attributes
                0x00000750       0x10 c:/users/nukem419/appdata/local/arduino15/packages/chipkit/tools/pic32-tools/1.42-pic32gcc/bin/bin/../../lib/gcc/pic32mx/4.8.3/../../../../pic32mx/lib/size\libc.a(lib_a-ctype_.o)
 .gnu.attributes
                0x00000760       0x10 c:/users/nukem419/appdata/local/arduino15/packages/chipkit/tools/pic32-tools/1.42-pic32gcc/bin/bin/../../lib/gcc/pic32mx/4.8.3/../../../../pic32mx/lib/size\libc.a(lib_a-dtoa.o)
 .gnu.attributes
                0x00000770       0x10 c:/users/nukem419/appdata/local/arduino15/packages/chipkit/tools/pic32-tools/1.42-pic32gcc/bin/bin/../../lib/gcc/pic32mx/4.8.3/../../../../pic32mx/lib/size\libc.a(lib_a-freer.o)
 .gnu.attributes
                0x00000780       0x10 c:/users/nukem419/appdata/local/arduino15/packages/chipkit/tools/pic32-tools/1.42-pic32gcc/bin/bin/../../lib/gcc/pic32mx/4.8.3/../../../../pic32mx/lib/size\libc.a(lib_a-gdtoa-gethex.o)
 .gnu.attributes
                0x00000790       0x10 c:/users/nukem419/appdata/local/arduino15/packages/chipkit/tools/pic32-tools/1.42-pic32gcc/bin/bin/../../lib/gcc/pic32mx/4.8.3/../../../../pic32mx/lib/size\libc.a(lib_a-gdtoa-hexnan.o)
 .gnu.attributes
                0x000007a0       0x10 c:/users/nukem419/appdata/local/arduino15/packages/chipkit/tools/pic32-tools/1.42-pic32gcc/bin/bin/../../lib/gcc/pic32mx/4.8.3/../../../../pic32mx/lib/size\libc.a(lib_a-locale.o)
 .gnu.attributes
                0x000007b0       0x10 c:/users/nukem419/appdata/local/arduino15/packages/chipkit/tools/pic32-tools/1.42-pic32gcc/bin/bin/../../lib/gcc/pic32mx/4.8.3/../../../../pic32mx/lib/size\libc.a(lib_a-memchr.o)
 .gnu.attributes
                0x000007c0       0x10 c:/users/nukem419/appdata/local/arduino15/packages/chipkit/tools/pic32-tools/1.42-pic32gcc/bin/bin/../../lib/gcc/pic32mx/4.8.3/../../../../pic32mx/lib/size\libc.a(lib_a-mprec.o)
 .gnu.attributes
                0x000007d0       0x10 c:/users/nukem419/appdata/local/arduino15/packages/chipkit/tools/pic32-tools/1.42-pic32gcc/bin/bin/../../lib/gcc/pic32mx/4.8.3/../../../../pic32mx/lib/size\libc.a(lib_a-reent.o)
 .gnu.attributes
                0x000007e0       0x10 c:/users/nukem419/appdata/local/arduino15/packages/chipkit/tools/pic32-tools/1.42-pic32gcc/bin/bin/../../lib/gcc/pic32mx/4.8.3/../../../../pic32mx/lib/size\libc.a(lib_a-sf_nan.o)
 .gnu.attributes
                0x000007f0       0x10 c:/users/nukem419/appdata/local/arduino15/packages/chipkit/tools/pic32-tools/1.42-pic32gcc/bin/bin/../../lib/gcc/pic32mx/4.8.3/../../../../pic32mx/lib/size\libc.a(lib_a-svfiprintf.o)
 .gnu.attributes
                0x00000800       0x10 c:/users/nukem419/appdata/local/arduino15/packages/chipkit/tools/pic32-tools/1.42-pic32gcc/bin/bin/../../lib/gcc/pic32mx/4.8.3/../../../../pic32mx/lib/size\libc.a(lib_a-callocr.o)
 .gnu.attributes
                0x00000810       0x10 c:/users/nukem419/appdata/local/arduino15/packages/chipkit/tools/pic32-tools/1.42-pic32gcc/bin/bin/../../lib/gcc/pic32mx/4.8.3/../../../../pic32mx/lib/size\libpic32.a(sbrk.o)
 .gnu.attributes
                0x00000820       0x10 c:/users/nukem419/appdata/local/arduino15/packages/chipkit/tools/pic32-tools/1.42-pic32gcc/bin/bin/../../lib/gcc/pic32mx/4.8.3/../../../../pic32mx/lib/size\libpic32.a(default-bootstrap-exception-handler.o)
 .gnu.attributes
                0x00000830       0x10 c:/users/nukem419/appdata/local/arduino15/packages/chipkit/tools/pic32-tools/1.42-pic32gcc/bin/bin/../../lib/gcc/pic32mx/4.8.3/../../../../pic32mx/lib/size\libpic32.a(default-on-reset.o)
 .gnu.attributes
                0x00000840       0x10 c:/users/nukem419/appdata/local/arduino15/packages/chipkit/tools/pic32-tools/1.42-pic32gcc/bin/bin/../../lib/gcc/pic32mx/4.8.3/../../../../pic32mx/lib/size\libpic32.a(default-on-bootstrap.o)
 .gnu.attributes
                0x00000850       0x10 c:/users/nukem419/appdata/local/arduino15/packages/chipkit/tools/pic32-tools/1.42-pic32gcc/bin/bin/../../lib/gcc/pic32mx/4.8.3/../../../../pic32mx/lib/size\libpic32.a(_exit.o)
 .gnu.attributes
                0x00000860       0x10 c:/users/nukem419/appdata/local/arduino15/packages/chipkit/tools/pic32-tools/1.42-pic32gcc/bin/bin/../../lib/gcc/pic32mx/4.8.3/../../../../pic32mx/lib/size\libpic32.a(kill.o)
 .gnu.attributes
                0x00000870       0x10 c:/users/nukem419/appdata/local/arduino15/packages/chipkit/tools/pic32-tools/1.42-pic32gcc/bin/bin/../../lib/gcc/pic32mx/4.8.3/../../../../pic32mx/lib/size\libpic32.a(getpid.o)
 .gnu.attributes
                0x00000880       0x10 c:/users/nukem419/appdata/local/arduino15/packages/chipkit/tools/pic32-tools/1.42-pic32gcc/bin/bin/../../lib/gcc/pic32mx/4.8.3/size\libgcc.a(_udivdi3.o)
 .gnu.attributes
                0x00000890       0x10 c:/users/nukem419/appdata/local/arduino15/packages/chipkit/tools/pic32-tools/1.42-pic32gcc/bin/bin/../../lib/gcc/pic32mx/4.8.3/size\libgcc.a(_umoddi3.o)
 *(.gnu.attributes)

.gptab.sdata
 *(.gptab.data)
 *(.gptab.sdata)

.gptab.sbss
 *(.gptab.bss)
 *(.gptab.sbss)

.mdebug.abi32   0xa0000490        0x0
 *(.mdebug.abi32)
 .mdebug.abi32  0xa0000490        0x0 C:\Users\nukem419\AppData\Local\V.Micro\Arduino\Builds\IREC_2017\chipKIT_chipkit_pic32_fubarino_sd\SD\File.cpp.o
 .mdebug.abi32  0xa0000490        0x0 C:\Users\nukem419\AppData\Local\V.Micro\Arduino\Builds\IREC_2017\chipKIT_chipkit_pic32_fubarino_sd\SD\SD.cpp.o
 .mdebug.abi32  0xa0000490        0x0 C:\Users\nukem419\AppData\Local\V.Micro\Arduino\Builds\IREC_2017\chipKIT_chipkit_pic32_fubarino_sd\SD\utility\Sd2Card.cpp.o
 .mdebug.abi32  0xa0000490        0x0 C:\Users\nukem419\AppData\Local\V.Micro\Arduino\Builds\IREC_2017\chipKIT_chipkit_pic32_fubarino_sd\SD\utility\SdFile.cpp.o
 .mdebug.abi32  0xa0000490        0x0 C:\Users\nukem419\AppData\Local\V.Micro\Arduino\Builds\IREC_2017\chipKIT_chipkit_pic32_fubarino_sd\SD\utility\SdVolume.cpp.o
 .mdebug.abi32  0xa0000490        0x0 C:\Users\nukem419\AppData\Local\V.Micro\Arduino\Builds\IREC_2017\chipKIT_chipkit_pic32_fubarino_sd\Wire\Wire.cpp.o
 .mdebug.abi32  0xa0000490        0x0 C:\Users\nukem419\AppData\Local\V.Micro\Arduino\Builds\IREC_2017\chipKIT_chipkit_pic32_fubarino_sd\IREC_2017.cpp.o
 .mdebug.abi32  0xa0000490        0x0 C:\Users\nukem419\AppData\Local\V.Micro\Arduino\Builds\IREC_2017\chipKIT_chipkit_pic32_fubarino_sd\BMP180.cpp.o
 .mdebug.abi32  0xa0000490        0x0 C:\Users\nukem419\AppData\Local\V.Micro\Arduino\Builds\IREC_2017\chipKIT_chipkit_pic32_fubarino_sd\DataLogger.cpp.o
 .mdebug.abi32  0xa0000490        0x0 C:\Users\nukem419\AppData\Local\V.Micro\Arduino\Builds\IREC_2017\chipKIT_chipkit_pic32_fubarino_sd\EM_506.cpp.o
 .mdebug.abi32  0xa0000490        0x0 C:\Users\nukem419\AppData\Local\V.Micro\Arduino\Builds\IREC_2017\chipKIT_chipkit_pic32_fubarino_sd\L3GD20TR.cpp.o
 .mdebug.abi32  0xa0000490        0x0 C:\Users\nukem419\AppData\Local\V.Micro\Arduino\Builds\IREC_2017\chipKIT_chipkit_pic32_fubarino_sd\LIS331HH.cpp.o
 .mdebug.abi32  0xa0000490        0x0 C:\Users\nukem419\AppData\Local\V.Micro\Arduino\Builds\IREC_2017\chipKIT_chipkit_pic32_fubarino_sd\Parameters.cpp.o
 .mdebug.abi32  0xa0000490        0x0 C:\Users\nukem419\AppData\Local\V.Micro\Arduino\Builds\IREC_2017\chipKIT_chipkit_pic32_fubarino_sd\WSU_mavlink.cpp.o
 .mdebug.abi32  0xa0000490        0x0 C:\Users\nukem419\AppData\Local\V.Micro\Arduino\Builds\IREC_2017\chipKIT_chipkit_pic32_fubarino_sd/core.a(task_manager.c.o)
 .mdebug.abi32  0xa0000490        0x0 C:\Users\nukem419\AppData\Local\V.Micro\Arduino\Builds\IREC_2017\chipKIT_chipkit_pic32_fubarino_sd/core.a(wiring.c.o)
 .mdebug.abi32  0xa0000490        0x0 C:\Users\nukem419\AppData\Local\V.Micro\Arduino\Builds\IREC_2017\chipKIT_chipkit_pic32_fubarino_sd/core.a(wiring_digital.c.o)
 .mdebug.abi32  0xa0000490        0x0 C:\Users\nukem419\AppData\Local\V.Micro\Arduino\Builds\IREC_2017\chipKIT_chipkit_pic32_fubarino_sd/core.a(WSystem.c.o)
 .mdebug.abi32  0xa0000490        0x0 C:\Users\nukem419\AppData\Local\V.Micro\Arduino\Builds\IREC_2017\chipKIT_chipkit_pic32_fubarino_sd/core.a(HardwareSerial.cpp.o)
 .mdebug.abi32  0xa0000490        0x0 C:\Users\nukem419\AppData\Local\V.Micro\Arduino\Builds\IREC_2017\chipKIT_chipkit_pic32_fubarino_sd/core.a(main.cpp.o)
 .mdebug.abi32  0xa0000490        0x0 C:\Users\nukem419\AppData\Local\V.Micro\Arduino\Builds\IREC_2017\chipKIT_chipkit_pic32_fubarino_sd/core.a(Print.cpp.o)
 .mdebug.abi32  0xa0000490        0x0 C:\Users\nukem419\AppData\Local\V.Micro\Arduino\Builds\IREC_2017\chipKIT_chipkit_pic32_fubarino_sd/core.a(Stream.cpp.o)
 .mdebug.abi32  0xa0000490        0x0 C:\Users\nukem419\AppData\Local\V.Micro\Arduino\Builds\IREC_2017\chipKIT_chipkit_pic32_fubarino_sd/core.a(WString.cpp.o)
 .mdebug.abi32  0xa0000490        0x0 C:\Users\nukem419\AppData\Local\V.Micro\Arduino\Builds\IREC_2017\chipKIT_chipkit_pic32_fubarino_sd/core.a(HardwareSerial_cdcacm.c.o)
 .mdebug.abi32  0xa0000490        0x0 C:\Users\nukem419\AppData\Local\V.Micro\Arduino\Builds\IREC_2017\chipKIT_chipkit_pic32_fubarino_sd/core.a(HardwareSerial_usb.c.o)
 .mdebug.abi32  0xa0000490        0x0 C:\Users\nukem419\AppData\Local\V.Micro\Arduino\Builds\IREC_2017\chipKIT_chipkit_pic32_fubarino_sd/core.a(pins_arduino.c.o)
 .mdebug.abi32  0xa0000490        0x0 C:\Users\nukem419\AppData\Local\V.Micro\Arduino\Builds\IREC_2017\chipKIT_chipkit_pic32_fubarino_sd/core.a(wiring_analog.c.o)
 .mdebug.abi32  0xa0000490        0x0 C:\Users\nukem419\AppData\Local\V.Micro\Arduino\Builds\IREC_2017\chipKIT_chipkit_pic32_fubarino_sd/core.a(doprnt.cpp.o)
 .mdebug.abi32  0xa0000490        0x0 c:/users/nukem419/appdata/local/arduino15/packages/chipkit/tools/pic32-tools/1.42-pic32gcc/bin/bin/../../lib/gcc/pic32mx/4.8.3/../../../../pic32mx/lib/size\libsupc++.a(class_type_info.o)
 .mdebug.abi32  0xa0000490        0x0 c:/users/nukem419/appdata/local/arduino15/packages/chipkit/tools/pic32-tools/1.42-pic32gcc/bin/bin/../../lib/gcc/pic32mx/4.8.3/../../../../pic32mx/lib/size\libsupc++.a(del_op.o)
 .mdebug.abi32  0xa0000490        0x0 c:/users/nukem419/appdata/local/arduino15/packages/chipkit/tools/pic32-tools/1.42-pic32gcc/bin/bin/../../lib/gcc/pic32mx/4.8.3/../../../../pic32mx/lib/size\libsupc++.a(eh_personality.o)
 .mdebug.abi32  0xa0000490        0x0 c:/users/nukem419/appdata/local/arduino15/packages/chipkit/tools/pic32-tools/1.42-pic32gcc/bin/bin/../../lib/gcc/pic32mx/4.8.3/../../../../pic32mx/lib/size\libsupc++.a(eh_terminate.o)
 .mdebug.abi32  0xa0000490        0x0 c:/users/nukem419/appdata/local/arduino15/packages/chipkit/tools/pic32-tools/1.42-pic32gcc/bin/bin/../../lib/gcc/pic32mx/4.8.3/../../../../pic32mx/lib/size\libsupc++.a(eh_unex_handler.o)
 .mdebug.abi32  0xa0000490        0x0 c:/users/nukem419/appdata/local/arduino15/packages/chipkit/tools/pic32-tools/1.42-pic32gcc/bin/bin/../../lib/gcc/pic32mx/4.8.3/../../../../pic32mx/lib/size\libsupc++.a(new_op.o)
 .mdebug.abi32  0xa0000490        0x0 c:/users/nukem419/appdata/local/arduino15/packages/chipkit/tools/pic32-tools/1.42-pic32gcc/bin/bin/../../lib/gcc/pic32mx/4.8.3/../../../../pic32mx/lib/size\libsupc++.a(si_class_type_info.o)
 .mdebug.abi32  0xa0000490        0x0 c:/users/nukem419/appdata/local/arduino15/packages/chipkit/tools/pic32-tools/1.42-pic32gcc/bin/bin/../../lib/gcc/pic32mx/4.8.3/../../../../pic32mx/lib/size\libsupc++.a(tinfo.o)
 .mdebug.abi32  0xa0000490        0x0 c:/users/nukem419/appdata/local/arduino15/packages/chipkit/tools/pic32-tools/1.42-pic32gcc/bin/bin/../../lib/gcc/pic32mx/4.8.3/../../../../pic32mx/lib/size\libsupc++.a(pure.o)
 .mdebug.abi32  0xa0000490        0x0 c:/users/nukem419/appdata/local/arduino15/packages/chipkit/tools/pic32-tools/1.42-pic32gcc/bin/bin/../../lib/gcc/pic32mx/4.8.3/../../../../pic32mx/lib/size\libsupc++.a(eh_call.o)
 .mdebug.abi32  0xa0000490        0x0 c:/users/nukem419/appdata/local/arduino15/packages/chipkit/tools/pic32-tools/1.42-pic32gcc/bin/bin/../../lib/gcc/pic32mx/4.8.3/../../../../pic32mx/lib/size\libsupc++.a(eh_catch.o)
 .mdebug.abi32  0xa0000490        0x0 c:/users/nukem419/appdata/local/arduino15/packages/chipkit/tools/pic32-tools/1.42-pic32gcc/bin/bin/../../lib/gcc/pic32mx/4.8.3/../../../../pic32mx/lib/size\libsupc++.a(eh_globals.o)
 .mdebug.abi32  0xa0000490        0x0 c:/users/nukem419/appdata/local/arduino15/packages/chipkit/tools/pic32-tools/1.42-pic32gcc/bin/bin/../../lib/gcc/pic32mx/4.8.3/../../../../pic32mx/lib/size\libsupc++.a(eh_term_handler.o)
 .mdebug.abi32  0xa0000490        0x0 c:/users/nukem419/appdata/local/arduino15/packages/chipkit/tools/pic32-tools/1.42-pic32gcc/bin/bin/../../lib/gcc/pic32mx/4.8.3/../../../../pic32mx/lib/size\libsupc++.a(new_handler.o)
 .mdebug.abi32  0xa0000490        0x0 c:/users/nukem419/appdata/local/arduino15/packages/chipkit/tools/pic32-tools/1.42-pic32gcc/bin/bin/../../lib/gcc/pic32mx/4.8.3/../../../../pic32mx/lib/size\libm.a(lib_a-s_fpclassify.o)
 .mdebug.abi32  0xa0000490        0x0 c:/users/nukem419/appdata/local/arduino15/packages/chipkit/tools/pic32-tools/1.42-pic32gcc/bin/bin/../../lib/gcc/pic32mx/4.8.3/../../../../pic32mx/lib/size\libm.a(lib_a-s_modf.o)
 .mdebug.abi32  0xa0000490        0x0 c:/users/nukem419/appdata/local/arduino15/packages/chipkit/tools/pic32-tools/1.42-pic32gcc/bin/bin/../../lib/gcc/pic32mx/4.8.3/../../../../pic32mx/lib/size\libm.a(lib_a-w_fmod.o)
 .mdebug.abi32  0xa0000490        0x0 c:/users/nukem419/appdata/local/arduino15/packages/chipkit/tools/pic32-tools/1.42-pic32gcc/bin/bin/../../lib/gcc/pic32mx/4.8.3/../../../../pic32mx/lib/size\libm.a(lib_a-w_pow.o)
 .mdebug.abi32  0xa0000490        0x0 c:/users/nukem419/appdata/local/arduino15/packages/chipkit/tools/pic32-tools/1.42-pic32gcc/bin/bin/../../lib/gcc/pic32mx/4.8.3/../../../../pic32mx/lib/size\libm.a(lib_a-e_fmod.o)
 .mdebug.abi32  0xa0000490        0x0 c:/users/nukem419/appdata/local/arduino15/packages/chipkit/tools/pic32-tools/1.42-pic32gcc/bin/bin/../../lib/gcc/pic32mx/4.8.3/../../../../pic32mx/lib/size\libm.a(lib_a-e_pow.o)
 .mdebug.abi32  0xa0000490        0x0 c:/users/nukem419/appdata/local/arduino15/packages/chipkit/tools/pic32-tools/1.42-pic32gcc/bin/bin/../../lib/gcc/pic32mx/4.8.3/../../../../pic32mx/lib/size\libm.a(lib_a-e_sqrt.o)
 .mdebug.abi32  0xa0000490        0x0 c:/users/nukem419/appdata/local/arduino15/packages/chipkit/tools/pic32-tools/1.42-pic32gcc/bin/bin/../../lib/gcc/pic32mx/4.8.3/../../../../pic32mx/lib/size\libm.a(lib_a-s_fabs.o)
 .mdebug.abi32  0xa0000490        0x0 c:/users/nukem419/appdata/local/arduino15/packages/chipkit/tools/pic32-tools/1.42-pic32gcc/bin/bin/../../lib/gcc/pic32mx/4.8.3/../../../../pic32mx/lib/size\libm.a(lib_a-s_finite.o)
 .mdebug.abi32  0xa0000490        0x0 c:/users/nukem419/appdata/local/arduino15/packages/chipkit/tools/pic32-tools/1.42-pic32gcc/bin/bin/../../lib/gcc/pic32mx/4.8.3/../../../../pic32mx/lib/size\libm.a(lib_a-s_lib_ver.o)
 .mdebug.abi32  0xa0000490        0x0 c:/users/nukem419/appdata/local/arduino15/packages/chipkit/tools/pic32-tools/1.42-pic32gcc/bin/bin/../../lib/gcc/pic32mx/4.8.3/../../../../pic32mx/lib/size\libm.a(lib_a-s_matherr.o)
 .mdebug.abi32  0xa0000490        0x0 c:/users/nukem419/appdata/local/arduino15/packages/chipkit/tools/pic32-tools/1.42-pic32gcc/bin/bin/../../lib/gcc/pic32mx/4.8.3/../../../../pic32mx/lib/size\libm.a(lib_a-s_nan.o)
 .mdebug.abi32  0xa0000490        0x0 c:/users/nukem419/appdata/local/arduino15/packages/chipkit/tools/pic32-tools/1.42-pic32gcc/bin/bin/../../lib/gcc/pic32mx/4.8.3/../../../../pic32mx/lib/size\libm.a(lib_a-s_rint.o)
 .mdebug.abi32  0xa0000490        0x0 c:/users/nukem419/appdata/local/arduino15/packages/chipkit/tools/pic32-tools/1.42-pic32gcc/bin/bin/../../lib/gcc/pic32mx/4.8.3/../../../../pic32mx/lib/size\libm.a(lib_a-s_scalbn.o)
 .mdebug.abi32  0xa0000490        0x0 c:/users/nukem419/appdata/local/arduino15/packages/chipkit/tools/pic32-tools/1.42-pic32gcc/bin/bin/../../lib/gcc/pic32mx/4.8.3/../../../../pic32mx/lib/size\libm.a(lib_a-s_copysign.o)
 .mdebug.abi32  0xa0000490        0x0 c:/users/nukem419/appdata/local/arduino15/packages/chipkit/tools/pic32-tools/1.42-pic32gcc/bin/bin/../../lib/gcc/pic32mx/4.8.3/size\crtbegin.o
 .mdebug.abi32  0xa0000490        0x0 c:/users/nukem419/appdata/local/arduino15/packages/chipkit/tools/pic32-tools/1.42-pic32gcc/bin/bin/../../lib/gcc/pic32mx/4.8.3/size\crtend.o
 .mdebug.abi32  0xa0000490        0x0 c:/users/nukem419/appdata/local/arduino15/packages/chipkit/tools/pic32-tools/1.42-pic32gcc/bin/bin/../../lib/gcc/pic32mx/4.8.3/size\libgcc.a(addsf3.o)
 .mdebug.abi32  0xa0000490        0x0 c:/users/nukem419/appdata/local/arduino15/packages/chipkit/tools/pic32-tools/1.42-pic32gcc/bin/bin/../../lib/gcc/pic32mx/4.8.3/size\libgcc.a(divsf3.o)
 .mdebug.abi32  0xa0000490        0x0 c:/users/nukem419/appdata/local/arduino15/packages/chipkit/tools/pic32-tools/1.42-pic32gcc/bin/bin/../../lib/gcc/pic32mx/4.8.3/size\libgcc.a(eqsf2.o)
 .mdebug.abi32  0xa0000490        0x0 c:/users/nukem419/appdata/local/arduino15/packages/chipkit/tools/pic32-tools/1.42-pic32gcc/bin/bin/../../lib/gcc/pic32mx/4.8.3/size\libgcc.a(gesf2.o)
 .mdebug.abi32  0xa0000490        0x0 c:/users/nukem419/appdata/local/arduino15/packages/chipkit/tools/pic32-tools/1.42-pic32gcc/bin/bin/../../lib/gcc/pic32mx/4.8.3/size\libgcc.a(mulsf3.o)
 .mdebug.abi32  0xa0000490        0x0 c:/users/nukem419/appdata/local/arduino15/packages/chipkit/tools/pic32-tools/1.42-pic32gcc/bin/bin/../../lib/gcc/pic32mx/4.8.3/size\libgcc.a(subsf3.o)
 .mdebug.abi32  0xa0000490        0x0 c:/users/nukem419/appdata/local/arduino15/packages/chipkit/tools/pic32-tools/1.42-pic32gcc/bin/bin/../../lib/gcc/pic32mx/4.8.3/size\libgcc.a(fixsfsi.o)
 .mdebug.abi32  0xa0000490        0x0 c:/users/nukem419/appdata/local/arduino15/packages/chipkit/tools/pic32-tools/1.42-pic32gcc/bin/bin/../../lib/gcc/pic32mx/4.8.3/size\libgcc.a(fixunssfsi.o)
 .mdebug.abi32  0xa0000490        0x0 c:/users/nukem419/appdata/local/arduino15/packages/chipkit/tools/pic32-tools/1.42-pic32gcc/bin/bin/../../lib/gcc/pic32mx/4.8.3/size\libgcc.a(floatsisf.o)
 .mdebug.abi32  0xa0000490        0x0 c:/users/nukem419/appdata/local/arduino15/packages/chipkit/tools/pic32-tools/1.42-pic32gcc/bin/bin/../../lib/gcc/pic32mx/4.8.3/size\libgcc.a(floatunsisf.o)
 .mdebug.abi32  0xa0000490        0x0 c:/users/nukem419/appdata/local/arduino15/packages/chipkit/tools/pic32-tools/1.42-pic32gcc/bin/bin/../../lib/gcc/pic32mx/4.8.3/size\libgcc.a(fixunssfdi.o)
 .mdebug.abi32  0xa0000490        0x0 c:/users/nukem419/appdata/local/arduino15/packages/chipkit/tools/pic32-tools/1.42-pic32gcc/bin/bin/../../lib/gcc/pic32mx/4.8.3/size\libgcc.a(adddf3.o)
 .mdebug.abi32  0xa0000490        0x0 c:/users/nukem419/appdata/local/arduino15/packages/chipkit/tools/pic32-tools/1.42-pic32gcc/bin/bin/../../lib/gcc/pic32mx/4.8.3/size\libgcc.a(divdf3.o)
 .mdebug.abi32  0xa0000490        0x0 c:/users/nukem419/appdata/local/arduino15/packages/chipkit/tools/pic32-tools/1.42-pic32gcc/bin/bin/../../lib/gcc/pic32mx/4.8.3/size\libgcc.a(eqdf2.o)
 .mdebug.abi32  0xa0000490        0x0 c:/users/nukem419/appdata/local/arduino15/packages/chipkit/tools/pic32-tools/1.42-pic32gcc/bin/bin/../../lib/gcc/pic32mx/4.8.3/size\libgcc.a(gedf2.o)
 .mdebug.abi32  0xa0000490        0x0 c:/users/nukem419/appdata/local/arduino15/packages/chipkit/tools/pic32-tools/1.42-pic32gcc/bin/bin/../../lib/gcc/pic32mx/4.8.3/size\libgcc.a(ledf2.o)
 .mdebug.abi32  0xa0000490        0x0 c:/users/nukem419/appdata/local/arduino15/packages/chipkit/tools/pic32-tools/1.42-pic32gcc/bin/bin/../../lib/gcc/pic32mx/4.8.3/size\libgcc.a(muldf3.o)
 .mdebug.abi32  0xa0000490        0x0 c:/users/nukem419/appdata/local/arduino15/packages/chipkit/tools/pic32-tools/1.42-pic32gcc/bin/bin/../../lib/gcc/pic32mx/4.8.3/size\libgcc.a(subdf3.o)
 .mdebug.abi32  0xa0000490        0x0 c:/users/nukem419/appdata/local/arduino15/packages/chipkit/tools/pic32-tools/1.42-pic32gcc/bin/bin/../../lib/gcc/pic32mx/4.8.3/size\libgcc.a(fixdfsi.o)
 .mdebug.abi32  0xa0000490        0x0 c:/users/nukem419/appdata/local/arduino15/packages/chipkit/tools/pic32-tools/1.42-pic32gcc/bin/bin/../../lib/gcc/pic32mx/4.8.3/size\libgcc.a(fixunsdfsi.o)
 .mdebug.abi32  0xa0000490        0x0 c:/users/nukem419/appdata/local/arduino15/packages/chipkit/tools/pic32-tools/1.42-pic32gcc/bin/bin/../../lib/gcc/pic32mx/4.8.3/size\libgcc.a(floatsidf.o)
 .mdebug.abi32  0xa0000490        0x0 c:/users/nukem419/appdata/local/arduino15/packages/chipkit/tools/pic32-tools/1.42-pic32gcc/bin/bin/../../lib/gcc/pic32mx/4.8.3/size\libgcc.a(floatunsidf.o)
 .mdebug.abi32  0xa0000490        0x0 c:/users/nukem419/appdata/local/arduino15/packages/chipkit/tools/pic32-tools/1.42-pic32gcc/bin/bin/../../lib/gcc/pic32mx/4.8.3/size\libgcc.a(extendsfdf2.o)
 .mdebug.abi32  0xa0000490        0x0 c:/users/nukem419/appdata/local/arduino15/packages/chipkit/tools/pic32-tools/1.42-pic32gcc/bin/bin/../../lib/gcc/pic32mx/4.8.3/size\libgcc.a(truncdfsf2.o)
 .mdebug.abi32  0xa0000490        0x0 c:/users/nukem419/appdata/local/arduino15/packages/chipkit/tools/pic32-tools/1.42-pic32gcc/bin/bin/../../lib/gcc/pic32mx/4.8.3/size\libgcc.a(unwind-sjlj.o)
 .mdebug.abi32  0xa0000490        0x0 c:/users/nukem419/appdata/local/arduino15/packages/chipkit/tools/pic32-tools/1.42-pic32gcc/bin/bin/../../lib/gcc/pic32mx/4.8.3/size\libgcc.a(_ashldi3.o)
 .mdebug.abi32  0xa0000490        0x0 c:/users/nukem419/appdata/local/arduino15/packages/chipkit/tools/pic32-tools/1.42-pic32gcc/bin/bin/../../lib/gcc/pic32mx/4.8.3/../../../../pic32mx/lib/size\libc.a(lib_a-abort.o)
 .mdebug.abi32  0xa0000490        0x0 c:/users/nukem419/appdata/local/arduino15/packages/chipkit/tools/pic32-tools/1.42-pic32gcc/bin/bin/../../lib/gcc/pic32mx/4.8.3/../../../../pic32mx/lib/size\libc.a(lib_a-atof.o)
 .mdebug.abi32  0xa0000490        0x0 c:/users/nukem419/appdata/local/arduino15/packages/chipkit/tools/pic32-tools/1.42-pic32gcc/bin/bin/../../lib/gcc/pic32mx/4.8.3/../../../../pic32mx/lib/size\libc.a(lib_a-atol.o)
 .mdebug.abi32  0xa0000490        0x0 c:/users/nukem419/appdata/local/arduino15/packages/chipkit/tools/pic32-tools/1.42-pic32gcc/bin/bin/../../lib/gcc/pic32mx/4.8.3/../../../../pic32mx/lib/size\libc.a(lib_a-errno.o)
 .mdebug.abi32  0xa0000490        0x0 c:/users/nukem419/appdata/local/arduino15/packages/chipkit/tools/pic32-tools/1.42-pic32gcc/bin/bin/../../lib/gcc/pic32mx/4.8.3/../../../../pic32mx/lib/size\libc.a(lib_a-impure.o)
 .mdebug.abi32  0xa0000490        0x0 c:/users/nukem419/appdata/local/arduino15/packages/chipkit/tools/pic32-tools/1.42-pic32gcc/bin/bin/../../lib/gcc/pic32mx/4.8.3/../../../../pic32mx/lib/size\libc.a(lib_a-isspace.o)
 .mdebug.abi32  0xa0000490        0x0 c:/users/nukem419/appdata/local/arduino15/packages/chipkit/tools/pic32-tools/1.42-pic32gcc/bin/bin/../../lib/gcc/pic32mx/4.8.3/../../../../pic32mx/lib/size\libc.a(lib_a-malloc.o)
 .mdebug.abi32  0xa0000490        0x0 c:/users/nukem419/appdata/local/arduino15/packages/chipkit/tools/pic32-tools/1.42-pic32gcc/bin/bin/../../lib/gcc/pic32mx/4.8.3/../../../../pic32mx/lib/size\libc.a(lib_a-mallocr.o)
 .mdebug.abi32  0xa0000490        0x0 c:/users/nukem419/appdata/local/arduino15/packages/chipkit/tools/pic32-tools/1.42-pic32gcc/bin/bin/../../lib/gcc/pic32mx/4.8.3/../../../../pic32mx/lib/size\libc.a(lib_a-memcmp.o)
 .mdebug.abi32  0xa0000490        0x0 c:/users/nukem419/appdata/local/arduino15/packages/chipkit/tools/pic32-tools/1.42-pic32gcc/bin/bin/../../lib/gcc/pic32mx/4.8.3/../../../../pic32mx/lib/size\libc.a(lib_a-memcpy.o)
 .mdebug.abi32  0xa0000490        0x0 c:/users/nukem419/appdata/local/arduino15/packages/chipkit/tools/pic32-tools/1.42-pic32gcc/bin/bin/../../lib/gcc/pic32mx/4.8.3/../../../../pic32mx/lib/size\libc.a(lib_a-memmove.o)
 .mdebug.abi32  0xa0000490        0x0 c:/users/nukem419/appdata/local/arduino15/packages/chipkit/tools/pic32-tools/1.42-pic32gcc/bin/bin/../../lib/gcc/pic32mx/4.8.3/../../../../pic32mx/lib/size\libc.a(lib_a-memset.o)
 .mdebug.abi32  0xa0000490        0x0 c:/users/nukem419/appdata/local/arduino15/packages/chipkit/tools/pic32-tools/1.42-pic32gcc/bin/bin/../../lib/gcc/pic32mx/4.8.3/../../../../pic32mx/lib/size\libc.a(lib_a-mlock.o)
 .mdebug.abi32  0xa0000490        0x0 c:/users/nukem419/appdata/local/arduino15/packages/chipkit/tools/pic32-tools/1.42-pic32gcc/bin/bin/../../lib/gcc/pic32mx/4.8.3/../../../../pic32mx/lib/size\libc.a(lib_a-realloc.o)
 .mdebug.abi32  0xa0000490        0x0 c:/users/nukem419/appdata/local/arduino15/packages/chipkit/tools/pic32-tools/1.42-pic32gcc/bin/bin/../../lib/gcc/pic32mx/4.8.3/../../../../pic32mx/lib/size\libc.a(lib_a-reallocr.o)
 .mdebug.abi32  0xa0000490        0x0 c:/users/nukem419/appdata/local/arduino15/packages/chipkit/tools/pic32-tools/1.42-pic32gcc/bin/bin/../../lib/gcc/pic32mx/4.8.3/../../../../pic32mx/lib/size\libc.a(lib_a-sbrkr.o)
 .mdebug.abi32  0xa0000490        0x0 c:/users/nukem419/appdata/local/arduino15/packages/chipkit/tools/pic32-tools/1.42-pic32gcc/bin/bin/../../lib/gcc/pic32mx/4.8.3/../../../../pic32mx/lib/size\libc.a(lib_a-signal.o)
 .mdebug.abi32  0xa0000490        0x0 c:/users/nukem419/appdata/local/arduino15/packages/chipkit/tools/pic32-tools/1.42-pic32gcc/bin/bin/../../lib/gcc/pic32mx/4.8.3/../../../../pic32mx/lib/size\libc.a(lib_a-signalr.o)
 .mdebug.abi32  0xa0000490        0x0 c:/users/nukem419/appdata/local/arduino15/packages/chipkit/tools/pic32-tools/1.42-pic32gcc/bin/bin/../../lib/gcc/pic32mx/4.8.3/../../../../pic32mx/lib/size\libc.a(lib_a-snprintf.o)
 .mdebug.abi32  0xa0000490        0x0 c:/users/nukem419/appdata/local/arduino15/packages/chipkit/tools/pic32-tools/1.42-pic32gcc/bin/bin/../../lib/gcc/pic32mx/4.8.3/../../../../pic32mx/lib/size\libc.a(lib_a-strchr.o)
 .mdebug.abi32  0xa0000490        0x0 c:/users/nukem419/appdata/local/arduino15/packages/chipkit/tools/pic32-tools/1.42-pic32gcc/bin/bin/../../lib/gcc/pic32mx/4.8.3/../../../../pic32mx/lib/size\libc.a(lib_a-strcmp.o)
 .mdebug.abi32  0xa0000490        0x0 c:/users/nukem419/appdata/local/arduino15/packages/chipkit/tools/pic32-tools/1.42-pic32gcc/bin/bin/../../lib/gcc/pic32mx/4.8.3/../../../../pic32mx/lib/size\libc.a(lib_a-strcpy.o)
 .mdebug.abi32  0xa0000490        0x0 c:/users/nukem419/appdata/local/arduino15/packages/chipkit/tools/pic32-tools/1.42-pic32gcc/bin/bin/../../lib/gcc/pic32mx/4.8.3/../../../../pic32mx/lib/size\libc.a(lib_a-strlen.o)
 .mdebug.abi32  0xa0000490        0x0 c:/users/nukem419/appdata/local/arduino15/packages/chipkit/tools/pic32-tools/1.42-pic32gcc/bin/bin/../../lib/gcc/pic32mx/4.8.3/../../../../pic32mx/lib/size\libc.a(lib_a-strncmp.o)
 .mdebug.abi32  0xa0000490        0x0 c:/users/nukem419/appdata/local/arduino15/packages/chipkit/tools/pic32-tools/1.42-pic32gcc/bin/bin/../../lib/gcc/pic32mx/4.8.3/../../../../pic32mx/lib/size\libc.a(lib_a-strncpy.o)
 .mdebug.abi32  0xa0000490        0x0 c:/users/nukem419/appdata/local/arduino15/packages/chipkit/tools/pic32-tools/1.42-pic32gcc/bin/bin/../../lib/gcc/pic32mx/4.8.3/../../../../pic32mx/lib/size\libc.a(lib_a-strrchr.o)
 .mdebug.abi32  0xa0000490        0x0 c:/users/nukem419/appdata/local/arduino15/packages/chipkit/tools/pic32-tools/1.42-pic32gcc/bin/bin/../../lib/gcc/pic32mx/4.8.3/../../../../pic32mx/lib/size\libc.a(lib_a-strstr.o)
 .mdebug.abi32  0xa0000490        0x0 c:/users/nukem419/appdata/local/arduino15/packages/chipkit/tools/pic32-tools/1.42-pic32gcc/bin/bin/../../lib/gcc/pic32mx/4.8.3/../../../../pic32mx/lib/size\libc.a(lib_a-strtod.o)
 .mdebug.abi32  0xa0000490        0x0 c:/users/nukem419/appdata/local/arduino15/packages/chipkit/tools/pic32-tools/1.42-pic32gcc/bin/bin/../../lib/gcc/pic32mx/4.8.3/../../../../pic32mx/lib/size\libc.a(lib_a-strtol.o)
 .mdebug.abi32  0xa0000490        0x0 c:/users/nukem419/appdata/local/arduino15/packages/chipkit/tools/pic32-tools/1.42-pic32gcc/bin/bin/../../lib/gcc/pic32mx/4.8.3/../../../../pic32mx/lib/size\libc.a(lib_a-svfprintf.o)
 .mdebug.abi32  0xa0000490        0x0 c:/users/nukem419/appdata/local/arduino15/packages/chipkit/tools/pic32-tools/1.42-pic32gcc/bin/bin/../../lib/gcc/pic32mx/4.8.3/../../../../pic32mx/lib/size\libc.a(lib_a-tolower.o)
 .mdebug.abi32  0xa0000490        0x0 c:/users/nukem419/appdata/local/arduino15/packages/chipkit/tools/pic32-tools/1.42-pic32gcc/bin/bin/../../lib/gcc/pic32mx/4.8.3/../../../../pic32mx/lib/size\libc.a(lib_a-toupper.o)
 .mdebug.abi32  0xa0000490        0x0 c:/users/nukem419/appdata/local/arduino15/packages/chipkit/tools/pic32-tools/1.42-pic32gcc/bin/bin/../../lib/gcc/pic32mx/4.8.3/../../../../pic32mx/lib/size\libc.a(lib_a-ctype_.o)
 .mdebug.abi32  0xa0000490        0x0 c:/users/nukem419/appdata/local/arduino15/packages/chipkit/tools/pic32-tools/1.42-pic32gcc/bin/bin/../../lib/gcc/pic32mx/4.8.3/../../../../pic32mx/lib/size\libc.a(lib_a-dtoa.o)
 .mdebug.abi32  0xa0000490        0x0 c:/users/nukem419/appdata/local/arduino15/packages/chipkit/tools/pic32-tools/1.42-pic32gcc/bin/bin/../../lib/gcc/pic32mx/4.8.3/../../../../pic32mx/lib/size\libc.a(lib_a-freer.o)
 .mdebug.abi32  0xa0000490        0x0 c:/users/nukem419/appdata/local/arduino15/packages/chipkit/tools/pic32-tools/1.42-pic32gcc/bin/bin/../../lib/gcc/pic32mx/4.8.3/../../../../pic32mx/lib/size\libc.a(lib_a-gdtoa-gethex.o)
 .mdebug.abi32  0xa0000490        0x0 c:/users/nukem419/appdata/local/arduino15/packages/chipkit/tools/pic32-tools/1.42-pic32gcc/bin/bin/../../lib/gcc/pic32mx/4.8.3/../../../../pic32mx/lib/size\libc.a(lib_a-gdtoa-hexnan.o)
 .mdebug.abi32  0xa0000490        0x0 c:/users/nukem419/appdata/local/arduino15/packages/chipkit/tools/pic32-tools/1.42-pic32gcc/bin/bin/../../lib/gcc/pic32mx/4.8.3/../../../../pic32mx/lib/size\libc.a(lib_a-locale.o)
 .mdebug.abi32  0xa0000490        0x0 c:/users/nukem419/appdata/local/arduino15/packages/chipkit/tools/pic32-tools/1.42-pic32gcc/bin/bin/../../lib/gcc/pic32mx/4.8.3/../../../../pic32mx/lib/size\libc.a(lib_a-memchr.o)
 .mdebug.abi32  0xa0000490        0x0 c:/users/nukem419/appdata/local/arduino15/packages/chipkit/tools/pic32-tools/1.42-pic32gcc/bin/bin/../../lib/gcc/pic32mx/4.8.3/../../../../pic32mx/lib/size\libc.a(lib_a-mprec.o)
 .mdebug.abi32  0xa0000490        0x0 c:/users/nukem419/appdata/local/arduino15/packages/chipkit/tools/pic32-tools/1.42-pic32gcc/bin/bin/../../lib/gcc/pic32mx/4.8.3/../../../../pic32mx/lib/size\libc.a(lib_a-reent.o)
 .mdebug.abi32  0xa0000490        0x0 c:/users/nukem419/appdata/local/arduino15/packages/chipkit/tools/pic32-tools/1.42-pic32gcc/bin/bin/../../lib/gcc/pic32mx/4.8.3/../../../../pic32mx/lib/size\libc.a(lib_a-sf_nan.o)
 .mdebug.abi32  0xa0000490        0x0 c:/users/nukem419/appdata/local/arduino15/packages/chipkit/tools/pic32-tools/1.42-pic32gcc/bin/bin/../../lib/gcc/pic32mx/4.8.3/../../../../pic32mx/lib/size\libc.a(lib_a-svfiprintf.o)
 .mdebug.abi32  0xa0000490        0x0 c:/users/nukem419/appdata/local/arduino15/packages/chipkit/tools/pic32-tools/1.42-pic32gcc/bin/bin/../../lib/gcc/pic32mx/4.8.3/../../../../pic32mx/lib/size\libc.a(lib_a-callocr.o)
 .mdebug.abi32  0xa0000490        0x0 c:/users/nukem419/appdata/local/arduino15/packages/chipkit/tools/pic32-tools/1.42-pic32gcc/bin/bin/../../lib/gcc/pic32mx/4.8.3/../../../../pic32mx/lib/size\libpic32.a(sbrk.o)
 .mdebug.abi32  0xa0000490        0x0 c:/users/nukem419/appdata/local/arduino15/packages/chipkit/tools/pic32-tools/1.42-pic32gcc/bin/bin/../../lib/gcc/pic32mx/4.8.3/../../../../pic32mx/lib/size\libpic32.a(default-bootstrap-exception-handler.o)
 .mdebug.abi32  0xa0000490        0x0 c:/users/nukem419/appdata/local/arduino15/packages/chipkit/tools/pic32-tools/1.42-pic32gcc/bin/bin/../../lib/gcc/pic32mx/4.8.3/../../../../pic32mx/lib/size\libpic32.a(default-on-reset.o)
 .mdebug.abi32  0xa0000490        0x0 c:/users/nukem419/appdata/local/arduino15/packages/chipkit/tools/pic32-tools/1.42-pic32gcc/bin/bin/../../lib/gcc/pic32mx/4.8.3/../../../../pic32mx/lib/size\libpic32.a(default-on-bootstrap.o)
 .mdebug.abi32  0xa0000490        0x0 c:/users/nukem419/appdata/local/arduino15/packages/chipkit/tools/pic32-tools/1.42-pic32gcc/bin/bin/../../lib/gcc/pic32mx/4.8.3/../../../../pic32mx/lib/size\libpic32.a(_exit.o)
 .mdebug.abi32  0xa0000490        0x0 c:/users/nukem419/appdata/local/arduino15/packages/chipkit/tools/pic32-tools/1.42-pic32gcc/bin/bin/../../lib/gcc/pic32mx/4.8.3/../../../../pic32mx/lib/size\libpic32.a(kill.o)
 .mdebug.abi32  0xa0000490        0x0 c:/users/nukem419/appdata/local/arduino15/packages/chipkit/tools/pic32-tools/1.42-pic32gcc/bin/bin/../../lib/gcc/pic32mx/4.8.3/../../../../pic32mx/lib/size\libpic32.a(getpid.o)
 .mdebug.abi32  0xa0000490        0x0 c:/users/nukem419/appdata/local/arduino15/packages/chipkit/tools/pic32-tools/1.42-pic32gcc/bin/bin/../../lib/gcc/pic32mx/4.8.3/size\libgcc.a(_udivdi3.o)
 .mdebug.abi32  0xa0000490        0x0 c:/users/nukem419/appdata/local/arduino15/packages/chipkit/tools/pic32-tools/1.42-pic32gcc/bin/bin/../../lib/gcc/pic32mx/4.8.3/size\libgcc.a(_umoddi3.o)

.mdebug.abiN32
 *(.mdebug.abiN32)

.mdebug.abi64
 *(.mdebug.abi64)

.mdebug.abiO64
 *(.mdebug.abiO64)

.mdebug.eabi32
 *(.mdebug.eabi32)

.mdebug.eabi64
 *(.mdebug.eabi64)
LOAD c:/users/nukem419/appdata/local/arduino15/packages/chipkit/tools/pic32-tools/1.42-pic32gcc/bin/bin/../../lib/gcc/pic32mx/4.8.3/size\libgcc.a
START GROUP
LOAD c:/users/nukem419/appdata/local/arduino15/packages/chipkit/tools/pic32-tools/1.42-pic32gcc/bin/bin/../../lib/gcc/pic32mx/4.8.3/../../../../pic32mx/lib/size\libc.a
LOAD c:/users/nukem419/appdata/local/arduino15/packages/chipkit/tools/pic32-tools/1.42-pic32gcc/bin/bin/../../lib/gcc/pic32mx/4.8.3/../../../../pic32mx/lib/size\libsupc++.a
LOAD c:/users/nukem419/appdata/local/arduino15/packages/chipkit/tools/pic32-tools/1.42-pic32gcc/bin/bin/../../lib/gcc/pic32mx/4.8.3/../../../../pic32mx/lib/size\libpic32.a
LOAD c:/users/nukem419/appdata/local/arduino15/packages/chipkit/tools/pic32-tools/1.42-pic32gcc/bin/bin/../../lib/gcc/pic32mx/4.8.3/size\libgcc.a
LOAD c:/users/nukem419/appdata/local/arduino15/packages/chipkit/tools/pic32-tools/1.42-pic32gcc/bin/bin/../../lib/gcc/pic32mx/4.8.3/../../../../pic32mx/lib/size\libm.a
END GROUP
LOAD c:/users/nukem419/appdata/local/arduino15/packages/chipkit/tools/pic32-tools/1.42-pic32gcc/bin/bin/../../lib/gcc/pic32mx/4.8.3/size\libgcc.a
OUTPUT(C:\Users\nukem419\AppData\Local\V.Micro\Arduino\Builds\IREC_2017\chipKIT_chipkit_pic32_fubarino_sd/IREC_2017.ino.elf elf32-tradlittlemips)
LOAD stack
LOAD data_init

.stack          0xa000be90      0x800
 .stack         0xa000be90      0x800 stack

.bss.serial_buffer.serial_buffer
                0xa0000490     0x1000
 .bss.serial_buffer.serial_buffer
                0xa0000490     0x1000 C:\Users\nukem419\AppData\Local\V.Micro\Arduino\Builds\IREC_2017\chipKIT_chipkit_pic32_fubarino_sd\IREC_2017.cpp.o
                0xa0000490                serial_buffer

.bss._ZZ26mavlink_get_channel_bufferE16m_mavlink_buffer.m_mavlink_buffer
                0xa0001490      0x440
 .bss._ZZ26mavlink_get_channel_bufferE16m_mavlink_buffer.m_mavlink_buffer
                0xa0001490      0x440 C:\Users\nukem419\AppData\Local\V.Micro\Arduino\Builds\IREC_2017\chipKIT_chipkit_pic32_fubarino_sd\IREC_2017.cpp.o

.data.impure_data.impure_data
                0xa00018d0      0x418
 .data.impure_data.impure_data
                0xa00018d0      0x418 c:/users/nukem419/appdata/local/arduino15/packages/chipkit/tools/pic32-tools/1.42-pic32gcc/bin/bin/../../lib/gcc/pic32mx/4.8.3/../../../../pic32mx/lib/size\libc.a(lib_a-impure.o)

.data.__malloc_av_.__malloc_av_
                0xa0001ce8      0x408
 .data.__malloc_av_.__malloc_av_
                0xa0001ce8      0x408 c:/users/nukem419/appdata/local/arduino15/packages/chipkit/tools/pic32-tools/1.42-pic32gcc/bin/bin/../../lib/gcc/pic32mx/4.8.3/../../../../pic32mx/lib/size\libc.a(lib_a-mallocr.o)
                0xa0001ce8                __malloc_av_

.bss.gRXbuffer.gRXbuffer
                0xa00020f0      0x3f0
 .bss.gRXbuffer.gRXbuffer
                0xa00020f0      0x3f0 C:\Users\nukem419\AppData\Local\V.Micro\Arduino\Builds\IREC_2017\chipKIT_chipkit_pic32_fubarino_sd/core.a(HardwareSerial_cdcacm.c.o)

.bss.Serial5.Serial5
                0xa00024e0      0x23c
 .bss.Serial5.Serial5
                0xa00024e0      0x23c C:\Users\nukem419\AppData\Local\V.Micro\Arduino\Builds\IREC_2017\chipKIT_chipkit_pic32_fubarino_sd/core.a(HardwareSerial.cpp.o)
                0xa00024e0                Serial5

.bss.Serial4.Serial4
                0xa000271c      0x23c
 .bss.Serial4.Serial4
                0xa000271c      0x23c C:\Users\nukem419\AppData\Local\V.Micro\Arduino\Builds\IREC_2017\chipKIT_chipkit_pic32_fubarino_sd/core.a(HardwareSerial.cpp.o)
                0xa000271c                Serial4

.bss.Serial3.Serial3
                0xa0002958      0x23c
 .bss.Serial3.Serial3
                0xa0002958      0x23c C:\Users\nukem419\AppData\Local\V.Micro\Arduino\Builds\IREC_2017\chipKIT_chipkit_pic32_fubarino_sd/core.a(HardwareSerial.cpp.o)
                0xa0002958                Serial3

.bss.Serial2.Serial2
                0xa0002b94      0x23c
 .bss.Serial2.Serial2
                0xa0002b94      0x23c C:\Users\nukem419\AppData\Local\V.Micro\Arduino\Builds\IREC_2017\chipKIT_chipkit_pic32_fubarino_sd/core.a(HardwareSerial.cpp.o)
                0xa0002b94                Serial2

.bss.Serial1.Serial1
                0xa0002dd0      0x23c
 .bss.Serial1.Serial1
                0xa0002dd0      0x23c C:\Users\nukem419\AppData\Local\V.Micro\Arduino\Builds\IREC_2017\chipKIT_chipkit_pic32_fubarino_sd/core.a(HardwareSerial.cpp.o)
                0xa0002dd0                Serial1

.bss.Serial0.Serial0
                0xa000300c      0x23c
 .bss.Serial0.Serial0
                0xa000300c      0x23c C:\Users\nukem419\AppData\Local\V.Micro\Arduino\Builds\IREC_2017\chipKIT_chipkit_pic32_fubarino_sd/core.a(HardwareSerial.cpp.o)
                0xa000300c                Serial0

.bss.rx_bufferUSB.rx_bufferUSB
                0xa0003248      0x208
 .bss.rx_bufferUSB.rx_bufferUSB
                0xa0003248      0x208 C:\Users\nukem419\AppData\Local\V.Micro\Arduino\Builds\IREC_2017\chipKIT_chipkit_pic32_fubarino_sd/core.a(HardwareSerial.cpp.o)
                0xa0003248                rx_bufferUSB

.bss._ZN8SdVolume12cacheBuffer_E.cacheBuffer_
                0xa0003450      0x200
 .bss._ZN8SdVolume12cacheBuffer_E.cacheBuffer_
                0xa0003450      0x200 C:\Users\nukem419\AppData\Local\V.Micro\Arduino\Builds\IREC_2017\chipKIT_chipkit_pic32_fubarino_sd\SD\utility\SdVolume.cpp.o
                0xa0003450                SdVolume::cacheBuffer_

.bss.bdt_ram.18769.bdt_ram
                0xa0003800      0x200
 .bss.bdt_ram.18769.bdt_ram
                0xa0003800      0x200 C:\Users\nukem419\AppData\Local\V.Micro\Arduino\Builds\IREC_2017\chipKIT_chipkit_pic32_fubarino_sd/core.a(HardwareSerial_usb.c.o)

.bss.__hexdig.__hexdig
                0xa0003650      0x100
 .bss.__hexdig.__hexdig
                0xa0003650      0x100 c:/users/nukem419/appdata/local/arduino15/packages/chipkit/tools/pic32-tools/1.42-pic32gcc/bin/bin/../../lib/gcc/pic32mx/4.8.3/../../../../pic32mx/lib/size\libc.a(lib_a-gdtoa-gethex.o)
                0xa0003650                __hexdig

.data._isr_primary_install._isr_primary_install
                0xa0003a00       0xd0
 .data._isr_primary_install._isr_primary_install
                0xa0003a00       0xd0 C:\Users\nukem419\AppData\Local\V.Micro\Arduino\Builds\IREC_2017\chipKIT_chipkit_pic32_fubarino_sd/core.a(WSystem.c.o)
                0xa0003a00                _isr_primary_install

.gcc_except_table
                0xa0003750       0xb0
 .gcc_except_table
                0xa0003750       0xb0 C:\Users\nukem419\AppData\Local\V.Micro\Arduino\Builds\IREC_2017\chipKIT_chipkit_pic32_fubarino_sd\EM_506.cpp.o

.bss.rgtaskTable.rgtaskTable
                0xa0003ad0       0xa0
 .bss.rgtaskTable.rgtaskTable
                0xa0003ad0       0xa0 C:\Users\nukem419\AppData\Local\V.Micro\Arduino\Builds\IREC_2017\chipKIT_chipkit_pic32_fubarino_sd/core.a(task_manager.c.o)

.bss.di2c.di2c  0xa0003b70       0x6c
 .bss.di2c.di2c
                0xa0003b70       0x6c C:\Users\nukem419\AppData\Local\V.Micro\Arduino\Builds\IREC_2017\chipKIT_chipkit_pic32_fubarino_sd\Wire\Wire.cpp.o
                0xa0003b70                di2c

.bss.SD.SD      0xa0003bdc       0x64
 .bss.SD.SD     0xa0003bdc       0x64 C:\Users\nukem419\AppData\Local\V.Micro\Arduino\Builds\IREC_2017\chipKIT_chipkit_pic32_fubarino_sd\SD\SD.cpp.o
                0xa0003bdc                SD

.bss._ZZ26mavlink_get_channel_statusE16m_mavlink_status.m_mavlink_status
                0xa0003c40       0x40
 .bss._ZZ26mavlink_get_channel_statusE16m_mavlink_status.m_mavlink_status
                0xa0003c40       0x40 C:\Users\nukem419\AppData\Local\V.Micro\Arduino\Builds\IREC_2017\chipKIT_chipkit_pic32_fubarino_sd\IREC_2017.cpp.o

.bss.gRX_length.gRX_length
                0xa0003c80       0x40
 .bss.gRX_length.gRX_length
                0xa0003c80       0x40 C:\Users\nukem419\AppData\Local\V.Micro\Arduino\Builds\IREC_2017\chipKIT_chipkit_pic32_fubarino_sd/core.a(HardwareSerial_cdcacm.c.o)

.bss.gTXbuffer.gTXbuffer
                0xa0003cc0       0x40
 .bss.gTXbuffer.gTXbuffer
                0xa0003cc0       0x40 C:\Users\nukem419\AppData\Local\V.Micro\Arduino\Builds\IREC_2017\chipKIT_chipkit_pic32_fubarino_sd/core.a(HardwareSerial_cdcacm.c.o)

.data.lconv.lconv
                0xa0003d00       0x38
 .data.lconv.lconv
                0xa0003d00       0x38 c:/users/nukem419/appdata/local/arduino15/packages/chipkit/tools/pic32-tools/1.42-pic32gcc/bin/bin/../../lib/gcc/pic32mx/4.8.3/../../../../pic32mx/lib/size\libc.a(lib_a-locale.o)

.bss.__malloc_current_mallinfo.__malloc_current_mallinfo
                0xa0003d38       0x28
 .bss.__malloc_current_mallinfo.__malloc_current_mallinfo
                0xa0003d38       0x28 c:/users/nukem419/appdata/local/arduino15/packages/chipkit/tools/pic32-tools/1.42-pic32gcc/bin/bin/../../lib/gcc/pic32mx/4.8.3/../../../../pic32mx/lib/size\libc.a(lib_a-mallocr.o)
                0xa0003d38                __malloc_current_mallinfo

.bss            0xa0003d60       0x20
 .bss           0xa0003d60       0x20 c:/users/nukem419/appdata/local/arduino15/packages/chipkit/tools/pic32-tools/1.42-pic32gcc/bin/bin/../../lib/gcc/pic32mx/4.8.3/size\crtbegin.o

.gcc_except_table
                0xa0003d80       0x1e
 .gcc_except_table
                0xa0003d80       0x1e C:\Users\nukem419\AppData\Local\V.Micro\Arduino\Builds\IREC_2017\chipKIT_chipkit_pic32_fubarino_sd\DataLogger.cpp.o

.data.gCoreTimerInfo.gCoreTimerInfo
                0xa0003da0       0x18
 .data.gCoreTimerInfo.gCoreTimerInfo
                0xa0003da0       0x18 C:\Users\nukem419\AppData\Local\V.Micro\Arduino\Builds\IREC_2017\chipKIT_chipkit_pic32_fubarino_sd/core.a(wiring.c.o)
                0xa0003da0                gCoreTimerInfo

.bss.Serial.Serial
                0xa0003db8       0x18
 .bss.Serial.Serial
                0xa0003db8       0x18 C:\Users\nukem419\AppData\Local\V.Micro\Arduino\Builds\IREC_2017\chipKIT_chipkit_pic32_fubarino_sd/core.a(HardwareSerial.cpp.o)
                0xa0003db8                Serial

.bss.mem.1296.mem
                0xa0003dd0       0x18
 .bss.mem.1296.mem
                0xa0003dd0       0x18 c:/users/nukem419/appdata/local/arduino15/packages/chipkit/tools/pic32-tools/1.42-pic32gcc/bin/bin/../../lib/gcc/pic32mx/4.8.3/../../../../pic32mx/lib/size\libpic32.a(sbrk.o)

.data.fpi.2571.fpi
                0xa0003de8       0x14
 .data.fpi.2571.fpi
                0xa0003de8       0x14 c:/users/nukem419/appdata/local/arduino15/packages/chipkit/tools/pic32-tools/1.42-pic32gcc/bin/bin/../../lib/gcc/pic32mx/4.8.3/../../../../pic32mx/lib/size\libc.a(lib_a-strtod.o)

.data.fpinan.2607.fpinan
                0xa0003dfc       0x14
 .data.fpinan.2607.fpinan
                0xa0003dfc       0x14 c:/users/nukem419/appdata/local/arduino15/packages/chipkit/tools/pic32-tools/1.42-pic32gcc/bin/bin/../../lib/gcc/pic32mx/4.8.3/../../../../pic32mx/lib/size\libc.a(lib_a-strtod.o)

.gcc_except_table
                0xa0003e10       0x1c
 .gcc_except_table
                0xa0003e10       0x10 C:\Users\nukem419\AppData\Local\V.Micro\Arduino\Builds\IREC_2017\chipKIT_chipkit_pic32_fubarino_sd\IREC_2017.cpp.o
 .gcc_except_table
                0xa0003e20        0xc C:\Users\nukem419\AppData\Local\V.Micro\Arduino\Builds\IREC_2017\chipKIT_chipkit_pic32_fubarino_sd/core.a(Stream.cpp.o)

.bss._ZL10eh_globals.eh_globals
                0xa0003e2c        0x8
 .bss._ZL10eh_globals.eh_globals
                0xa0003e2c        0x8 c:/users/nukem419/appdata/local/arduino15/packages/chipkit/tools/pic32-tools/1.42-pic32gcc/bin/bin/../../lib/gcc/pic32mx/4.8.3/../../../../pic32mx/lib/size\libsupc++.a(eh_globals.o)

.data._ZN10__cxxabiv120__unexpected_handlerE.__unexpected_handler
                0xa0003e34        0x4
 .data._ZN10__cxxabiv120__unexpected_handlerE.__unexpected_handler
                0xa0003e34        0x4 c:/users/nukem419/appdata/local/arduino15/packages/chipkit/tools/pic32-tools/1.42-pic32gcc/bin/bin/../../lib/gcc/pic32mx/4.8.3/../../../../pic32mx/lib/size\libsupc++.a(eh_unex_handler.o)
                0xa0003e34                __cxxabiv1::__unexpected_handler

.data._ZN10__cxxabiv119__terminate_handlerE.__terminate_handler
                0xa0003e38        0x4
 .data._ZN10__cxxabiv119__terminate_handlerE.__terminate_handler
                0xa0003e38        0x4 c:/users/nukem419/appdata/local/arduino15/packages/chipkit/tools/pic32-tools/1.42-pic32gcc/bin/bin/../../lib/gcc/pic32mx/4.8.3/../../../../pic32mx/lib/size\libsupc++.a(eh_term_handler.o)
                0xa0003e38                __cxxabiv1::__terminate_handler

.bss.__new_handler.__new_handler
                0xa0003e3c        0x4
 .bss.__new_handler.__new_handler
                0xa0003e3c        0x4 c:/users/nukem419/appdata/local/arduino15/packages/chipkit/tools/pic32-tools/1.42-pic32gcc/bin/bin/../../lib/gcc/pic32mx/4.8.3/../../../../pic32mx/lib/size\libsupc++.a(new_handler.o)
                0xa0003e3c                __new_handler

.libc.data.__fdlib_version
                0xa0003e40        0x4
 .libc.data.__fdlib_version
                0xa0003e40        0x4 c:/users/nukem419/appdata/local/arduino15/packages/chipkit/tools/pic32-tools/1.42-pic32gcc/bin/bin/../../lib/gcc/pic32mx/4.8.3/../../../../pic32mx/lib/size\libm.a(lib_a-s_lib_ver.o)
                0xa0003e40                __fdlib_version

.bss            0xa0003e44        0x4
 .bss           0xa0003e44        0x4 c:/users/nukem419/appdata/local/arduino15/packages/chipkit/tools/pic32-tools/1.42-pic32gcc/bin/bin/../../lib/gcc/pic32mx/4.8.3/size\libgcc.a(unwind-sjlj.o)

.libc.data._impure_ptr
                0xa0003e48        0x4
 .libc.data._impure_ptr
                0xa0003e48        0x4 c:/users/nukem419/appdata/local/arduino15/packages/chipkit/tools/pic32-tools/1.42-pic32gcc/bin/bin/../../lib/gcc/pic32mx/4.8.3/../../../../pic32mx/lib/size\libc.a(lib_a-impure.o)
                0xa0003e48                _impure_ptr

.data.__malloc_trim_threshold.__malloc_trim_threshold
                0xa0003e4c        0x4
 .data.__malloc_trim_threshold.__malloc_trim_threshold
                0xa0003e4c        0x4 c:/users/nukem419/appdata/local/arduino15/packages/chipkit/tools/pic32-tools/1.42-pic32gcc/bin/bin/../../lib/gcc/pic32mx/4.8.3/../../../../pic32mx/lib/size\libc.a(lib_a-mallocr.o)
                0xa0003e4c                __malloc_trim_threshold

.bss.__malloc_top_pad.__malloc_top_pad
                0xa0003e50        0x4
 .bss.__malloc_top_pad.__malloc_top_pad
                0xa0003e50        0x4 c:/users/nukem419/appdata/local/arduino15/packages/chipkit/tools/pic32-tools/1.42-pic32gcc/bin/bin/../../lib/gcc/pic32mx/4.8.3/../../../../pic32mx/lib/size\libc.a(lib_a-mallocr.o)
                0xa0003e50                __malloc_top_pad

.data.__malloc_sbrk_base.__malloc_sbrk_base
                0xa0003e54        0x4
 .data.__malloc_sbrk_base.__malloc_sbrk_base
                0xa0003e54        0x4 c:/users/nukem419/appdata/local/arduino15/packages/chipkit/tools/pic32-tools/1.42-pic32gcc/bin/bin/../../lib/gcc/pic32mx/4.8.3/../../../../pic32mx/lib/size\libc.a(lib_a-mallocr.o)
                0xa0003e54                __malloc_sbrk_base

.bss.__malloc_max_sbrked_mem.__malloc_max_sbrked_mem
                0xa0003e58        0x4
 .bss.__malloc_max_sbrked_mem.__malloc_max_sbrked_mem
                0xa0003e58        0x4 c:/users/nukem419/appdata/local/arduino15/packages/chipkit/tools/pic32-tools/1.42-pic32gcc/bin/bin/../../lib/gcc/pic32mx/4.8.3/../../../../pic32mx/lib/size\libc.a(lib_a-mallocr.o)
                0xa0003e58                __malloc_max_sbrked_mem

.bss.__malloc_max_total_mem.__malloc_max_total_mem
                0xa0003e5c        0x4
 .bss.__malloc_max_total_mem.__malloc_max_total_mem
                0xa0003e5c        0x4 c:/users/nukem419/appdata/local/arduino15/packages/chipkit/tools/pic32-tools/1.42-pic32gcc/bin/bin/../../lib/gcc/pic32mx/4.8.3/../../../../pic32mx/lib/size\libc.a(lib_a-mallocr.o)
                0xa0003e5c                __malloc_max_total_mem

.libc.data.__ctype_ptr__
                0xa0003e60        0x4
 .libc.data.__ctype_ptr__
                0xa0003e60        0x4 c:/users/nukem419/appdata/local/arduino15/packages/chipkit/tools/pic32-tools/1.42-pic32gcc/bin/bin/../../lib/gcc/pic32mx/4.8.3/../../../../pic32mx/lib/size\libc.a(lib_a-ctype_.o)
                0xa0003e60                __ctype_ptr__

.bss.errno.errno
                0xa0003e64        0x4
 .bss.errno.errno
                0xa0003e64        0x4 c:/users/nukem419/appdata/local/arduino15/packages/chipkit/tools/pic32-tools/1.42-pic32gcc/bin/bin/../../lib/gcc/pic32mx/4.8.3/../../../../pic32mx/lib/size\libc.a(lib_a-reent.o)
                0xa0003e64                errno

.bss._minbrk._minbrk
                0xa0003e68        0x4
 .bss._minbrk._minbrk
                0xa0003e68        0x4 c:/users/nukem419/appdata/local/arduino15/packages/chipkit/tools/pic32-tools/1.42-pic32gcc/bin/bin/../../lib/gcc/pic32mx/4.8.3/../../../../pic32mx/lib/size\libpic32.a(sbrk.o)
                0xa0003e68                _minbrk

.bss._maxbrk._maxbrk
                0xa0003e6c        0x4
 .bss._maxbrk._maxbrk
                0xa0003e6c        0x4 c:/users/nukem419/appdata/local/arduino15/packages/chipkit/tools/pic32-tools/1.42-pic32gcc/bin/bin/../../lib/gcc/pic32mx/4.8.3/../../../../pic32mx/lib/size\libpic32.a(sbrk.o)
                0xa0003e6c                _maxbrk

.bss.curbrk.curbrk
                0xa0003e70        0x4
 .bss.curbrk.curbrk
                0xa0003e70        0x4 c:/users/nukem419/appdata/local/arduino15/packages/chipkit/tools/pic32-tools/1.42-pic32gcc/bin/bin/../../lib/gcc/pic32mx/4.8.3/../../../../pic32mx/lib/size\libpic32.a(sbrk.o)

.tm_clone_table
                0x00000000        0x0
 .tm_clone_table
                0x00000000        0x0 c:/users/nukem419/appdata/local/arduino15/packages/chipkit/tools/pic32-tools/1.42-pic32gcc/bin/bin/../../lib/gcc/pic32mx/4.8.3/size\crtend.o
                0x00000000                __TMC_END__

.tm_clone_table
                0x00000000        0x0
 .tm_clone_table
                0x00000000        0x0 c:/users/nukem419/appdata/local/arduino15/packages/chipkit/tools/pic32-tools/1.42-pic32gcc/bin/bin/../../lib/gcc/pic32mx/4.8.3/size\crtbegin.o

.jcr            0x00000000        0x0
 .jcr           0x00000000        0x0 c:/users/nukem419/appdata/local/arduino15/packages/chipkit/tools/pic32-tools/1.42-pic32gcc/bin/bin/../../lib/gcc/pic32mx/4.8.3/size\crtbegin.o

.eh_frame       0x00000000        0x0
 .eh_frame      0x00000000        0x0 c:/users/nukem419/appdata/local/arduino15/packages/chipkit/tools/pic32-tools/1.42-pic32gcc/bin/bin/../../lib/gcc/pic32mx/4.8.3/size\crtbegin.o

.text.loop      0x9d001818     0x1c80
 .text.loop     0x9d001818     0x1c80 C:\Users\nukem419\AppData\Local\V.Micro\Arduino\Builds\IREC_2017\chipKIT_chipkit_pic32_fubarino_sd\IREC_2017.cpp.o
                0x9d001818                loop

.text._strtod_r
                0x9d003498     0x12dc
 .text._strtod_r
                0x9d003498     0x12dc c:/users/nukem419/appdata/local/arduino15/packages/chipkit/tools/pic32-tools/1.42-pic32gcc/bin/bin/../../lib/gcc/pic32mx/4.8.3/../../../../pic32mx/lib/size\libc.a(lib_a-strtod.o)
                0x9d003498                _strtod_r

.text.__ieee754_pow
                0x9d004774     0x1124
 .text.__ieee754_pow
                0x9d004774     0x1124 c:/users/nukem419/appdata/local/arduino15/packages/chipkit/tools/pic32-tools/1.42-pic32gcc/bin/bin/../../lib/gcc/pic32mx/4.8.3/../../../../pic32mx/lib/size\libm.a(lib_a-e_pow.o)
                0x9d004774                __ieee754_pow

.dinit          0x9d005898     0x1010
 .dinit         0x9d005898     0x1010 data_init

.text._mav_finalize_message_chan_send.isra.1
                0x9d0068a8      0xbbc
 .text._mav_finalize_message_chan_send.isra.1
                0x9d0068a8      0xbbc C:\Users\nukem419\AppData\Local\V.Micro\Arduino\Builds\IREC_2017\chipKIT_chipkit_pic32_fubarino_sd\IREC_2017.cpp.o

.text.IntUSB1Handler
                0x9d007464      0x844
 .text.IntUSB1Handler
                0x9d007464      0x844 C:\Users\nukem419\AppData\Local\V.Micro\Arduino\Builds\IREC_2017\chipKIT_chipkit_pic32_fubarino_sd/core.a(HardwareSerial_usb.c.o)
                0x9d007464                IntUSB1Handler

.text           0x9d007ca8      0xfe8
 .text          0x9d007ca8      0x800 c:/users/nukem419/appdata/local/arduino15/packages/chipkit/tools/pic32-tools/1.42-pic32gcc/bin/bin/../../lib/gcc/pic32mx/4.8.3/size\libgcc.a(subdf3.o)
                0x9d007ca8                __subdf3
 .text          0x9d0084a8      0x7e8 c:/users/nukem419/appdata/local/arduino15/packages/chipkit/tools/pic32-tools/1.42-pic32gcc/bin/bin/../../lib/gcc/pic32mx/4.8.3/size\libgcc.a(adddf3.o)
                0x9d0084a8                __adddf3

.text._ZN5EM50610processGSAEP6String
                0x9d008c90      0x798
 .text._ZN5EM50610processGSAEP6String
                0x9d008c90      0x798 C:\Users\nukem419\AppData\Local\V.Micro\Arduino\Builds\IREC_2017\chipKIT_chipkit_pic32_fubarino_sd\EM_506.cpp.o
                0x9d008c90                EM506::processGSA(String*)

.text.__gethex  0x9d009428      0x78c
 .text.__gethex
                0x9d009428      0x78c c:/users/nukem419/appdata/local/arduino15/packages/chipkit/tools/pic32-tools/1.42-pic32gcc/bin/bin/../../lib/gcc/pic32mx/4.8.3/../../../../pic32mx/lib/size\libc.a(lib_a-gdtoa-gethex.o)
                0x9d009428                __gethex

.text           0x9d009bb4      0x6ec
 .text          0x9d009bb4      0x6ec c:/users/nukem419/appdata/local/arduino15/packages/chipkit/tools/pic32-tools/1.42-pic32gcc/bin/bin/../../lib/gcc/pic32mx/4.8.3/size\libgcc.a(divdf3.o)
                0x9d009bb4                __divdf3

.text._malloc_r
                0x9d00a2a0      0x6b4
 .text._malloc_r
                0x9d00a2a0      0x6b4 c:/users/nukem419/appdata/local/arduino15/packages/chipkit/tools/pic32-tools/1.42-pic32gcc/bin/bin/../../lib/gcc/pic32mx/4.8.3/../../../../pic32mx/lib/size\libc.a(lib_a-mallocr.o)
                0x9d00a2a0                _malloc_r

.text._ZN5EM50610processGGAEP6String
                0x9d00a954      0x66c
 .text._ZN5EM50610processGGAEP6String
                0x9d00a954      0x66c C:\Users\nukem419\AppData\Local\V.Micro\Arduino\Builds\IREC_2017\chipKIT_chipkit_pic32_fubarino_sd\EM_506.cpp.o
                0x9d00a954                EM506::processGGA(String*)

.text._realloc_r
                0x9d00afc0      0x5cc
 .text._realloc_r
                0x9d00afc0      0x5cc c:/users/nukem419/appdata/local/arduino15/packages/chipkit/tools/pic32-tools/1.42-pic32gcc/bin/bin/../../lib/gcc/pic32mx/4.8.3/../../../../pic32mx/lib/size\libc.a(lib_a-reallocr.o)
                0x9d00afc0                _realloc_r

.text._ZN5EM50610processRMCEP6String
                0x9d00b58c      0x5a0
 .text._ZN5EM50610processRMCEP6String
                0x9d00b58c      0x5a0 C:\Users\nukem419\AppData\Local\V.Micro\Arduino\Builds\IREC_2017\chipKIT_chipkit_pic32_fubarino_sd\EM_506.cpp.o
                0x9d00b58c                EM506::processRMC(String*)

.text           0x9d00bb2c      0x524
 .text          0x9d00bb2c      0x524 c:/users/nukem419/appdata/local/arduino15/packages/chipkit/tools/pic32-tools/1.42-pic32gcc/bin/bin/../../lib/gcc/pic32mx/4.8.3/size\libgcc.a(unwind-sjlj.o)
                0x9d00bb2c                _Unwind_SjLj_Register
                0x9d00bb40                _Unwind_SjLj_Unregister
                0x9d00bb50                _Unwind_GetGR
                0x9d00bb68                _Unwind_GetCFA
                0x9d00bb84                _Unwind_SetGR
                0x9d00bb9c                _Unwind_GetIP
                0x9d00bbac                _Unwind_GetIPInfo
                0x9d00bbd0                _Unwind_SetIP
                0x9d00bbe0                _Unwind_GetLanguageSpecificData
                0x9d00bbec                _Unwind_GetRegionStart
                0x9d00bbf4                _Unwind_FindEnclosingFunction
                0x9d00bbfc                _Unwind_GetDataRelBase
                0x9d00bc04                _Unwind_GetTextRelBase
                0x9d00bcd0                _Unwind_SjLj_RaiseException
                0x9d00beb4                _Unwind_SjLj_ForcedUnwind
                0x9d00bef4                _Unwind_SjLj_Resume
                0x9d00bf34                _Unwind_SjLj_Resume_or_Rethrow
                0x9d00bf74                _Unwind_DeleteException
                0x9d00bfa0                _Unwind_Backtrace

.text.pow       0x9d00c050      0x514
 .text.pow      0x9d00c050      0x514 c:/users/nukem419/appdata/local/arduino15/packages/chipkit/tools/pic32-tools/1.42-pic32gcc/bin/bin/../../lib/gcc/pic32mx/4.8.3/../../../../pic32mx/lib/size\libm.a(lib_a-w_pow.o)
                0x9d00c050                pow

.text           0x9d00c564      0xdd0
 .text          0x9d00c564      0x4a4 c:/users/nukem419/appdata/local/arduino15/packages/chipkit/tools/pic32-tools/1.42-pic32gcc/bin/bin/../../lib/gcc/pic32mx/4.8.3/size\libgcc.a(muldf3.o)
                0x9d00c564                __muldf3
 .text          0x9d00ca08      0x4a0 c:/users/nukem419/appdata/local/arduino15/packages/chipkit/tools/pic32-tools/1.42-pic32gcc/bin/bin/../../lib/gcc/pic32mx/4.8.3/size\libgcc.a(subsf3.o)
                0x9d00ca08                __subsf3
 .text          0x9d00cea8      0x48c c:/users/nukem419/appdata/local/arduino15/packages/chipkit/tools/pic32-tools/1.42-pic32gcc/bin/bin/../../lib/gcc/pic32mx/4.8.3/size\libgcc.a(addsf3.o)
                0x9d00cea8                __addsf3

.text._ZN5EM50610processVTGEP6String
                0x9d00d334      0x468
 .text._ZN5EM50610processVTGEP6String
                0x9d00d334      0x468 C:\Users\nukem419\AppData\Local\V.Micro\Arduino\Builds\IREC_2017\chipKIT_chipkit_pic32_fubarino_sd\EM_506.cpp.o
                0x9d00d334                EM506::processVTG(String*)

.text._ZN9MEMS_GyroC2Ev
                0x9d00d79c      0x3e8
 .text._ZN9MEMS_GyroC2Ev
                0x9d00d79c      0x3e8 C:\Users\nukem419\AppData\Local\V.Micro\Arduino\Builds\IREC_2017\chipKIT_chipkit_pic32_fubarino_sd\L3GD20TR.cpp.o
                0x9d00d79c                MEMS_Gyro::MEMS_Gyro()
                0x9d00d79c                MEMS_Gyro::MEMS_Gyro()

.text._ZN6SdFile5writeEPKvt
                0x9d00db84      0x3a8
 .text._ZN6SdFile5writeEPKvt
                0x9d00db84      0x3a8 C:\Users\nukem419\AppData\Local\V.Micro\Arduino\Builds\IREC_2017\chipKIT_chipkit_pic32_fubarino_sd\SD\utility\SdFile.cpp.o
                0x9d00db84                SdFile::write(void const*, unsigned short)

.text._ZN5EM50610processGLLEP6String
                0x9d00df2c      0x394
 .text._ZN5EM50610processGLLEP6String
                0x9d00df2c      0x394 C:\Users\nukem419\AppData\Local\V.Micro\Arduino\Builds\IREC_2017\chipKIT_chipkit_pic32_fubarino_sd\EM_506.cpp.o
                0x9d00df2c                EM506::processGLL(String*)

.text           0x9d00e2c0      0x380
 .text          0x9d00e2c0      0x380 c:/users/nukem419/appdata/local/arduino15/packages/chipkit/tools/pic32-tools/1.42-pic32gcc/bin/bin/../../lib/gcc/pic32mx/4.8.3/size\libgcc.a(divsf3.o)
                0x9d00e2c0                __divsf3

.text._ZN9MEMS_Gyro7runGyroEv
                0x9d00e640      0x35c
 .text._ZN9MEMS_Gyro7runGyroEv
                0x9d00e640      0x35c C:\Users\nukem419\AppData\Local\V.Micro\Arduino\Builds\IREC_2017\chipKIT_chipkit_pic32_fubarino_sd\L3GD20TR.cpp.o
                0x9d00e640                MEMS_Gyro::runGyro()

.text._ZN5EM50610processZDAEP6String
                0x9d00e99c      0x31c
 .text._ZN5EM50610processZDAEP6String
                0x9d00e99c      0x31c C:\Users\nukem419\AppData\Local\V.Micro\Arduino\Builds\IREC_2017\chipKIT_chipkit_pic32_fubarino_sd\EM_506.cpp.o
                0x9d00e99c                EM506::processZDA(String*)

.text._ZN5Print10printFloatEdh
                0x9d00ecb8      0x31c
 .text._ZN5Print10printFloatEdh
                0x9d00ecb8      0x31c C:\Users\nukem419\AppData\Local\V.Micro\Arduino\Builds\IREC_2017\chipKIT_chipkit_pic32_fubarino_sd/core.a(Print.cpp.o)
                0x9d00ecb8                Print::printFloat(double, unsigned char)

.text._ZN10DataLogger9readParamEPt
                0x9d00efd4      0x30c
 .text._ZN10DataLogger9readParamEPt
                0x9d00efd4      0x30c C:\Users\nukem419\AppData\Local\V.Micro\Arduino\Builds\IREC_2017\chipKIT_chipkit_pic32_fubarino_sd\DataLogger.cpp.o
                0x9d00efd4                DataLogger::readParam(unsigned short*)

.text.__ieee754_fmod
                0x9d00f2e0      0x308
 .text.__ieee754_fmod
                0x9d00f2e0      0x308 c:/users/nukem419/appdata/local/arduino15/packages/chipkit/tools/pic32-tools/1.42-pic32gcc/bin/bin/../../lib/gcc/pic32mx/4.8.3/../../../../pic32mx/lib/size\libm.a(lib_a-e_fmod.o)
                0x9d00f2e0                __ieee754_fmod

.text._ZN5EM5066getLocEv
                0x9d00f5e8      0x2e0
 .text._ZN5EM5066getLocEv
                0x9d00f5e8      0x2e0 C:\Users\nukem419\AppData\Local\V.Micro\Arduino\Builds\IREC_2017\chipKIT_chipkit_pic32_fubarino_sd\EM_506.cpp.o
                0x9d00f5e8                EM506::getLoc()

.text.cdcacm_print
                0x9d00f8c8      0x2d4
 .text.cdcacm_print
                0x9d00f8c8      0x2d4 C:\Users\nukem419\AppData\Local\V.Micro\Arduino\Builds\IREC_2017\chipKIT_chipkit_pic32_fubarino_sd/core.a(HardwareSerial_cdcacm.c.o)
                0x9d00f8c8                cdcacm_print

.text           0x9d00fb9c      0x2c8
 .text          0x9d00fb9c      0x2c8 c:/users/nukem419/appdata/local/arduino15/packages/chipkit/tools/pic32-tools/1.42-pic32gcc/bin/bin/../../lib/gcc/pic32mx/4.8.3/size\libgcc.a(mulsf3.o)
                0x9d00fb9c                __mulsf3

.text._ZN6SdFile4openEPS_PKch.part.25
                0x9d00fe64      0x280
 .text._ZN6SdFile4openEPS_PKch.part.25
                0x9d00fe64      0x280 C:\Users\nukem419\AppData\Local\V.Micro\Arduino\Builds\IREC_2017\chipKIT_chipkit_pic32_fubarino_sd\SD\utility\SdFile.cpp.o

.text._free_r   0x9d0100e4      0x280
 .text._free_r  0x9d0100e4      0x280 c:/users/nukem419/appdata/local/arduino15/packages/chipkit/tools/pic32-tools/1.42-pic32gcc/bin/bin/../../lib/gcc/pic32mx/4.8.3/../../../../pic32mx/lib/size\libc.a(lib_a-freer.o)
                0x9d0100e4                _free_r

.text._ZN7Sd2Card4initEhh
                0x9d010364      0x26c
 .text._ZN7Sd2Card4initEhh
                0x9d010364      0x26c C:\Users\nukem419\AppData\Local\V.Micro\Arduino\Builds\IREC_2017\chipKIT_chipkit_pic32_fubarino_sd\SD\utility\Sd2Card.cpp.o
                0x9d010364                Sd2Card::init(unsigned char, unsigned char)

.text._ZN4DTWI12slaveMachineEv
                0x9d0105d0      0x26c
 .text._ZN4DTWI12slaveMachineEv
                0x9d0105d0      0x26c C:\Users\nukem419\AppData\Local\V.Micro\Arduino\Builds\IREC_2017\chipKIT_chipkit_pic32_fubarino_sd\Wire\Wire.cpp.o
                0x9d0105d0                DTWI::slaveMachine()

.text._ZN6SdFile4readEPvt
                0x9d01083c      0x25c
 .text._ZN6SdFile4readEPvt
                0x9d01083c      0x25c C:\Users\nukem419\AppData\Local\V.Micro\Arduino\Builds\IREC_2017\chipKIT_chipkit_pic32_fubarino_sd\SD\utility\SdFile.cpp.o
                0x9d01083c                SdFile::read(void*, unsigned short)

.text.__ieee754_sqrt
                0x9d010a98      0x25c
 .text.__ieee754_sqrt
                0x9d010a98      0x25c c:/users/nukem419/appdata/local/arduino15/packages/chipkit/tools/pic32-tools/1.42-pic32gcc/bin/bin/../../lib/gcc/pic32mx/4.8.3/../../../../pic32mx/lib/size\libm.a(lib_a-e_sqrt.o)
                0x9d010a98                __ieee754_sqrt

.text._ZN4DTWI9getStatusEv
                0x9d010cf4      0x258
 .text._ZN4DTWI9getStatusEv
                0x9d010cf4      0x258 C:\Users\nukem419\AppData\Local\V.Micro\Arduino\Builds\IREC_2017\chipKIT_chipkit_pic32_fubarino_sd\Wire\Wire.cpp.o
                0x9d010cf4                DTWI::getStatus()

.text._ZN5EM5068setQueryEhhh
                0x9d010f4c      0x24c
 .text._ZN5EM5068setQueryEhhh
                0x9d010f4c      0x24c C:\Users\nukem419\AppData\Local\V.Micro\Arduino\Builds\IREC_2017\chipKIT_chipkit_pic32_fubarino_sd\EM_506.cpp.o
                0x9d010f4c                EM506::setQuery(unsigned char, unsigned char, unsigned char)

.text           0x9d011198      0x24c
 .text          0x9d011198      0x24c c:/users/nukem419/appdata/local/arduino15/packages/chipkit/tools/pic32-tools/1.42-pic32gcc/bin/bin/../../lib/gcc/pic32mx/4.8.3/size\crtbegin.o

.text.CoreTimerHandler
                0x9d0113e4      0x240
 .text.CoreTimerHandler
                0x9d0113e4      0x240 C:\Users\nukem419\AppData\Local\V.Micro\Arduino\Builds\IREC_2017\chipKIT_chipkit_pic32_fubarino_sd/core.a(wiring.c.o)
                0x9d0113e4                CoreTimerHandler

.text._ZN5EM5066runGPSEv
                0x9d011624      0x238
 .text._ZN5EM5066runGPSEv
                0x9d011624      0x238 C:\Users\nukem419\AppData\Local\V.Micro\Arduino\Builds\IREC_2017\chipKIT_chipkit_pic32_fubarino_sd\EM_506.cpp.o
                0x9d011624                EM506::runGPS()

.text._ZN4DTWI11startMasterEhmb
                0x9d01185c      0x228
 .text._ZN4DTWI11startMasterEhmb
                0x9d01185c      0x228 C:\Users\nukem419\AppData\Local\V.Micro\Arduino\Builds\IREC_2017\chipKIT_chipkit_pic32_fubarino_sd\Wire\Wire.cpp.o
                0x9d01185c                DTWI::startMaster(unsigned char, unsigned long, bool)

.text._ZN6BMP18012pullPressureEv
                0x9d011a84      0x224
 .text._ZN6BMP18012pullPressureEv
                0x9d011a84      0x224 C:\Users\nukem419\AppData\Local\V.Micro\Arduino\Builds\IREC_2017\chipKIT_chipkit_pic32_fubarino_sd\BMP180.cpp.o
                0x9d011a84                BMP180::pullPressure()

.text._ZN7SDClass12getParentDirEPKcPi
                0x9d011ca8      0x220
 .text._ZN7SDClass12getParentDirEPKcPi
                0x9d011ca8      0x220 C:\Users\nukem419\AppData\Local\V.Micro\Arduino\Builds\IREC_2017\chipKIT_chipkit_pic32_fubarino_sd\SD\SD.cpp.o
                0x9d011ca8                SDClass::getParentDir(char const*, int*)

.text._ZN7SDClass4openEPKch
                0x9d011ec8      0x214
 .text._ZN7SDClass4openEPKch
                0x9d011ec8      0x214 C:\Users\nukem419\AppData\Local\V.Micro\Arduino\Builds\IREC_2017\chipKIT_chipkit_pic32_fubarino_sd\SD\SD.cpp.o
                0x9d011ec8                SDClass::open(char const*, unsigned char)

.text.__hexnan  0x9d0120dc      0x214
 .text.__hexnan
                0x9d0120dc      0x214 c:/users/nukem419/appdata/local/arduino15/packages/chipkit/tools/pic32-tools/1.42-pic32gcc/bin/bin/../../lib/gcc/pic32mx/4.8.3/../../../../pic32mx/lib/size\libc.a(lib_a-gdtoa-hexnan.o)
                0x9d0120dc                __hexnan

.text._ZN4DTWI13masterMachineEv
                0x9d0122f0      0x208
 .text._ZN4DTWI13masterMachineEv
                0x9d0122f0      0x208 C:\Users\nukem419\AppData\Local\V.Micro\Arduino\Builds\IREC_2017\chipKIT_chipkit_pic32_fubarino_sd\Wire\Wire.cpp.o
                0x9d0122f0                DTWI::masterMachine()

.text.rint      0x9d0124f8      0x204
 .text.rint     0x9d0124f8      0x204 c:/users/nukem419/appdata/local/arduino15/packages/chipkit/tools/pic32-tools/1.42-pic32gcc/bin/bin/../../lib/gcc/pic32mx/4.8.3/../../../../pic32mx/lib/size\libm.a(lib_a-s_rint.o)
                0x9d0124f8                rint

.text._ZN8SdVolume4initEP7Sd2Cardh
                0x9d0126fc      0x1f0
 .text._ZN8SdVolume4initEP7Sd2Cardh
                0x9d0126fc      0x1f0 C:\Users\nukem419\AppData\Local\V.Micro\Arduino\Builds\IREC_2017\chipKIT_chipkit_pic32_fubarino_sd\SD\utility\SdVolume.cpp.o
                0x9d0126fc                SdVolume::init(Sd2Card*, unsigned char)

.text._ZN4DTWI4readEPhm
                0x9d0128ec      0x1e0
 .text._ZN4DTWI4readEPhm
                0x9d0128ec      0x1e0 C:\Users\nukem419\AppData\Local\V.Micro\Arduino\Builds\IREC_2017\chipKIT_chipkit_pic32_fubarino_sd\Wire\Wire.cpp.o
                0x9d0128ec                DTWI::read(unsigned char*, unsigned long)

.text.__multiply
                0x9d012acc      0x1e0
 .text.__multiply
                0x9d012acc      0x1e0 c:/users/nukem419/appdata/local/arduino15/packages/chipkit/tools/pic32-tools/1.42-pic32gcc/bin/bin/../../lib/gcc/pic32mx/4.8.3/../../../../pic32mx/lib/size\libc.a(lib_a-mprec.o)
                0x9d012acc                __multiply

.text._ZN4DTWI5writeEPKhm
                0x9d012cac      0x1d4
 .text._ZN4DTWI5writeEPKhm
                0x9d012cac      0x1d4 C:\Users\nukem419\AppData\Local\V.Micro\Arduino\Builds\IREC_2017\chipKIT_chipkit_pic32_fubarino_sd\Wire\Wire.cpp.o
                0x9d012cac                DTWI::write(unsigned char const*, unsigned long)

.text._ZN6BMP18011pullCalDataEv
                0x9d012e80      0x1d4
 .text._ZN6BMP18011pullCalDataEv
                0x9d012e80      0x1d4 C:\Users\nukem419\AppData\Local\V.Micro\Arduino\Builds\IREC_2017\chipKIT_chipkit_pic32_fubarino_sd\BMP180.cpp.o
                0x9d012e80                BMP180::pullCalData()

.text.setStrings
                0x9d013054      0x1d4
 .text.setStrings
                0x9d013054      0x1d4 C:\Users\nukem419\AppData\Local\V.Micro\Arduino\Builds\IREC_2017\chipKIT_chipkit_pic32_fubarino_sd/core.a(HardwareSerial_cdcacm.c.o)
                0x9d013054                setStrings

.text._scheduleTask
                0x9d013228      0x1cc
 .text._scheduleTask
                0x9d013228      0x1cc C:\Users\nukem419\AppData\Local\V.Micro\Arduino\Builds\IREC_2017\chipKIT_chipkit_pic32_fubarino_sd/core.a(task_manager.c.o)
                0x9d013228                _scheduleTask

.text           0x9d0133f4      0x1bc
 .text          0x9d0133f4      0x1bc c:/users/nukem419/appdata/local/arduino15/packages/chipkit/tools/pic32-tools/1.42-pic32gcc/bin/bin/../../lib/gcc/pic32mx/4.8.3/size\libgcc.a(truncdfsf2.o)
                0x9d0133f4                __truncdfsf2

.text._ZN10DataLogger10writeParamEP10Parameters
                0x9d0135b0      0x1a8
 .text._ZN10DataLogger10writeParamEP10Parameters
                0x9d0135b0      0x1a8 C:\Users\nukem419\AppData\Local\V.Micro\Arduino\Builds\IREC_2017\chipKIT_chipkit_pic32_fubarino_sd\DataLogger.cpp.o
                0x9d0135b0                DataLogger::writeParam(Parameters*)

.text._strtol_r
                0x9d013758      0x1a8
 .text._strtol_r
                0x9d013758      0x1a8 c:/users/nukem419/appdata/local/arduino15/packages/chipkit/tools/pic32-tools/1.42-pic32gcc/bin/bin/../../lib/gcc/pic32mx/4.8.3/../../../../pic32mx/lib/size\libc.a(lib_a-strtol.o)
                0x9d013758                _strtol_r

.text._ZN8SdVolume15allocContiguousEmPm
                0x9d013900      0x19c
 .text._ZN8SdVolume15allocContiguousEmPm
                0x9d013900      0x19c C:\Users\nukem419\AppData\Local\V.Micro\Arduino\Builds\IREC_2017\chipKIT_chipkit_pic32_fubarino_sd\SD\utility\SdVolume.cpp.o
                0x9d013900                SdVolume::allocContiguous(unsigned long, unsigned long*)

.text._ZN7Sd2Card8readDataEmttPh
                0x9d013a9c      0x180
 .text._ZN7Sd2Card8readDataEmttPh
                0x9d013a9c      0x180 C:\Users\nukem419\AppData\Local\V.Micro\Arduino\Builds\IREC_2017\chipKIT_chipkit_pic32_fubarino_sd\SD\utility\Sd2Card.cpp.o
                0x9d013a9c                Sd2Card::readData(unsigned long, unsigned short, unsigned short, unsigned char*)

.text._ZN10MEMS_AccelC2Ev
                0x9d013c1c      0x180
 .text._ZN10MEMS_AccelC2Ev
                0x9d013c1c      0x180 C:\Users\nukem419\AppData\Local\V.Micro\Arduino\Builds\IREC_2017\chipKIT_chipkit_pic32_fubarino_sd\LIS331HH.cpp.o
                0x9d013c1c                MEMS_Accel::MEMS_Accel()
                0x9d013c1c                MEMS_Accel::MEMS_Accel()

.rodata._ctype_b._ctype_b
                0x9d013d9c      0x180
 .rodata._ctype_b._ctype_b
                0x9d013d9c      0x180 c:/users/nukem419/appdata/local/arduino15/packages/chipkit/tools/pic32-tools/1.42-pic32gcc/bin/bin/../../lib/gcc/pic32mx/4.8.3/../../../../pic32mx/lib/size\libc.a(lib_a-ctype_.o)

.text._GLOBAL__sub_I__ZN14HardwareSerialC2EP8p32_uartiiiiPFvvE
                0x9d013f1c      0x16c
 .text._GLOBAL__sub_I__ZN14HardwareSerialC2EP8p32_uartiiiiPFvvE
                0x9d013f1c      0x16c C:\Users\nukem419\AppData\Local\V.Micro\Arduino\Builds\IREC_2017\chipKIT_chipkit_pic32_fubarino_sd/core.a(HardwareSerial.cpp.o)

.text._Z8walkPathPcR6SdFilePFhS1_S_hPvES2_
                0x9d014088      0x164
 .text._Z8walkPathPcR6SdFilePFhS1_S_hPvES2_
                0x9d014088      0x164 C:\Users\nukem419\AppData\Local\V.Micro\Arduino\Builds\IREC_2017\chipKIT_chipkit_pic32_fubarino_sd\SD\SD.cpp.o
                0x9d014088                walkPath(char*, SdFile&, unsigned char (*)(SdFile&, char*, unsigned char, void*), void*)

.text._ZN6SdFile8truncateEm
                0x9d0141ec      0x164
 .text._ZN6SdFile8truncateEm
                0x9d0141ec      0x164 C:\Users\nukem419\AppData\Local\V.Micro\Arduino\Builds\IREC_2017\chipKIT_chipkit_pic32_fubarino_sd\SD\utility\SdFile.cpp.o
                0x9d0141ec                SdFile::truncate(unsigned long)

.text._ZN4DTWI11beginMasterENS_8I2C_FREQE
                0x9d014350      0x164
 .text._ZN4DTWI11beginMasterENS_8I2C_FREQE
                0x9d014350      0x164 C:\Users\nukem419\AppData\Local\V.Micro\Arduino\Builds\IREC_2017\chipKIT_chipkit_pic32_fubarino_sd\Wire\Wire.cpp.o
                0x9d014350                DTWI::beginMaster(DTWI::I2C_FREQ)

.text.scalbn    0x9d0144b4      0x164
 .text.scalbn   0x9d0144b4      0x164 c:/users/nukem419/appdata/local/arduino15/packages/chipkit/tools/pic32-tools/1.42-pic32gcc/bin/bin/../../lib/gcc/pic32mx/4.8.3/../../../../pic32mx/lib/size\libm.a(lib_a-s_scalbn.o)
                0x9d0144b4                scalbn

.text.__mdiff   0x9d014618      0x164
 .text.__mdiff  0x9d014618      0x164 c:/users/nukem419/appdata/local/arduino15/packages/chipkit/tools/pic32-tools/1.42-pic32gcc/bin/bin/../../lib/gcc/pic32mx/4.8.3/../../../../pic32mx/lib/size\libc.a(lib_a-mprec.o)
                0x9d014618                __mdiff

.text.fmod      0x9d01477c      0x160
 .text.fmod     0x9d01477c      0x160 c:/users/nukem419/appdata/local/arduino15/packages/chipkit/tools/pic32-tools/1.42-pic32gcc/bin/bin/../../lib/gcc/pic32mx/4.8.3/../../../../pic32mx/lib/size\libm.a(lib_a-w_fmod.o)
                0x9d01477c                fmod

.text._sbrk_init
                0x9d0148dc      0x158
 .text._sbrk_init
                0x9d0148dc      0x158 c:/users/nukem419/appdata/local/arduino15/packages/chipkit/tools/pic32-tools/1.42-pic32gcc/bin/bin/../../lib/gcc/pic32mx/4.8.3/../../../../pic32mx/lib/size\libpic32.a(sbrk.o)
                0x9d0148dc                _sbrk_init

.text._ZN6BMP180C2EP10Parameters
                0x9d014a34      0x154
 .text._ZN6BMP180C2EP10Parameters
                0x9d014a34      0x154 C:\Users\nukem419\AppData\Local\V.Micro\Arduino\Builds\IREC_2017\chipKIT_chipkit_pic32_fubarino_sd\BMP180.cpp.o
                0x9d014a34                BMP180::BMP180(Parameters*)
                0x9d014a34                BMP180::BMP180(Parameters*)

.text.__lshift  0x9d014b88      0x154
 .text.__lshift
                0x9d014b88      0x154 c:/users/nukem419/appdata/local/arduino15/packages/chipkit/tools/pic32-tools/1.42-pic32gcc/bin/bin/../../lib/gcc/pic32mx/4.8.3/../../../../pic32mx/lib/size\libc.a(lib_a-mprec.o)
                0x9d014b88                __lshift

.text._ZL28read_encoded_value_with_basehjPKhPj
                0x9d014cdc      0x150
 .text._ZL28read_encoded_value_with_basehjPKhPj
                0x9d014cdc      0x150 c:/users/nukem419/appdata/local/arduino15/packages/chipkit/tools/pic32-tools/1.42-pic32gcc/bin/bin/../../lib/gcc/pic32mx/4.8.3/../../../../pic32mx/lib/size\libsupc++.a(eh_personality.o)

.text._ZN14HardwareSerial5beginEm
                0x9d014e2c      0x140
 .text._ZN14HardwareSerial5beginEm
                0x9d014e2c      0x140 C:\Users\nukem419\AppData\Local\V.Micro\Arduino\Builds\IREC_2017\chipKIT_chipkit_pic32_fubarino_sd/core.a(HardwareSerial.cpp.o)
                0x9d014e2c                HardwareSerial::begin(unsigned long)

.text.IntSer0Handler
                0x9d014f6c      0x13c
 .text.IntSer0Handler
                0x9d014f6c      0x13c C:\Users\nukem419\AppData\Local\V.Micro\Arduino\Builds\IREC_2017\chipKIT_chipkit_pic32_fubarino_sd/core.a(HardwareSerial.cpp.o)
                0x9d014f6c                IntSer0Handler

.text.IntSer1Handler
                0x9d0150a8      0x13c
 .text.IntSer1Handler
                0x9d0150a8      0x13c C:\Users\nukem419\AppData\Local\V.Micro\Arduino\Builds\IREC_2017\chipKIT_chipkit_pic32_fubarino_sd/core.a(HardwareSerial.cpp.o)
                0x9d0150a8                IntSer1Handler

.text.IntSer2Handler
                0x9d0151e4      0x13c
 .text.IntSer2Handler
                0x9d0151e4      0x13c C:\Users\nukem419\AppData\Local\V.Micro\Arduino\Builds\IREC_2017\chipKIT_chipkit_pic32_fubarino_sd/core.a(HardwareSerial.cpp.o)
                0x9d0151e4                IntSer2Handler

.text.IntSer3Handler
                0x9d015320      0x13c
 .text.IntSer3Handler
                0x9d015320      0x13c C:\Users\nukem419\AppData\Local\V.Micro\Arduino\Builds\IREC_2017\chipKIT_chipkit_pic32_fubarino_sd/core.a(HardwareSerial.cpp.o)
                0x9d015320                IntSer3Handler

.text.IntSer4Handler
                0x9d01545c      0x13c
 .text.IntSer4Handler
                0x9d01545c      0x13c C:\Users\nukem419\AppData\Local\V.Micro\Arduino\Builds\IREC_2017\chipKIT_chipkit_pic32_fubarino_sd/core.a(HardwareSerial.cpp.o)
                0x9d01545c                IntSer4Handler

.text.IntSer5Handler
                0x9d015598      0x13c
 .text.IntSer5Handler
                0x9d015598      0x13c C:\Users\nukem419\AppData\Local\V.Micro\Arduino\Builds\IREC_2017\chipKIT_chipkit_pic32_fubarino_sd/core.a(HardwareSerial.cpp.o)
                0x9d015598                IntSer5Handler

.text.IntDtwi0Handler
                0x9d0156d4      0x138
 .text.IntDtwi0Handler
                0x9d0156d4      0x138 C:\Users\nukem419\AppData\Local\V.Micro\Arduino\Builds\IREC_2017\chipKIT_chipkit_pic32_fubarino_sd\Wire\Wire.cpp.o
                0x9d0156d4                IntDtwi0Handler

.text._ZN6BMP18012runBarometerEv
                0x9d01580c      0x134
 .text._ZN6BMP18012runBarometerEv
                0x9d01580c      0x134 C:\Users\nukem419\AppData\Local\V.Micro\Arduino\Builds\IREC_2017\chipKIT_chipkit_pic32_fubarino_sd\BMP180.cpp.o
                0x9d01580c                BMP180::runBarometer()

.text.cdcacm_bulk_transfer
                0x9d015940      0x130
 .text.cdcacm_bulk_transfer
                0x9d015940      0x130 C:\Users\nukem419\AppData\Local\V.Micro\Arduino\Builds\IREC_2017\chipKIT_chipkit_pic32_fubarino_sd/core.a(HardwareSerial_cdcacm.c.o)

.text.__d2b     0x9d015a70      0x130
 .text.__d2b    0x9d015a70      0x130 c:/users/nukem419/appdata/local/arduino15/packages/chipkit/tools/pic32-tools/1.42-pic32gcc/bin/bin/../../lib/gcc/pic32mx/4.8.3/../../../../pic32mx/lib/size\libc.a(lib_a-mprec.o)
                0x9d015a70                __d2b

.text._ZN8SdVolume6fatPutEmm
                0x9d015ba0      0x128
 .text._ZN8SdVolume6fatPutEmm
                0x9d015ba0      0x128 C:\Users\nukem419\AppData\Local\V.Micro\Arduino\Builds\IREC_2017\chipKIT_chipkit_pic32_fubarino_sd\SD\utility\SdVolume.cpp.o
                0x9d015ba0                SdVolume::fatPut(unsigned long, unsigned long)

.text._ZNK10__cxxabiv120__si_class_type_info12__do_dyncastElNS_17__class_type_info10__sub_kindEPKS1_PKvS4_S6_RNS1_16__dyncast_resultE
                0x9d015cc8      0x128
 .text._ZNK10__cxxabiv120__si_class_type_info12__do_dyncastElNS_17__class_type_info10__sub_kindEPKS1_PKvS4_S6_RNS1_16__dyncast_resultE
                0x9d015cc8      0x128 c:/users/nukem419/appdata/local/arduino15/packages/chipkit/tools/pic32-tools/1.42-pic32gcc/bin/bin/../../lib/gcc/pic32mx/4.8.3/../../../../pic32mx/lib/size\libsupc++.a(si_class_type_info.o)
                0x9d015cc8                __cxxabiv1::__si_class_type_info::__do_dyncast(long, __cxxabiv1::__class_type_info::__sub_kind, __cxxabiv1::__class_type_info const*, void const*, __cxxabiv1::__class_type_info const*, void const*, __cxxabiv1::__class_type_info::__dyncast_result&) const

.text._ZN5EM5067getTimeEv
                0x9d015df0      0x124
 .text._ZN5EM5067getTimeEv
                0x9d015df0      0x124 C:\Users\nukem419\AppData\Local\V.Micro\Arduino\Builds\IREC_2017\chipKIT_chipkit_pic32_fubarino_sd\EM_506.cpp.o
                0x9d015df0                EM506::getTime()

.text.cdcacm_control_transfer
                0x9d015f14      0x11c
 .text.cdcacm_control_transfer
                0x9d015f14      0x11c C:\Users\nukem419\AppData\Local\V.Micro\Arduino\Builds\IREC_2017\chipKIT_chipkit_pic32_fubarino_sd/core.a(HardwareSerial_cdcacm.c.o)

.text           0x9d016030      0x11c
 .text          0x9d016030      0x11c c:/users/nukem419/appdata/local/arduino15/packages/chipkit/tools/pic32-tools/1.42-pic32gcc/bin/bin/../../lib/gcc/pic32mx/4.8.3/size\libgcc.a(gedf2.o)
                0x9d016030                __gedf2
                0x9d016030                __gtdf2

.text._malloc_trim_r
                0x9d01614c      0x11c
 .text._malloc_trim_r
                0x9d01614c      0x11c c:/users/nukem419/appdata/local/arduino15/packages/chipkit/tools/pic32-tools/1.42-pic32gcc/bin/bin/../../lib/gcc/pic32mx/4.8.3/../../../../pic32mx/lib/size\libc.a(lib_a-freer.o)
                0x9d01614c                _malloc_trim_r

.text._ZN6SdFile7seekSetEm
                0x9d016268      0x118
 .text._ZN6SdFile7seekSetEm
                0x9d016268      0x118 C:\Users\nukem419\AppData\Local\V.Micro\Arduino\Builds\IREC_2017\chipKIT_chipkit_pic32_fubarino_sd\SD\utility\SdFile.cpp.o
                0x9d016268                SdFile::seekSet(unsigned long)

.text.__s2b     0x9d016380      0x118
 .text.__s2b    0x9d016380      0x118 c:/users/nukem419/appdata/local/arduino15/packages/chipkit/tools/pic32-tools/1.42-pic32gcc/bin/bin/../../lib/gcc/pic32mx/4.8.3/../../../../pic32mx/lib/size\libc.a(lib_a-mprec.o)
                0x9d016380                __s2b

.text._ZN6SdFile15openCachedEntryEhh
                0x9d016498      0x110
 .text._ZN6SdFile15openCachedEntryEhh
                0x9d016498      0x110 C:\Users\nukem419\AppData\Local\V.Micro\Arduino\Builds\IREC_2017\chipKIT_chipkit_pic32_fubarino_sd\SD\utility\SdFile.cpp.o
                0x9d016498                SdFile::openCachedEntry(unsigned char, unsigned char)

.text._ZN4DTWI12stateMachineEv
                0x9d0165a8      0x110
 .text._ZN4DTWI12stateMachineEv
                0x9d0165a8      0x110 C:\Users\nukem419\AppData\Local\V.Micro\Arduino\Builds\IREC_2017\chipKIT_chipkit_pic32_fubarino_sd\Wire\Wire.cpp.o
                0x9d0165a8                DTWI::stateMachine()

.text._ZN9USBSerial5writeEPKhm
                0x9d0166b8      0x110
 .text._ZN9USBSerial5writeEPKhm
                0x9d0166b8      0x110 C:\Users\nukem419\AppData\Local\V.Micro\Arduino\Builds\IREC_2017\chipKIT_chipkit_pic32_fubarino_sd/core.a(HardwareSerial.cpp.o)
                0x9d0166b8                USBSerial::write(unsigned char const*, unsigned long)

.text           0x9d0167c8      0x110
 .text          0x9d0167c8      0x110 c:/users/nukem419/appdata/local/arduino15/packages/chipkit/tools/pic32-tools/1.42-pic32gcc/bin/bin/../../lib/gcc/pic32mx/4.8.3/size\libgcc.a(floatsisf.o)
                0x9d0167c8                __floatsisf

.text._Z19USBstoreDataRoutinePKhi
                0x9d0168d8      0x10c
 .text._Z19USBstoreDataRoutinePKhi
                0x9d0168d8      0x10c C:\Users\nukem419\AppData\Local\V.Micro\Arduino\Builds\IREC_2017\chipKIT_chipkit_pic32_fubarino_sd/core.a(HardwareSerial.cpp.o)
                0x9d0168d8                USBstoreDataRoutine(unsigned char const*, int)

.text           0x9d0169e4      0x10c
 .text          0x9d0169e4      0x10c c:/users/nukem419/appdata/local/arduino15/packages/chipkit/tools/pic32-tools/1.42-pic32gcc/bin/bin/../../lib/gcc/pic32mx/4.8.3/size\libgcc.a(ledf2.o)
                0x9d0169e4                __ledf2
                0x9d0169e4                __ltdf2

.text.__multadd
                0x9d016af0      0x10c
 .text.__multadd
                0x9d016af0      0x10c c:/users/nukem419/appdata/local/arduino15/packages/chipkit/tools/pic32-tools/1.42-pic32gcc/bin/bin/../../lib/gcc/pic32mx/4.8.3/../../../../pic32mx/lib/size\libc.a(lib_a-mprec.o)
                0x9d016af0                __multadd

.text.__pow5mult
                0x9d016bfc      0x108
 .text.__pow5mult
                0x9d016bfc      0x108 c:/users/nukem419/appdata/local/arduino15/packages/chipkit/tools/pic32-tools/1.42-pic32gcc/bin/bin/../../lib/gcc/pic32mx/4.8.3/../../../../pic32mx/lib/size\libc.a(lib_a-mprec.o)
                0x9d016bfc                __pow5mult

.text._ZN4DTWIC2EP7p32_i2chhhhhh
                0x9d016d04      0x104
 .text._ZN4DTWIC2EP7p32_i2chhhhhh
                0x9d016d04      0x104 C:\Users\nukem419\AppData\Local\V.Micro\Arduino\Builds\IREC_2017\chipKIT_chipkit_pic32_fubarino_sd\Wire\Wire.cpp.o
                0x9d016d04                DTWI::DTWI(p32_i2c*, unsigned char, unsigned char, unsigned char, unsigned char, unsigned char, unsigned char)
                0x9d016d04                DTWI::DTWI(p32_i2c*, unsigned char, unsigned char, unsigned char, unsigned char, unsigned char, unsigned char)

.text._ZN4DTWI10stopMasterEv
                0x9d016e08      0x100
 .text._ZN4DTWI10stopMasterEv
                0x9d016e08      0x100 C:\Users\nukem419\AppData\Local\V.Micro\Arduino\Builds\IREC_2017\chipKIT_chipkit_pic32_fubarino_sd\Wire\Wire.cpp.o
                0x9d016e08                DTWI::stopMaster()

.rodata._ZZ25mavlink_frame_char_bufferE20mavlink_message_crcs.mavlink_message_crcs
                0x9d016f08      0x100
 .rodata._ZZ25mavlink_frame_char_bufferE20mavlink_message_crcs.mavlink_message_crcs
                0x9d016f08      0x100 C:\Users\nukem419\AppData\Local\V.Micro\Arduino\Builds\IREC_2017\chipKIT_chipkit_pic32_fubarino_sd\IREC_2017.cpp.o

.text.pinMode   0x9d017008      0x100
 .text.pinMode  0x9d017008      0x100 C:\Users\nukem419\AppData\Local\V.Micro\Arduino\Builds\IREC_2017\chipKIT_chipkit_pic32_fubarino_sd/core.a(wiring_digital.c.o)
                0x9d017008                pinMode

.rodata         0x9d017108      0x100
 .rodata        0x9d017108      0x100 c:/users/nukem419/appdata/local/arduino15/packages/chipkit/tools/pic32-tools/1.42-pic32gcc/bin/bin/../../lib/gcc/pic32mx/4.8.3/../../../../pic32mx/lib/size\libm.a(lib_a-e_pow.o)

.text._ZN6SdFile4syncEv.part.22
                0x9d017208       0xf4
 .text._ZN6SdFile4syncEv.part.22
                0x9d017208       0xf4 C:\Users\nukem419\AppData\Local\V.Micro\Arduino\Builds\IREC_2017\chipKIT_chipkit_pic32_fubarino_sd\SD\utility\SdFile.cpp.o

.text._ZN7Sd2Card10writeBlockEmPKh
                0x9d0172fc       0xf0
 .text._ZN7Sd2Card10writeBlockEmPKh
                0x9d0172fc       0xf0 C:\Users\nukem419\AppData\Local\V.Micro\Arduino\Builds\IREC_2017\chipKIT_chipkit_pic32_fubarino_sd\SD\utility\Sd2Card.cpp.o
                0x9d0172fc                Sd2Card::writeBlock(unsigned long, unsigned char const*)

.text._ZL17parse_lsda_headerP15_Unwind_ContextPKhP16lsda_header_info
                0x9d0173ec       0xec
 .text._ZL17parse_lsda_headerP15_Unwind_ContextPKhP16lsda_header_info
                0x9d0173ec       0xec c:/users/nukem419/appdata/local/arduino15/packages/chipkit/tools/pic32-tools/1.42-pic32gcc/bin/bin/../../lib/gcc/pic32mx/4.8.3/../../../../pic32mx/lib/size\libsupc++.a(eh_personality.o)

.text.init      0x9d0174d8       0xe8
 .text.init     0x9d0174d8       0xe8 C:\Users\nukem419\AppData\Local\V.Micro\Arduino\Builds\IREC_2017\chipKIT_chipkit_pic32_fubarino_sd/core.a(wiring.c.o)
                0x9d0174d8                init

.text.usb_device_enqueue
                0x9d0175c0       0xe8
 .text.usb_device_enqueue
                0x9d0175c0       0xe8 C:\Users\nukem419\AppData\Local\V.Micro\Arduino\Builds\IREC_2017\chipKIT_chipkit_pic32_fubarino_sd/core.a(HardwareSerial_usb.c.o)
                0x9d0175c0                usb_device_enqueue

.text.usb_initialize
                0x9d0176a8       0xe8
 .text.usb_initialize
                0x9d0176a8       0xe8 C:\Users\nukem419\AppData\Local\V.Micro\Arduino\Builds\IREC_2017\chipKIT_chipkit_pic32_fubarino_sd/core.a(HardwareSerial_usb.c.o)
                0x9d0176a8                usb_initialize

.text           0x9d017790       0xe8
 .text          0x9d017790       0xe8 c:/users/nukem419/appdata/local/arduino15/packages/chipkit/tools/pic32-tools/1.42-pic32gcc/bin/bin/../../lib/gcc/pic32mx/4.8.3/size\libgcc.a(gesf2.o)
                0x9d017790                __gesf2
                0x9d017790                __gtsf2

.text.__b2d     0x9d017878       0xe4
 .text.__b2d    0x9d017878       0xe4 c:/users/nukem419/appdata/local/arduino15/packages/chipkit/tools/pic32-tools/1.42-pic32gcc/bin/bin/../../lib/gcc/pic32mx/4.8.3/../../../../pic32mx/lib/size\libc.a(lib_a-mprec.o)
                0x9d017878                __b2d

.text._ZN7Sd2Card11cardCommandEhm
                0x9d01795c       0xe0
 .text._ZN7Sd2Card11cardCommandEhm
                0x9d01795c       0xe0 C:\Users\nukem419\AppData\Local\V.Micro\Arduino\Builds\IREC_2017\chipKIT_chipkit_pic32_fubarino_sd\SD\utility\Sd2Card.cpp.o
                0x9d01795c                Sd2Card::cardCommand(unsigned char, unsigned long)

.text._ZNK8SdVolume6fatGetEmPm
                0x9d017a3c       0xe0
 .text._ZNK8SdVolume6fatGetEmPm
                0x9d017a3c       0xe0 C:\Users\nukem419\AppData\Local\V.Micro\Arduino\Builds\IREC_2017\chipKIT_chipkit_pic32_fubarino_sd\SD\utility\SdVolume.cpp.o
                0x9d017a3c                SdVolume::fatGet(unsigned long, unsigned long*) const

.text._ZN7TwoWire11requestFromEhh
                0x9d017b1c       0xdc
 .text._ZN7TwoWire11requestFromEhh
                0x9d017b1c       0xdc C:\Users\nukem419\AppData\Local\V.Micro\Arduino\Builds\IREC_2017\chipKIT_chipkit_pic32_fubarino_sd\Wire\Wire.cpp.o
                0x9d017b1c                TwoWire::requestFrom(unsigned char, unsigned char)

.text._ZN6Stream15readStringUntilEc
                0x9d017bf8       0xdc
 .text._ZN6Stream15readStringUntilEc
                0x9d017bf8       0xdc C:\Users\nukem419\AppData\Local\V.Micro\Arduino\Builds\IREC_2017\chipKIT_chipkit_pic32_fubarino_sd/core.a(Stream.cpp.o)
                0x9d017bf8                Stream::readStringUntil(char)

.text._ZN6SdFile10make83NameEPKcPh
                0x9d017cd4       0xd4
 .text._ZN6SdFile10make83NameEPKcPh
                0x9d017cd4       0xd4 C:\Users\nukem419\AppData\Local\V.Micro\Arduino\Builds\IREC_2017\chipKIT_chipkit_pic32_fubarino_sd\SD\utility\SdFile.cpp.o
                0x9d017cd4                SdFile::make83Name(char const*, unsigned char*)

.text._ZN10Parameters12setParameterEPchf
                0x9d017da8       0xd4
 .text._ZN10Parameters12setParameterEPchf
                0x9d017da8       0xd4 C:\Users\nukem419\AppData\Local\V.Micro\Arduino\Builds\IREC_2017\chipKIT_chipkit_pic32_fubarino_sd\Parameters.cpp.o
                0x9d017da8                Parameters::setParameter(char*, unsigned char, float)

.text._ZN4FileC2E6SdFilePKc
                0x9d017e7c       0xd0
 .text._ZN4FileC2E6SdFilePKc
                0x9d017e7c       0xd0 C:\Users\nukem419\AppData\Local\V.Micro\Arduino\Builds\IREC_2017\chipKIT_chipkit_pic32_fubarino_sd\SD\File.cpp.o
                0x9d017e7c                File::File(SdFile, char const*)
                0x9d017e7c                File::File(SdFile, char const*)

.text._ZNK8SdVolume9chainSizeEmPm
                0x9d017f4c       0xd0
 .text._ZNK8SdVolume9chainSizeEmPm
                0x9d017f4c       0xd0 C:\Users\nukem419\AppData\Local\V.Micro\Arduino\Builds\IREC_2017\chipKIT_chipkit_pic32_fubarino_sd\SD\utility\SdVolume.cpp.o
                0x9d017f4c                SdVolume::chainSize(unsigned long, unsigned long*) const

.text.digitalWrite
                0x9d01801c       0xd0
 .text.digitalWrite
                0x9d01801c       0xd0 C:\Users\nukem419\AppData\Local\V.Micro\Arduino\Builds\IREC_2017\chipKIT_chipkit_pic32_fubarino_sd/core.a(wiring_digital.c.o)
                0x9d01801c                digitalWrite

.text._ZN5EM506C2Ev
                0x9d0180ec       0xcc
 .text._ZN5EM506C2Ev
                0x9d0180ec       0xcc C:\Users\nukem419\AppData\Local\V.Micro\Arduino\Builds\IREC_2017\chipKIT_chipkit_pic32_fubarino_sd\EM_506.cpp.o
                0x9d0180ec                EM506::EM506()
                0x9d0180ec                EM506::EM506()

.rodata.__mprec_tens.__mprec_tens
                0x9d0181b8       0xc8
 .rodata.__mprec_tens.__mprec_tens
                0x9d0181b8       0xc8 c:/users/nukem419/appdata/local/arduino15/packages/chipkit/tools/pic32-tools/1.42-pic32gcc/bin/bin/../../lib/gcc/pic32mx/4.8.3/../../../../pic32mx/lib/size\libc.a(lib_a-mprec.o)
                0x9d0181b8                __mprec_tens

.text._ZN6SdFile8openRootEP8SdVolume
                0x9d018280       0xc4
 .text._ZN6SdFile8openRootEP8SdVolume
                0x9d018280       0xc4 C:\Users\nukem419\AppData\Local\V.Micro\Arduino\Builds\IREC_2017\chipKIT_chipkit_pic32_fubarino_sd\SD\utility\SdFile.cpp.o
                0x9d018280                SdFile::openRoot(SdVolume*)

.text._ZN7TwoWire15endTransmissionEh
                0x9d018344       0xc4
 .text._ZN7TwoWire15endTransmissionEh
                0x9d018344       0xc4 C:\Users\nukem419\AppData\Local\V.Micro\Arduino\Builds\IREC_2017\chipKIT_chipkit_pic32_fubarino_sd\Wire\Wire.cpp.o
                0x9d018344                TwoWire::endTransmission(unsigned char)

.text._ZN8SdVolume9freeChainEm
                0x9d018408       0xc0
 .text._ZN8SdVolume9freeChainEm
                0x9d018408       0xc0 C:\Users\nukem419\AppData\Local\V.Micro\Arduino\Builds\IREC_2017\chipKIT_chipkit_pic32_fubarino_sd\SD\utility\SdVolume.cpp.o
                0x9d018408                SdVolume::freeChain(unsigned long)

.text._ZN6SdFile13addDirClusterEv
                0x9d0184c8       0xbc
 .text._ZN6SdFile13addDirClusterEv
                0x9d0184c8       0xbc C:\Users\nukem419\AppData\Local\V.Micro\Arduino\Builds\IREC_2017\chipKIT_chipkit_pic32_fubarino_sd\SD\utility\SdFile.cpp.o
                0x9d0184c8                SdFile::addDirCluster()

.text._ZN6String6concatEPKcj
                0x9d018584       0xbc
 .text._ZN6String6concatEPKcj
                0x9d018584       0xbc C:\Users\nukem419\AppData\Local\V.Micro\Arduino\Builds\IREC_2017\chipKIT_chipkit_pic32_fubarino_sd/core.a(WString.cpp.o)
                0x9d018584                String::concat(char const*, unsigned int)

.text.rshift    0x9d018640       0xbc
 .text.rshift   0x9d018640       0xbc c:/users/nukem419/appdata/local/arduino15/packages/chipkit/tools/pic32-tools/1.42-pic32gcc/bin/bin/../../lib/gcc/pic32mx/4.8.3/../../../../pic32mx/lib/size\libc.a(lib_a-gdtoa-gethex.o)

.text.__lo0bits
                0x9d0186fc       0xbc
 .text.__lo0bits
                0x9d0186fc       0xbc c:/users/nukem419/appdata/local/arduino15/packages/chipkit/tools/pic32-tools/1.42-pic32gcc/bin/bin/../../lib/gcc/pic32mx/4.8.3/../../../../pic32mx/lib/size\libc.a(lib_a-mprec.o)
                0x9d0186fc                __lo0bits

.text._sbrk     0x9d0187b8       0xbc
 .text._sbrk    0x9d0187b8       0xbc c:/users/nukem419/appdata/local/arduino15/packages/chipkit/tools/pic32-tools/1.42-pic32gcc/bin/bin/../../lib/gcc/pic32mx/4.8.3/../../../../pic32mx/lib/size\libpic32.a(sbrk.o)
                0x9d0187b8                _sbrk

.text._ZL5onI2CiPv
                0x9d018874       0xb8
 .text._ZL5onI2CiPv
                0x9d018874       0xb8 C:\Users\nukem419\AppData\Local\V.Micro\Arduino\Builds\IREC_2017\chipKIT_chipkit_pic32_fubarino_sd\Wire\Wire.cpp.o

.text._ZN6BMP1808pullTempEv
                0x9d01892c       0xb4
 .text._ZN6BMP1808pullTempEv
                0x9d01892c       0xb4 C:\Users\nukem419\AppData\Local\V.Micro\Arduino\Builds\IREC_2017\chipKIT_chipkit_pic32_fubarino_sd\BMP180.cpp.o
                0x9d01892c                BMP180::pullTemp()

.text._calloc_r
                0x9d0189e0       0xb4
 .text._calloc_r
                0x9d0189e0       0xb4 c:/users/nukem419/appdata/local/arduino15/packages/chipkit/tools/pic32-tools/1.42-pic32gcc/bin/bin/../../lib/gcc/pic32mx/4.8.3/../../../../pic32mx/lib/size\libc.a(lib_a-callocr.o)
                0x9d0189e0                _calloc_r

.text._ZN7Sd2Card14waitStartBlockEv
                0x9d018a94       0xb0
 .text._ZN7Sd2Card14waitStartBlockEv
                0x9d018a94       0xb0 C:\Users\nukem419\AppData\Local\V.Micro\Arduino\Builds\IREC_2017\chipKIT_chipkit_pic32_fubarino_sd\SD\utility\Sd2Card.cpp.o
                0x9d018a94                Sd2Card::waitStartBlock()

.text._ZN6BMP1809pullBytesEPhhh
                0x9d018b44       0xb0
 .text._ZN6BMP1809pullBytesEPhhh
                0x9d018b44       0xb0 C:\Users\nukem419\AppData\Local\V.Micro\Arduino\Builds\IREC_2017\chipKIT_chipkit_pic32_fubarino_sd\BMP180.cpp.o
                0x9d018b44                BMP180::pullBytes(unsigned char*, unsigned char, unsigned char)

.text._ZN5Print11printNumberEmh
                0x9d018bf4       0xb0
 .text._ZN5Print11printNumberEmh
                0x9d018bf4       0xb0 C:\Users\nukem419\AppData\Local\V.Micro\Arduino\Builds\IREC_2017\chipKIT_chipkit_pic32_fubarino_sd/core.a(Print.cpp.o)
                0x9d018bf4                Print::printNumber(unsigned long, unsigned char)

.text._ZN5Print5printEli
                0x9d018ca4       0xb0
 .text._ZN5Print5printEli
                0x9d018ca4       0xb0 C:\Users\nukem419\AppData\Local\V.Micro\Arduino\Builds\IREC_2017\chipKIT_chipkit_pic32_fubarino_sd/core.a(Print.cpp.o)
                0x9d018ca4                Print::print(long, int)

.text._ZNK6String9substringEjj
                0x9d018d54       0xb0
 .text._ZNK6String9substringEjj
                0x9d018d54       0xb0 C:\Users\nukem419\AppData\Local\V.Micro\Arduino\Builds\IREC_2017\chipKIT_chipkit_pic32_fubarino_sd/core.a(WString.cpp.o)
                0x9d018d54                String::substring(unsigned int, unsigned int) const

.text._ZL15get_ttype_entryP16lsda_header_infom
                0x9d018e04       0xb0
 .text._ZL15get_ttype_entryP16lsda_header_infom
                0x9d018e04       0xb0 c:/users/nukem419/appdata/local/arduino15/packages/chipkit/tools/pic32-tools/1.42-pic32gcc/bin/bin/../../lib/gcc/pic32mx/4.8.3/../../../../pic32mx/lib/size\libsupc++.a(eh_personality.o)

.text           0x9d018eb4       0xb0
 .text          0x9d018eb4       0xb0 c:/users/nukem419/appdata/local/arduino15/packages/chipkit/tools/pic32-tools/1.42-pic32gcc/bin/bin/../../lib/gcc/pic32mx/4.8.3/size\libgcc.a(extendsfdf2.o)
                0x9d018eb4                __extendsfdf2

.text._raise_r  0x9d018f64       0xb0
 .text._raise_r
                0x9d018f64       0xb0 c:/users/nukem419/appdata/local/arduino15/packages/chipkit/tools/pic32-tools/1.42-pic32gcc/bin/bin/../../lib/gcc/pic32mx/4.8.3/../../../../pic32mx/lib/size\libc.a(lib_a-signal.o)
                0x9d018f64                _raise_r

.text._ZN6BMP18012pullAltitudeEv
                0x9d019014       0xac
 .text._ZN6BMP18012pullAltitudeEv
                0x9d019014       0xac C:\Users\nukem419\AppData\Local\V.Micro\Arduino\Builds\IREC_2017\chipKIT_chipkit_pic32_fubarino_sd\BMP180.cpp.o
                0x9d019014                BMP180::pullAltitude()

.text._ZN9MEMS_Gyro9pullBytesEhPhh
                0x9d0190c0       0xac
 .text._ZN9MEMS_Gyro9pullBytesEhPhh
                0x9d0190c0       0xac C:\Users\nukem419\AppData\Local\V.Micro\Arduino\Builds\IREC_2017\chipKIT_chipkit_pic32_fubarino_sd\L3GD20TR.cpp.o
                0x9d0190c0                MEMS_Gyro::pullBytes(unsigned char, unsigned char*, unsigned char)

.text._ZN10MEMS_Accel9pullBytesEhPhh
                0x9d01916c       0xac
 .text._ZN10MEMS_Accel9pullBytesEhPhh
                0x9d01916c       0xac C:\Users\nukem419\AppData\Local\V.Micro\Arduino\Builds\IREC_2017\chipKIT_chipkit_pic32_fubarino_sd\LIS331HH.cpp.o
                0x9d01916c                MEMS_Accel::pullBytes(unsigned char, unsigned char*, unsigned char)

.text._ZN9USBSerial4readEv
                0x9d019218       0xac
 .text._ZN9USBSerial4readEv
                0x9d019218       0xac C:\Users\nukem419\AppData\Local\V.Micro\Arduino\Builds\IREC_2017\chipKIT_chipkit_pic32_fubarino_sd/core.a(HardwareSerial.cpp.o)
                0x9d019218                USBSerial::read()

.text._ZN14HardwareSerial11doSerialIntEv
                0x9d0192c4       0xac
 .text._ZN14HardwareSerial11doSerialIntEv
                0x9d0192c4       0xac C:\Users\nukem419\AppData\Local\V.Micro\Arduino\Builds\IREC_2017\chipKIT_chipkit_pic32_fubarino_sd/core.a(HardwareSerial.cpp.o)
                0x9d0192c4                HardwareSerial::doSerialInt()

.text.__cxa_begin_catch
                0x9d019370       0xac
 .text.__cxa_begin_catch
                0x9d019370       0xac c:/users/nukem419/appdata/local/arduino15/packages/chipkit/tools/pic32-tools/1.42-pic32gcc/bin/bin/../../lib/gcc/pic32mx/4.8.3/../../../../pic32mx/lib/size\libsupc++.a(eh_catch.o)
                0x9d019370                __cxa_begin_catch

.text._Balloc   0x9d01941c       0xac
 .text._Balloc  0x9d01941c       0xac c:/users/nukem419/appdata/local/arduino15/packages/chipkit/tools/pic32-tools/1.42-pic32gcc/bin/bin/../../lib/gcc/pic32mx/4.8.3/../../../../pic32mx/lib/size\libc.a(lib_a-mprec.o)
                0x9d01941c                _Balloc

.text._ZN10ParametersC2Ev
                0x9d0194c8       0xa8
 .text._ZN10ParametersC2Ev
                0x9d0194c8       0xa8 C:\Users\nukem419\AppData\Local\V.Micro\Arduino\Builds\IREC_2017\chipKIT_chipkit_pic32_fubarino_sd\Parameters.cpp.o
                0x9d0194c8                Parameters::Parameters()
                0x9d0194c8                Parameters::Parameters()

.text._ZL21base_of_encoded_valuehP15_Unwind_Context
                0x9d019570       0xa0
 .text._ZL21base_of_encoded_valuehP15_Unwind_Context
                0x9d019570       0xa0 c:/users/nukem419/appdata/local/arduino15/packages/chipkit/tools/pic32-tools/1.42-pic32gcc/bin/bin/../../lib/gcc/pic32mx/4.8.3/../../../../pic32mx/lib/size\libsupc++.a(eh_personality.o)

.text._ZN8SdVolume10cacheFlushEv
                0x9d019610       0x9c
 .text._ZN8SdVolume10cacheFlushEv
                0x9d019610       0x9c C:\Users\nukem419\AppData\Local\V.Micro\Arduino\Builds\IREC_2017\chipKIT_chipkit_pic32_fubarino_sd\SD\utility\SdVolume.cpp.o
                0x9d019610                SdVolume::cacheFlush()

.text.cdcacm_command_ack
                0x9d0196ac       0x9c
 .text.cdcacm_command_ack
                0x9d0196ac       0x9c C:\Users\nukem419\AppData\Local\V.Micro\Arduino\Builds\IREC_2017\chipKIT_chipkit_pic32_fubarino_sd/core.a(HardwareSerial_cdcacm.c.o)
                0x9d0196ac                cdcacm_command_ack

.text._ZN7SDClass5beginEh
                0x9d019748       0x98
 .text._ZN7SDClass5beginEh
                0x9d019748       0x98 C:\Users\nukem419\AppData\Local\V.Micro\Arduino\Builds\IREC_2017\chipKIT_chipkit_pic32_fubarino_sd\SD\SD.cpp.o
                0x9d019748                SDClass::begin(unsigned char)

.text.setup     0x9d0197e0       0x98
 .text.setup    0x9d0197e0       0x98 C:\Users\nukem419\AppData\Local\V.Micro\Arduino\Builds\IREC_2017\chipKIT_chipkit_pic32_fubarino_sd\IREC_2017.cpp.o
                0x9d0197e0                setup

.text._ZN14HardwareSerialC2EP8p32_uartiiiiPFvvE
                0x9d019878       0x98
 .text._ZN14HardwareSerialC2EP8p32_uartiiiiPFvvE
                0x9d019878       0x98 C:\Users\nukem419\AppData\Local\V.Micro\Arduino\Builds\IREC_2017\chipKIT_chipkit_pic32_fubarino_sd/core.a(HardwareSerial.cpp.o)
                0x9d019878                HardwareSerial::HardwareSerial(p32_uart*, int, int, int, int, void (*)())
                0x9d019878                HardwareSerial::HardwareSerial(p32_uart*, int, int, int, int, void (*)())

.text._Z20getNextPathComponentPcPjS_
                0x9d019910       0x94
 .text._Z20getNextPathComponentPcPjS_
                0x9d019910       0x94 C:\Users\nukem419\AppData\Local\V.Micro\Arduino\Builds\IREC_2017\chipKIT_chipkit_pic32_fubarino_sd\SD\SD.cpp.o
                0x9d019910                getNextPathComponent(char*, unsigned int*, char*)

.text._ZN6StringC2Ehh
                0x9d0199a4       0x94
 .text._ZN6StringC2Ehh
                0x9d0199a4       0x94 C:\Users\nukem419\AppData\Local\V.Micro\Arduino\Builds\IREC_2017\chipKIT_chipkit_pic32_fubarino_sd/core.a(WString.cpp.o)
                0x9d0199a4                String::String(unsigned char, unsigned char)
                0x9d0199a4                String::String(unsigned char, unsigned char)

.text.cdcacm_register
                0x9d019a38       0x94
 .text.cdcacm_register
                0x9d019a38       0x94 C:\Users\nukem419\AppData\Local\V.Micro\Arduino\Builds\IREC_2017\chipKIT_chipkit_pic32_fubarino_sd/core.a(HardwareSerial_cdcacm.c.o)
                0x9d019a38                cdcacm_register

.text._ZNK10__cxxabiv117__class_type_info12__do_dyncastElNS0_10__sub_kindEPKS0_PKvS3_S5_RNS0_16__dyncast_resultE
                0x9d019acc       0x94
 .text._ZNK10__cxxabiv117__class_type_info12__do_dyncastElNS0_10__sub_kindEPKS0_PKvS3_S5_RNS0_16__dyncast_resultE
                0x9d019acc       0x94 c:/users/nukem419/appdata/local/arduino15/packages/chipkit/tools/pic32-tools/1.42-pic32gcc/bin/bin/../../lib/gcc/pic32mx/4.8.3/../../../../pic32mx/lib/size\libsupc++.a(class_type_info.o)
                0x9d019acc                __cxxabiv1::__class_type_info::__do_dyncast(long, __cxxabiv1::__class_type_info::__sub_kind, __cxxabiv1::__class_type_info const*, void const*, __cxxabiv1::__class_type_info const*, void const*, __cxxabiv1::__class_type_info::__dyncast_result&) const

.text._ZN10MEMS_Accel8runAccelEv
                0x9d019b60       0x90
 .text._ZN10MEMS_Accel8runAccelEv
                0x9d019b60       0x90 C:\Users\nukem419\AppData\Local\V.Micro\Arduino\Builds\IREC_2017\chipKIT_chipkit_pic32_fubarino_sd\LIS331HH.cpp.o
                0x9d019b60                MEMS_Accel::runAccel()

.text._ZN6String4copyEPKcj
                0x9d019bf0       0x90
 .text._ZN6String4copyEPKcj
                0x9d019bf0       0x90 C:\Users\nukem419\AppData\Local\V.Micro\Arduino\Builds\IREC_2017\chipKIT_chipkit_pic32_fubarino_sd/core.a(WString.cpp.o)
                0x9d019bf0                String::copy(char const*, unsigned int)

.text.__ratio   0x9d019c80       0x90
 .text.__ratio  0x9d019c80       0x90 c:/users/nukem419/appdata/local/arduino15/packages/chipkit/tools/pic32-tools/1.42-pic32gcc/bin/bin/../../lib/gcc/pic32mx/4.8.3/../../../../pic32mx/lib/size\libc.a(lib_a-mprec.o)
                0x9d019c80                __ratio

.text._ZL16get_adjusted_ptrPKSt9type_infoS1_PPv
                0x9d019d10       0x8c
 .text._ZL16get_adjusted_ptrPKSt9type_infoS1_PPv
                0x9d019d10       0x8c c:/users/nukem419/appdata/local/arduino15/packages/chipkit/tools/pic32-tools/1.42-pic32gcc/bin/bin/../../lib/gcc/pic32mx/4.8.3/../../../../pic32mx/lib/size\libsupc++.a(eh_personality.o)

.text._ZN4File4peekEv
                0x9d019d9c       0x88
 .text._ZN4File4peekEv
                0x9d019d9c       0x88 C:\Users\nukem419\AppData\Local\V.Micro\Arduino\Builds\IREC_2017\chipKIT_chipkit_pic32_fubarino_sd\SD\File.cpp.o
                0x9d019d9c                File::peek()

.text._Z6spiRecv
                0x9d019e24       0x88
 .text._Z6spiRecv
                0x9d019e24       0x88 C:\Users\nukem419\AppData\Local\V.Micro\Arduino\Builds\IREC_2017\chipKIT_chipkit_pic32_fubarino_sd\SD\utility\Sd2Card.cpp.o
                0x9d019e24                spiRec()

.text._Z7spiSendh
                0x9d019eac       0x88
 .text._Z7spiSendh
                0x9d019eac       0x88 C:\Users\nukem419\AppData\Local\V.Micro\Arduino\Builds\IREC_2017\chipKIT_chipkit_pic32_fubarino_sd\SD\utility\Sd2Card.cpp.o
                0x9d019eac                spiSend(unsigned char)

.text._ZN7Sd2Card9writeDataEhPKh
                0x9d019f34       0x88
 .text._ZN7Sd2Card9writeDataEhPKh
                0x9d019f34       0x88 C:\Users\nukem419\AppData\Local\V.Micro\Arduino\Builds\IREC_2017\chipKIT_chipkit_pic32_fubarino_sd\SD\utility\Sd2Card.cpp.o
                0x9d019f34                Sd2Card::writeData(unsigned char, unsigned char const*)

.text._ZN8SdVolume13cacheRawBlockEmh
                0x9d019fbc       0x88
 .text._ZN8SdVolume13cacheRawBlockEmh
                0x9d019fbc       0x88 C:\Users\nukem419\AppData\Local\V.Micro\Arduino\Builds\IREC_2017\chipKIT_chipkit_pic32_fubarino_sd\SD\utility\SdVolume.cpp.o
                0x9d019fbc                SdVolume::cacheRawBlock(unsigned long, unsigned char)

.text._ZN7TwoWire17beginTransmissionEh
                0x9d01a044       0x88
 .text._ZN7TwoWire17beginTransmissionEh
                0x9d01a044       0x88 C:\Users\nukem419\AppData\Local\V.Micro\Arduino\Builds\IREC_2017\chipKIT_chipkit_pic32_fubarino_sd\Wire\Wire.cpp.o
                0x9d01a044                TwoWire::beginTransmission(unsigned char)

.text._configSystem
                0x9d01a0cc       0x88
 .text._configSystem
                0x9d01a0cc       0x88 C:\Users\nukem419\AppData\Local\V.Micro\Arduino\Builds\IREC_2017\chipKIT_chipkit_pic32_fubarino_sd/core.a(WSystem.c.o)
                0x9d01a0cc                _configSystem

.text.__any_on  0x9d01a154       0x88
 .text.__any_on
                0x9d01a154       0x88 c:/users/nukem419/appdata/local/arduino15/packages/chipkit/tools/pic32-tools/1.42-pic32gcc/bin/bin/../../lib/gcc/pic32mx/4.8.3/../../../../pic32mx/lib/size\libc.a(lib_a-mprec.o)
                0x9d01a154                __any_on

.text._ZN7Sd2Card11waitNotBusyEt
                0x9d01a1dc       0x84
 .text._ZN7Sd2Card11waitNotBusyEt
                0x9d01a1dc       0x84 C:\Users\nukem419\AppData\Local\V.Micro\Arduino\Builds\IREC_2017\chipKIT_chipkit_pic32_fubarino_sd\SD\utility\Sd2Card.cpp.o
                0x9d01a1dc                Sd2Card::waitNotBusy(unsigned short)

.text.itoa      0x9d01a260       0x84
 .text.itoa     0x9d01a260       0x84 C:\Users\nukem419\AppData\Local\V.Micro\Arduino\Builds\IREC_2017\chipKIT_chipkit_pic32_fubarino_sd/core.a(WString.cpp.o)

.text._ZN6SdFile12readDirCacheEv
                0x9d01a2e4       0x80
 .text._ZN6SdFile12readDirCacheEv
                0x9d01a2e4       0x80 C:\Users\nukem419\AppData\Local\V.Micro\Arduino\Builds\IREC_2017\chipKIT_chipkit_pic32_fubarino_sd\SD\utility\SdFile.cpp.o
                0x9d01a2e4                SdFile::readDirCache()

.text._ZN4DTWI14forceIdleStateEv
                0x9d01a364       0x80
 .text._ZN4DTWI14forceIdleStateEv
                0x9d01a364       0x80 C:\Users\nukem419\AppData\Local\V.Micro\Arduino\Builds\IREC_2017\chipKIT_chipkit_pic32_fubarino_sd\Wire\Wire.cpp.o
                0x9d01a364                DTWI::forceIdleState()

.text.micros    0x9d01a3e4       0x80
 .text.micros   0x9d01a3e4       0x80 C:\Users\nukem419\AppData\Local\V.Micro\Arduino\Builds\IREC_2017\chipKIT_chipkit_pic32_fubarino_sd/core.a(wiring.c.o)
                0x9d01a3e4                micros

.text           0x9d01a464       0x80
 .text          0x9d01a464       0x80 c:/users/nukem419/appdata/local/arduino15/packages/chipkit/tools/pic32-tools/1.42-pic32gcc/bin/bin/../../lib/gcc/pic32mx/4.8.3/size\libgcc.a(eqdf2.o)
                0x9d01a464                __eqdf2
                0x9d01a464                __nedf2

.text._ZN4DTWI16primeMasterSlaveEv
                0x9d01a4e4       0x7c
 .text._ZN4DTWI16primeMasterSlaveEv
                0x9d01a4e4       0x7c C:\Users\nukem419\AppData\Local\V.Micro\Arduino\Builds\IREC_2017\chipKIT_chipkit_pic32_fubarino_sd\Wire\Wire.cpp.o
                0x9d01a4e4                DTWI::primeMasterSlave()

.text._ZN5EM5068checksumEP6String
                0x9d01a560       0x7c
 .text._ZN5EM5068checksumEP6String
                0x9d01a560       0x7c C:\Users\nukem419\AppData\Local\V.Micro\Arduino\Builds\IREC_2017\chipKIT_chipkit_pic32_fubarino_sd\EM_506.cpp.o
                0x9d01a560                EM506::checksum(String*)

.text.digitalRead
                0x9d01a5dc       0x7c
 .text.digitalRead
                0x9d01a5dc       0x7c C:\Users\nukem419\AppData\Local\V.Micro\Arduino\Builds\IREC_2017\chipKIT_chipkit_pic32_fubarino_sd/core.a(wiring_digital.c.o)
                0x9d01a5dc                digitalRead

.text.initIntVector
                0x9d01a658       0x7c
 .text.initIntVector
                0x9d01a658       0x7c C:\Users\nukem419\AppData\Local\V.Micro\Arduino\Builds\IREC_2017\chipKIT_chipkit_pic32_fubarino_sd/core.a(WSystem.c.o)
                0x9d01a658                initIntVector

.text._ZNK10__cxxabiv117__class_type_info10__do_catchEPKSt9type_infoPPvj
                0x9d01a6d4       0x7c
 .text._ZNK10__cxxabiv117__class_type_info10__do_catchEPKSt9type_infoPPvj
                0x9d01a6d4       0x7c c:/users/nukem419/appdata/local/arduino15/packages/chipkit/tools/pic32-tools/1.42-pic32gcc/bin/bin/../../lib/gcc/pic32mx/4.8.3/../../../../pic32mx/lib/size\libsupc++.a(class_type_info.o)
                0x9d01a6d4                __cxxabiv1::__class_type_info::__do_catch(std::type_info const*, void**, unsigned int) const

.text._ZNK10__cxxabiv120__si_class_type_info20__do_find_public_srcElPKvPKNS_17__class_type_infoES2_
                0x9d01a750       0x7c
 .text._ZNK10__cxxabiv120__si_class_type_info20__do_find_public_srcElPKvPKNS_17__class_type_infoES2_
                0x9d01a750       0x7c c:/users/nukem419/appdata/local/arduino15/packages/chipkit/tools/pic32-tools/1.42-pic32gcc/bin/bin/../../lib/gcc/pic32mx/4.8.3/../../../../pic32mx/lib/size\libsupc++.a(si_class_type_info.o)
                0x9d01a750                __cxxabiv1::__si_class_type_info::__do_find_public_src(long, void const*, __cxxabiv1::__class_type_info const*, void const*) const

.text._ZN5Print5writeEPKhm
                0x9d01a7cc       0x78
 .text._ZN5Print5writeEPKhm
                0x9d01a7cc       0x78 C:\Users\nukem419\AppData\Local\V.Micro\Arduino\Builds\IREC_2017\chipKIT_chipkit_pic32_fubarino_sd/core.a(Print.cpp.o)
                0x9d01a7cc                Print::write(unsigned char const*, unsigned long)

.text._ZN6StringaSEPKc
                0x9d01a844       0x78
 .text._ZN6StringaSEPKc
                0x9d01a844       0x78 C:\Users\nukem419\AppData\Local\V.Micro\Arduino\Builds\IREC_2017\chipKIT_chipkit_pic32_fubarino_sd/core.a(WString.cpp.o)
                0x9d01a844                String::operator=(char const*)

.text._ZN6String6removeEjj
                0x9d01a8bc       0x78
 .text._ZN6String6removeEjj
                0x9d01a8bc       0x78 C:\Users\nukem419\AppData\Local\V.Micro\Arduino\Builds\IREC_2017\chipKIT_chipkit_pic32_fubarino_sd/core.a(WString.cpp.o)
                0x9d01a8bc                String::remove(unsigned int, unsigned int)

.text.cdcacm_reset
                0x9d01a934       0x78
 .text.cdcacm_reset
                0x9d01a934       0x78 C:\Users\nukem419\AppData\Local\V.Micro\Arduino\Builds\IREC_2017\chipKIT_chipkit_pic32_fubarino_sd/core.a(HardwareSerial_cdcacm.c.o)

.text           0x9d01a9ac       0xf0
 .text          0x9d01a9ac       0x78 c:/users/nukem419/appdata/local/arduino15/packages/chipkit/tools/pic32-tools/1.42-pic32gcc/bin/bin/../../lib/gcc/pic32mx/4.8.3/size\libgcc.a(fixunssfdi.o)
                0x9d01a9ac                __fixunssfdi
 .text          0x9d01aa24       0x78 c:/users/nukem419/appdata/local/arduino15/packages/chipkit/tools/pic32-tools/1.42-pic32gcc/bin/bin/../../lib/gcc/pic32mx/4.8.3/size\libgcc.a(fixdfsi.o)
                0x9d01aa24                __fixdfsi

.text.memmove   0x9d01aa9c       0x78
 .text.memmove  0x9d01aa9c       0x78 c:/users/nukem419/appdata/local/arduino15/packages/chipkit/tools/pic32-tools/1.42-pic32gcc/bin/bin/../../lib/gcc/pic32mx/4.8.3/../../../../pic32mx/lib/size\libc.a(lib_a-memmove.o)
                0x9d01aa9c                memmove

.text._ZN6SdFile6removeEv
                0x9d01ab14       0x74
 .text._ZN6SdFile6removeEv
                0x9d01ab14       0x74 C:\Users\nukem419\AppData\Local\V.Micro\Arduino\Builds\IREC_2017\chipKIT_chipkit_pic32_fubarino_sd\SD\utility\SdFile.cpp.o
                0x9d01ab14                SdFile::remove()

.text._ZN6Stream9readBytesEPcm
                0x9d01ab88       0x74
 .text._ZN6Stream9readBytesEPcm
                0x9d01ab88       0x74 C:\Users\nukem419\AppData\Local\V.Micro\Arduino\Builds\IREC_2017\chipKIT_chipkit_pic32_fubarino_sd/core.a(Stream.cpp.o)
                0x9d01ab88                Stream::readBytes(char*, unsigned long)

.text._ZNK10__cxxabiv120__si_class_type_info11__do_upcastEPKNS_17__class_type_infoEPKvRNS1_15__upcast_resultE
                0x9d01abfc       0x74
 .text._ZNK10__cxxabiv120__si_class_type_info11__do_upcastEPKNS_17__class_type_infoEPKvRNS1_15__upcast_resultE
                0x9d01abfc       0x74 c:/users/nukem419/appdata/local/arduino15/packages/chipkit/tools/pic32-tools/1.42-pic32gcc/bin/bin/../../lib/gcc/pic32mx/4.8.3/../../../../pic32mx/lib/size\libsupc++.a(si_class_type_info.o)
                0x9d01abfc                __cxxabiv1::__si_class_type_info::__do_upcast(__cxxabiv1::__class_type_info const*, void const*, __cxxabiv1::__class_type_info::__upcast_result&) const

.text           0x9d01ac70       0x74
 .text          0x9d01ac70       0x74 c:/users/nukem419/appdata/local/arduino15/packages/chipkit/tools/pic32-tools/1.42-pic32gcc/bin/bin/../../lib/gcc/pic32mx/4.8.3/size\libgcc.a(floatsidf.o)
                0x9d01ac70                __floatsidf

.text.__hi0bits
                0x9d01ace4       0x74
 .text.__hi0bits
                0x9d01ace4       0x74 c:/users/nukem419/appdata/local/arduino15/packages/chipkit/tools/pic32-tools/1.42-pic32gcc/bin/bin/../../lib/gcc/pic32mx/4.8.3/../../../../pic32mx/lib/size\libc.a(lib_a-mprec.o)
                0x9d01ace4                __hi0bits

.text._ZN6Stream9timedReadEv
                0x9d01ad58       0x70
 .text._ZN6Stream9timedReadEv
                0x9d01ad58       0x70 C:\Users\nukem419\AppData\Local\V.Micro\Arduino\Builds\IREC_2017\chipKIT_chipkit_pic32_fubarino_sd/core.a(Stream.cpp.o)
                0x9d01ad58                Stream::timedRead()

.text._ZN6StringaSERKS_
                0x9d01adc8       0x70
 .text._ZN6StringaSERKS_
                0x9d01adc8       0x70 C:\Users\nukem419\AppData\Local\V.Micro\Arduino\Builds\IREC_2017\chipKIT_chipkit_pic32_fubarino_sd/core.a(WString.cpp.o)
                0x9d01adc8                String::operator=(String const&)

.text._updateTaskEvent
                0x9d01ae38       0x6c
 .text._updateTaskEvent
                0x9d01ae38       0x6c C:\Users\nukem419\AppData\Local\V.Micro\Arduino\Builds\IREC_2017\chipKIT_chipkit_pic32_fubarino_sd/core.a(task_manager.c.o)
                0x9d01ae38                _updateTaskEvent

.text.destroyTask
                0x9d01aea4       0x6c
 .text.destroyTask
                0x9d01aea4       0x6c C:\Users\nukem419\AppData\Local\V.Micro\Arduino\Builds\IREC_2017\chipKIT_chipkit_pic32_fubarino_sd/core.a(task_manager.c.o)
                0x9d01aea4                destroyTask

.text._ZN6String7reserveEj
                0x9d01af10       0x6c
 .text._ZN6String7reserveEj
                0x9d01af10       0x6c C:\Users\nukem419\AppData\Local\V.Micro\Arduino\Builds\IREC_2017\chipKIT_chipkit_pic32_fubarino_sd/core.a(WString.cpp.o)
                0x9d01af10                String::reserve(unsigned int)

.text           0x9d01af7c       0x6c
 .text          0x9d01af7c       0x6c c:/users/nukem419/appdata/local/arduino15/packages/chipkit/tools/pic32-tools/1.42-pic32gcc/bin/bin/../../lib/gcc/pic32mx/4.8.3/size\libgcc.a(fixunsdfsi.o)
                0x9d01af7c                __fixunsdfsi

.text._ZNK10__cxxabiv117__class_type_info11__do_upcastEPKS0_PPv
                0x9d01afe8       0x68
 .text._ZNK10__cxxabiv117__class_type_info11__do_upcastEPKS0_PPv
                0x9d01afe8       0x68 c:/users/nukem419/appdata/local/arduino15/packages/chipkit/tools/pic32-tools/1.42-pic32gcc/bin/bin/../../lib/gcc/pic32mx/4.8.3/../../../../pic32mx/lib/size\libsupc++.a(class_type_info.o)
                0x9d01afe8                __cxxabiv1::__class_type_info::__do_upcast(__cxxabiv1::__class_type_info const*, void**) const

.text._Znwm     0x9d01b050       0x68
 .text._Znwm    0x9d01b050       0x68 c:/users/nukem419/appdata/local/arduino15/packages/chipkit/tools/pic32-tools/1.42-pic32gcc/bin/bin/../../lib/gcc/pic32mx/4.8.3/../../../../pic32mx/lib/size\libsupc++.a(new_op.o)
                0x9d01b050                operator new(unsigned long)

.text           0x9d01b0b8       0xd0
 .text          0x9d01b0b8       0x68 c:/users/nukem419/appdata/local/arduino15/packages/chipkit/tools/pic32-tools/1.42-pic32gcc/bin/bin/../../lib/gcc/pic32mx/4.8.3/size\libgcc.a(eqsf2.o)
                0x9d01b0b8                __nesf2
                0x9d01b0b8                __eqsf2
 .text          0x9d01b120       0x68 c:/users/nukem419/appdata/local/arduino15/packages/chipkit/tools/pic32-tools/1.42-pic32gcc/bin/bin/../../lib/gcc/pic32mx/4.8.3/size\libgcc.a(fixsfsi.o)
                0x9d01b120                __fixsfsi

.text._ZN6BMP1809pushBytesEhhh
                0x9d01b188       0x64
 .text._ZN6BMP1809pushBytesEhhh
                0x9d01b188       0x64 C:\Users\nukem419\AppData\Local\V.Micro\Arduino\Builds\IREC_2017\chipKIT_chipkit_pic32_fubarino_sd\BMP180.cpp.o
                0x9d01b188                BMP180::pushBytes(unsigned char, unsigned char, unsigned char)

.text._ZN9MEMS_Gyro9pushBytesEhPhh
                0x9d01b1ec       0x64
 .text._ZN9MEMS_Gyro9pushBytesEhPhh
                0x9d01b1ec       0x64 C:\Users\nukem419\AppData\Local\V.Micro\Arduino\Builds\IREC_2017\chipKIT_chipkit_pic32_fubarino_sd\L3GD20TR.cpp.o
                0x9d01b1ec                MEMS_Gyro::pushBytes(unsigned char, unsigned char*, unsigned char)

.text._ZN10MEMS_Accel9pushBytesEhPhh
                0x9d01b250       0x64
 .text._ZN10MEMS_Accel9pushBytesEhPhh
                0x9d01b250       0x64 C:\Users\nukem419\AppData\Local\V.Micro\Arduino\Builds\IREC_2017\chipKIT_chipkit_pic32_fubarino_sd\LIS331HH.cpp.o
                0x9d01b250                MEMS_Accel::pushBytes(unsigned char, unsigned char*, unsigned char)

.text.__cxa_call_terminate
                0x9d01b2b4       0x64
 .text.__cxa_call_terminate
                0x9d01b2b4       0x64 c:/users/nukem419/appdata/local/arduino15/packages/chipkit/tools/pic32-tools/1.42-pic32gcc/bin/bin/../../lib/gcc/pic32mx/4.8.3/../../../../pic32mx/lib/size\libsupc++.a(eh_call.o)
                0x9d01b2b4                __cxa_call_terminate

.text.__fpclassifyd
                0x9d01b318       0x64
 .text.__fpclassifyd
                0x9d01b318       0x64 c:/users/nukem419/appdata/local/arduino15/packages/chipkit/tools/pic32-tools/1.42-pic32gcc/bin/bin/../../lib/gcc/pic32mx/4.8.3/../../../../pic32mx/lib/size\libm.a(lib_a-s_fpclassify.o)
                0x9d01b318                __fpclassifyd

.text.strcmp    0x9d01b37c       0x64
 .text.strcmp   0x9d01b37c       0x64 c:/users/nukem419/appdata/local/arduino15/packages/chipkit/tools/pic32-tools/1.42-pic32gcc/bin/bin/../../lib/gcc/pic32mx/4.8.3/../../../../pic32mx/lib/size\libc.a(lib_a-strcmp.o)
                0x9d01b37c                strcmp

.text.__mcmp    0x9d01b3e0       0x64
 .text.__mcmp   0x9d01b3e0       0x64 c:/users/nukem419/appdata/local/arduino15/packages/chipkit/tools/pic32-tools/1.42-pic32gcc/bin/bin/../../lib/gcc/pic32mx/4.8.3/../../../../pic32mx/lib/size\libc.a(lib_a-mprec.o)
                0x9d01b3e0                __mcmp

.text._ZN6SdFile10addClusterEv
                0x9d01b444       0x60
 .text._ZN6SdFile10addClusterEv
                0x9d01b444       0x60 C:\Users\nukem419\AppData\Local\V.Micro\Arduino\Builds\IREC_2017\chipKIT_chipkit_pic32_fubarino_sd\SD\utility\SdFile.cpp.o
                0x9d01b444                SdFile::addCluster()

.text._ZN8SdVolume14cacheZeroBlockEm
                0x9d01b4a4       0x60
 .text._ZN8SdVolume14cacheZeroBlockEm
                0x9d01b4a4       0x60 C:\Users\nukem419\AppData\Local\V.Micro\Arduino\Builds\IREC_2017\chipKIT_chipkit_pic32_fubarino_sd\SD\utility\SdVolume.cpp.o
                0x9d01b4a4                SdVolume::cacheZeroBlock(unsigned long)

.text._ZN5DTWI0C2Ev
                0x9d01b504       0x60
 .text._ZN5DTWI0C2Ev
                0x9d01b504       0x60 C:\Users\nukem419\AppData\Local\V.Micro\Arduino\Builds\IREC_2017\chipKIT_chipkit_pic32_fubarino_sd\Wire\Wire.cpp.o
                0x9d01b504                DTWI0::DTWI0()
                0x9d01b504                DTWI0::DTWI0()

.rodata         0x9d01b568       0x60
 .rodata        0x9d01b568       0x60 C:\Users\nukem419\AppData\Local\V.Micro\Arduino\Builds\IREC_2017\chipKIT_chipkit_pic32_fubarino_sd\EM_506.cpp.o

.text._ZplRK15StringSumHelperc
                0x9d01b5c8       0x60
 .text._ZplRK15StringSumHelperc
                0x9d01b5c8       0x60 C:\Users\nukem419\AppData\Local\V.Micro\Arduino\Builds\IREC_2017\chipKIT_chipkit_pic32_fubarino_sd/core.a(WString.cpp.o)
                0x9d01b5c8                operator+(StringSumHelper const&, char)

.text.turnOffPWM
                0x9d01b628       0x60
 .text.turnOffPWM
                0x9d01b628       0x60 C:\Users\nukem419\AppData\Local\V.Micro\Arduino\Builds\IREC_2017\chipKIT_chipkit_pic32_fubarino_sd/core.a(wiring_analog.c.o)
                0x9d01b628                turnOffPWM

.text.__ulp     0x9d01b688       0x60
 .text.__ulp    0x9d01b688       0x60 c:/users/nukem419/appdata/local/arduino15/packages/chipkit/tools/pic32-tools/1.42-pic32gcc/bin/bin/../../lib/gcc/pic32mx/4.8.3/../../../../pic32mx/lib/size\libc.a(lib_a-mprec.o)
                0x9d01b688                __ulp

.text.setIntPriority
                0x9d01b6e8       0x5c
 .text.setIntPriority
                0x9d01b6e8       0x5c C:\Users\nukem419\AppData\Local\V.Micro\Arduino\Builds\IREC_2017\chipKIT_chipkit_pic32_fubarino_sd/core.a(WSystem.c.o)
                0x9d01b6e8                setIntPriority

.text._ZN6StringC2EPKc
                0x9d01b744       0x5c
 .text._ZN6StringC2EPKc
                0x9d01b744       0x5c C:\Users\nukem419\AppData\Local\V.Micro\Arduino\Builds\IREC_2017\chipKIT_chipkit_pic32_fubarino_sd/core.a(WString.cpp.o)
                0x9d01b744                String::String(char const*)
                0x9d01b744                String::String(char const*)

.text._ZplRK15StringSumHelperRK6String
                0x9d01b7a0       0x5c
 .text._ZplRK15StringSumHelperRK6String
                0x9d01b7a0       0x5c C:\Users\nukem419\AppData\Local\V.Micro\Arduino\Builds\IREC_2017\chipKIT_chipkit_pic32_fubarino_sd/core.a(WString.cpp.o)
                0x9d01b7a0                operator+(StringSumHelper const&, String const&)

.rodata.digital_pin_to_timer_PGM.digital_pin_to_timer_PGM
                0x9d01b7fc       0x5c
 .rodata.digital_pin_to_timer_PGM.digital_pin_to_timer_PGM
                0x9d01b7fc       0x5c C:\Users\nukem419\AppData\Local\V.Micro\Arduino\Builds\IREC_2017\chipKIT_chipkit_pic32_fubarino_sd/core.a(pins_arduino.c.o)
                0x9d01b7fc                digital_pin_to_timer_PGM

.rodata.digital_pin_to_bit_mask_PGM.digital_pin_to_bit_mask_PGM
                0x9d01b858       0x5c
 .rodata.digital_pin_to_bit_mask_PGM.digital_pin_to_bit_mask_PGM
                0x9d01b858       0x5c C:\Users\nukem419\AppData\Local\V.Micro\Arduino\Builds\IREC_2017\chipKIT_chipkit_pic32_fubarino_sd/core.a(pins_arduino.c.o)
                0x9d01b858                digital_pin_to_bit_mask_PGM

.text._ZNK10__cxxabiv117__class_type_info11__do_upcastEPKS0_PKvRNS0_15__upcast_resultE
                0x9d01b8b4       0x5c
 .text._ZNK10__cxxabiv117__class_type_info11__do_upcastEPKS0_PKvRNS0_15__upcast_resultE
                0x9d01b8b4       0x5c c:/users/nukem419/appdata/local/arduino15/packages/chipkit/tools/pic32-tools/1.42-pic32gcc/bin/bin/../../lib/gcc/pic32mx/4.8.3/../../../../pic32mx/lib/size\libsupc++.a(class_type_info.o)
                0x9d01b8b4                __cxxabiv1::__class_type_info::__do_upcast(__cxxabiv1::__class_type_info const*, void const*, __cxxabiv1::__class_type_info::__upcast_result&) const

.text           0x9d01b910       0x5c
 .text          0x9d01b910       0x5c c:/users/nukem419/appdata/local/arduino15/packages/chipkit/tools/pic32-tools/1.42-pic32gcc/bin/bin/../../lib/gcc/pic32mx/4.8.3/size\libgcc.a(fixunssfsi.o)
                0x9d01b910                __fixunssfsi

.text.__copybits
                0x9d01b96c       0x5c
 .text.__copybits
                0x9d01b96c       0x5c c:/users/nukem419/appdata/local/arduino15/packages/chipkit/tools/pic32-tools/1.42-pic32gcc/bin/bin/../../lib/gcc/pic32mx/4.8.3/../../../../pic32mx/lib/size\libc.a(lib_a-mprec.o)
                0x9d01b96c                __copybits

.text._ZN10ParametersD2Ev
                0x9d01b9c8       0x58
 .text._ZN10ParametersD2Ev
                0x9d01b9c8       0x58 C:\Users\nukem419\AppData\Local\V.Micro\Arduino\Builds\IREC_2017\chipKIT_chipkit_pic32_fubarino_sd\Parameters.cpp.o
                0x9d01b9c8                Parameters::~Parameters()
                0x9d01b9c8                Parameters::~Parameters()

.text.delay     0x9d01ba20       0x58
 .text.delay    0x9d01ba20       0x58 C:\Users\nukem419\AppData\Local\V.Micro\Arduino\Builds\IREC_2017\chipKIT_chipkit_pic32_fubarino_sd/core.a(wiring.c.o)
                0x9d01ba20                delay

.text._ZN7TwoWire5beginEv
                0x9d01ba78       0x54
 .text._ZN7TwoWire5beginEv
                0x9d01ba78       0x54 C:\Users\nukem419\AppData\Local\V.Micro\Arduino\Builds\IREC_2017\chipKIT_chipkit_pic32_fubarino_sd\Wire\Wire.cpp.o
                0x9d01ba78                TwoWire::begin()

.text._ZN9USBSerial5writeEPKc
                0x9d01bacc       0x54
 .text._ZN9USBSerial5writeEPKc
                0x9d01bacc       0x54 C:\Users\nukem419\AppData\Local\V.Micro\Arduino\Builds\IREC_2017\chipKIT_chipkit_pic32_fubarino_sd/core.a(HardwareSerial.cpp.o)
                0x9d01bacc                USBSerial::write(char const*)

.text._ZplRK15StringSumHelperh
                0x9d01bb20       0x54
 .text._ZplRK15StringSumHelperh
                0x9d01bb20       0x54 C:\Users\nukem419\AppData\Local\V.Micro\Arduino\Builds\IREC_2017\chipKIT_chipkit_pic32_fubarino_sd/core.a(WString.cpp.o)
                0x9d01bb20                operator+(StringSumHelper const&, unsigned char)

.text._ZNK6String7indexOfEcj
                0x9d01bb74       0x54
 .text._ZNK6String7indexOfEcj
                0x9d01bb74       0x54 C:\Users\nukem419\AppData\Local\V.Micro\Arduino\Builds\IREC_2017\chipKIT_chipkit_pic32_fubarino_sd/core.a(WString.cpp.o)
                0x9d01bb74                String::indexOf(char, unsigned int) const

.text._kill_r   0x9d01bbc8       0x54
 .text._kill_r  0x9d01bbc8       0x54 c:/users/nukem419/appdata/local/arduino15/packages/chipkit/tools/pic32-tools/1.42-pic32gcc/bin/bin/../../lib/gcc/pic32mx/4.8.3/../../../../pic32mx/lib/size\libc.a(lib_a-signalr.o)
                0x9d01bbc8                _kill_r

.text._ZN7Sd2Card7readEndEv.part.3
                0x9d01bc1c       0x50
 .text._ZN7Sd2Card7readEndEv.part.3
                0x9d01bc1c       0x50 C:\Users\nukem419\AppData\Local\V.Micro\Arduino\Builds\IREC_2017\chipKIT_chipkit_pic32_fubarino_sd\SD\utility\Sd2Card.cpp.o

.text._ZN6SdFile5closeEv
                0x9d01bc6c       0x50
 .text._ZN6SdFile5closeEv
                0x9d01bc6c       0x50 C:\Users\nukem419\AppData\Local\V.Micro\Arduino\Builds\IREC_2017\chipKIT_chipkit_pic32_fubarino_sd\SD\utility\SdFile.cpp.o
                0x9d01bc6c                SdFile::close()

.text._ZN6SdFile6removeEPS_PKc
                0x9d01bcbc       0x50
 .text._ZN6SdFile6removeEPS_PKc
                0x9d01bcbc       0x50 C:\Users\nukem419\AppData\Local\V.Micro\Arduino\Builds\IREC_2017\chipKIT_chipkit_pic32_fubarino_sd\SD\utility\SdFile.cpp.o
                0x9d01bcbc                SdFile::remove(SdFile*, char const*)

.text._ZN5EM50614getCourseSpeedEv
                0x9d01bd0c       0x50
 .text._ZN5EM50614getCourseSpeedEv
                0x9d01bd0c       0x50 C:\Users\nukem419\AppData\Local\V.Micro\Arduino\Builds\IREC_2017\chipKIT_chipkit_pic32_fubarino_sd\EM_506.cpp.o
                0x9d01bd0c                EM506::getCourseSpeed()

.text._ZN5Print5printEPKc
                0x9d01bd5c       0x50
 .text._ZN5Print5printEPKc
                0x9d01bd5c       0x50 C:\Users\nukem419\AppData\Local\V.Micro\Arduino\Builds\IREC_2017\chipKIT_chipkit_pic32_fubarino_sd/core.a(Print.cpp.o)
                0x9d01bd5c                Print::print(char const*)

.text._ZplRK15StringSumHelperi
                0x9d01bdac       0x50
 .text._ZplRK15StringSumHelperi
                0x9d01bdac       0x50 C:\Users\nukem419\AppData\Local\V.Micro\Arduino\Builds\IREC_2017\chipKIT_chipkit_pic32_fubarino_sd/core.a(WString.cpp.o)
                0x9d01bdac                operator+(StringSumHelper const&, int)

.text._ZL12read_sleb128PKhPl
                0x9d01bdfc       0x50
 .text._ZL12read_sleb128PKhPl
                0x9d01bdfc       0x50 c:/users/nukem419/appdata/local/arduino15/packages/chipkit/tools/pic32-tools/1.42-pic32gcc/bin/bin/../../lib/gcc/pic32mx/4.8.3/../../../../pic32mx/lib/size\libsupc++.a(eh_personality.o)

.text._ZNKSt9type_info10__do_catchEPKS_PPvj
                0x9d01be4c       0x50
 .text._ZNKSt9type_info10__do_catchEPKS_PPvj
                0x9d01be4c       0x50 c:/users/nukem419/appdata/local/arduino15/packages/chipkit/tools/pic32-tools/1.42-pic32gcc/bin/bin/../../lib/gcc/pic32mx/4.8.3/../../../../pic32mx/lib/size\libsupc++.a(tinfo.o)
                0x9d01be4c                std::type_info::__do_catch(std::type_info const*, void**, unsigned int) const

.text._sbrk_r   0x9d01be9c       0x50
 .text._sbrk_r  0x9d01be9c       0x50 c:/users/nukem419/appdata/local/arduino15/packages/chipkit/tools/pic32-tools/1.42-pic32gcc/bin/bin/../../lib/gcc/pic32mx/4.8.3/../../../../pic32mx/lib/size\libc.a(lib_a-sbrkr.o)
                0x9d01be9c                _sbrk_r

.text.strncmp   0x9d01beec       0x50
 .text.strncmp  0x9d01beec       0x50 c:/users/nukem419/appdata/local/arduino15/packages/chipkit/tools/pic32-tools/1.42-pic32gcc/bin/bin/../../lib/gcc/pic32mx/4.8.3/../../../../pic32mx/lib/size\libc.a(lib_a-strncmp.o)
                0x9d01beec                strncmp

.rodata         0x9d01bf40       0x50
 .rodata        0x9d01bf40       0x50 c:/users/nukem419/appdata/local/arduino15/packages/chipkit/tools/pic32-tools/1.42-pic32gcc/bin/bin/../../lib/gcc/pic32mx/4.8.3/../../../../pic32mx/lib/size\libc.a(lib_a-strtod.o)

.text.sbrk      0x9d01bf90       0x50
 .text.sbrk     0x9d01bf90       0x50 c:/users/nukem419/appdata/local/arduino15/packages/chipkit/tools/pic32-tools/1.42-pic32gcc/bin/bin/../../lib/gcc/pic32mx/4.8.3/../../../../pic32mx/lib/size\libpic32.a(sbrk.o)
                0x9d01bf90                sbrk

.text._ZN4File4readEv
                0x9d01bfe0       0x48
 .text._ZN4File4readEv
                0x9d01bfe0       0x48 C:\Users\nukem419\AppData\Local\V.Micro\Arduino\Builds\IREC_2017\chipKIT_chipkit_pic32_fubarino_sd\SD\File.cpp.o
                0x9d01bfe0                File::read()

.text._ZN6BMP18011isDataReadyEv
                0x9d01c028       0x48
 .text._ZN6BMP18011isDataReadyEv
                0x9d01c028       0x48 C:\Users\nukem419\AppData\Local\V.Micro\Arduino\Builds\IREC_2017\chipKIT_chipkit_pic32_fubarino_sd\BMP180.cpp.o
                0x9d01c028                BMP180::isDataReady()

.text._ZN6String6concatEh
                0x9d01c070       0x48
 .text._ZN6String6concatEh
                0x9d01c070       0x48 C:\Users\nukem419\AppData\Local\V.Micro\Arduino\Builds\IREC_2017\chipKIT_chipkit_pic32_fubarino_sd/core.a(WString.cpp.o)
                0x9d01c070                String::concat(unsigned char)

.text._ZN6String6concatEi
                0x9d01c0b8       0x48
 .text._ZN6String6concatEi
                0x9d01c0b8       0x48 C:\Users\nukem419\AppData\Local\V.Micro\Arduino\Builds\IREC_2017\chipKIT_chipkit_pic32_fubarino_sd/core.a(WString.cpp.o)
                0x9d01c0b8                String::concat(int)

.text._ZNKSt9type_infoeqERKS_.isra.0
                0x9d01c100       0x90
 .text._ZNKSt9type_infoeqERKS_.isra.0
                0x9d01c100       0x48 c:/users/nukem419/appdata/local/arduino15/packages/chipkit/tools/pic32-tools/1.42-pic32gcc/bin/bin/../../lib/gcc/pic32mx/4.8.3/../../../../pic32mx/lib/size\libsupc++.a(class_type_info.o)
 .text._ZNKSt9type_infoeqERKS_.isra.0
                0x9d01c148       0x48 c:/users/nukem419/appdata/local/arduino15/packages/chipkit/tools/pic32-tools/1.42-pic32gcc/bin/bin/../../lib/gcc/pic32mx/4.8.3/../../../../pic32mx/lib/size\libsupc++.a(si_class_type_info.o)

.text           0x9d01c190       0x90
 .text          0x9d01c190       0x48 c:/users/nukem419/appdata/local/arduino15/packages/chipkit/tools/pic32-tools/1.42-pic32gcc/bin/bin/../../lib/gcc/pic32mx/4.8.3/size\crtend.o
 .text          0x9d01c1d8       0x48 c:/users/nukem419/appdata/local/arduino15/packages/chipkit/tools/pic32-tools/1.42-pic32gcc/bin/bin/../../lib/gcc/pic32mx/4.8.3/size\libgcc.a(floatunsisf.o)
                0x9d01c1d8                __floatunsisf

.text.match     0x9d01c220       0x48
 .text.match    0x9d01c220       0x48 c:/users/nukem419/appdata/local/arduino15/packages/chipkit/tools/pic32-tools/1.42-pic32gcc/bin/bin/../../lib/gcc/pic32mx/4.8.3/../../../../pic32mx/lib/size\libc.a(lib_a-strtod.o)

.text.L_shift   0x9d01c268       0x48
 .text.L_shift  0x9d01c268       0x48 c:/users/nukem419/appdata/local/arduino15/packages/chipkit/tools/pic32-tools/1.42-pic32gcc/bin/bin/../../lib/gcc/pic32mx/4.8.3/../../../../pic32mx/lib/size\libc.a(lib_a-gdtoa-hexnan.o)

.text._bootstrap_exception_handler
                0x9d01c2b0       0x48
 .text._bootstrap_exception_handler
                0x9d01c2b0       0x48 c:/users/nukem419/appdata/local/arduino15/packages/chipkit/tools/pic32-tools/1.42-pic32gcc/bin/bin/../../lib/gcc/pic32mx/4.8.3/../../../../pic32mx/lib/size\libpic32.a(default-bootstrap-exception-handler.o)
                0x9d01c2b0                _bootstrap_exception_handler

.text.millisecondCoreTimerService
                0x9d01c2f8       0x44
 .text.millisecondCoreTimerService
                0x9d01c2f8       0x44 C:\Users\nukem419\AppData\Local\V.Micro\Arduino\Builds\IREC_2017\chipKIT_chipkit_pic32_fubarino_sd/core.a(wiring.c.o)
                0x9d01c2f8                millisecondCoreTimerService

.text._ZN9USBSerial11getBaudRateEv
                0x9d01c33c       0x44
 .text._ZN9USBSerial11getBaudRateEv
                0x9d01c33c       0x44 C:\Users\nukem419\AppData\Local\V.Micro\Arduino\Builds\IREC_2017\chipKIT_chipkit_pic32_fubarino_sd/core.a(HardwareSerial.cpp.o)
                0x9d01c33c                USBSerial::getBaudRate()

.rodata.cdcacm_configuration_descriptor.cdcacm_configuration_descriptor
                0x9d01c380       0x44
 .rodata.cdcacm_configuration_descriptor.cdcacm_configuration_descriptor
                0x9d01c380       0x44 C:\Users\nukem419\AppData\Local\V.Micro\Arduino\Builds\IREC_2017\chipKIT_chipkit_pic32_fubarino_sd/core.a(HardwareSerial_cdcacm.c.o)

.text           0x9d01c3c4       0x44
 .text          0x9d01c3c4       0x44 c:/users/nukem419/appdata/local/arduino15/packages/chipkit/tools/pic32-tools/1.42-pic32gcc/bin/bin/../../lib/gcc/pic32mx/4.8.3/size\libgcc.a(floatunsidf.o)
                0x9d01c3c4                __floatunsidf

.text.__hexdig_init
                0x9d01c408       0x44
 .text.__hexdig_init
                0x9d01c408       0x44 c:/users/nukem419/appdata/local/arduino15/packages/chipkit/tools/pic32-tools/1.42-pic32gcc/bin/bin/../../lib/gcc/pic32mx/4.8.3/../../../../pic32mx/lib/size\libc.a(lib_a-gdtoa-gethex.o)
                0x9d01c408                __hexdig_init

.text._ZN4File5closeEv
                0x9d01c44c       0x40
 .text._ZN4File5closeEv
                0x9d01c44c       0x40 C:\Users\nukem419\AppData\Local\V.Micro\Arduino\Builds\IREC_2017\chipKIT_chipkit_pic32_fubarino_sd\SD\File.cpp.o
                0x9d01c44c                File::close()

.text           0x9d01c48c       0x40
 .text          0x9d01c48c       0x40 c:/users/nukem419/appdata/local/arduino15/packages/chipkit/tools/pic32-tools/1.42-pic32gcc/bin/bin/../../lib/gcc/pic32mx/4.8.3/size\libgcc.a(_ashldi3.o)
                0x9d01c48c                __ashldi3

.text._GLOBAL__sub_I__Z20getNextPathComponentPcPjS_
                0x9d01c4cc       0x3c
 .text._GLOBAL__sub_I__Z20getNextPathComponentPcPjS_
                0x9d01c4cc       0x3c C:\Users\nukem419\AppData\Local\V.Micro\Arduino\Builds\IREC_2017\chipKIT_chipkit_pic32_fubarino_sd\SD\SD.cpp.o

.text._ZN7TwoWire4readEv
                0x9d01c508       0x3c
 .text._ZN7TwoWire4readEv
                0x9d01c508       0x3c C:\Users\nukem419\AppData\Local\V.Micro\Arduino\Builds\IREC_2017\chipKIT_chipkit_pic32_fubarino_sd\Wire\Wire.cpp.o
                0x9d01c508                TwoWire::read()

.text._ZN5EM50612getActiveSatEv
                0x9d01c544       0x3c
 .text._ZN5EM50612getActiveSatEv
                0x9d01c544       0x3c C:\Users\nukem419\AppData\Local\V.Micro\Arduino\Builds\IREC_2017\chipKIT_chipkit_pic32_fubarino_sd\EM_506.cpp.o
                0x9d01c544                EM506::getActiveSat()

.text._ZN14HardwareSerial4readEv
                0x9d01c580       0x3c
 .text._ZN14HardwareSerial4readEv
                0x9d01c580       0x3c C:\Users\nukem419\AppData\Local\V.Micro\Arduino\Builds\IREC_2017\chipKIT_chipkit_pic32_fubarino_sd/core.a(HardwareSerial.cpp.o)
                0x9d01c580                HardwareSerial::read()

.text._ZNK6String7toFloatEv
                0x9d01c5bc       0x3c
 .text._ZNK6String7toFloatEv
                0x9d01c5bc       0x3c C:\Users\nukem419\AppData\Local\V.Micro\Arduino\Builds\IREC_2017\chipKIT_chipkit_pic32_fubarino_sd/core.a(WString.cpp.o)
                0x9d01c5bc                String::toFloat() const

.text.strncpy   0x9d01c5f8       0x3c
 .text.strncpy  0x9d01c5f8       0x3c c:/users/nukem419/appdata/local/arduino15/packages/chipkit/tools/pic32-tools/1.42-pic32gcc/bin/bin/../../lib/gcc/pic32mx/4.8.3/../../../../pic32mx/lib/size\libc.a(lib_a-strncpy.o)
                0x9d01c5f8                strncpy

.text._ZN10DataLoggerC2Ev
                0x9d01c634       0x38
 .text._ZN10DataLoggerC2Ev
                0x9d01c634       0x38 C:\Users\nukem419\AppData\Local\V.Micro\Arduino\Builds\IREC_2017\chipKIT_chipkit_pic32_fubarino_sd\DataLogger.cpp.o
                0x9d01c634                DataLogger::DataLogger()
                0x9d01c634                DataLogger::DataLogger()

.text._ZN10Parameters12getParamTypeEt
                0x9d01c66c       0x38
 .text._ZN10Parameters12getParamTypeEt
                0x9d01c66c       0x38 C:\Users\nukem419\AppData\Local\V.Micro\Arduino\Builds\IREC_2017\chipKIT_chipkit_pic32_fubarino_sd\Parameters.cpp.o
                0x9d01c66c                Parameters::getParamType(unsigned short)

.text._ZN10Parameters13getParamValueEt
                0x9d01c6a4       0x38
 .text._ZN10Parameters13getParamValueEt
                0x9d01c6a4       0x38 C:\Users\nukem419\AppData\Local\V.Micro\Arduino\Builds\IREC_2017\chipKIT_chipkit_pic32_fubarino_sd\Parameters.cpp.o
                0x9d01c6a4                Parameters::getParamValue(unsigned short)

.text.setIntEnable
                0x9d01c6dc       0x38
 .text.setIntEnable
                0x9d01c6dc       0x38 C:\Users\nukem419\AppData\Local\V.Micro\Arduino\Builds\IREC_2017\chipKIT_chipkit_pic32_fubarino_sd/core.a(WSystem.c.o)
                0x9d01c6dc                setIntEnable

.rodata         0x9d01c718       0x38
 .rodata        0x9d01c718       0x38 c:/users/nukem419/appdata/local/arduino15/packages/chipkit/tools/pic32-tools/1.42-pic32gcc/bin/bin/../../lib/gcc/pic32mx/4.8.3/../../../../pic32mx/lib/size\libm.a(lib_a-w_pow.o)

.text.memcmp    0x9d01c750       0x38
 .text.memcmp   0x9d01c750       0x38 c:/users/nukem419/appdata/local/arduino15/packages/chipkit/tools/pic32-tools/1.42-pic32gcc/bin/bin/../../lib/gcc/pic32mx/4.8.3/../../../../pic32mx/lib/size\libc.a(lib_a-memcmp.o)
                0x9d01c750                memcmp

.text.strchr    0x9d01c788       0x38
 .text.strchr   0x9d01c788       0x38 c:/users/nukem419/appdata/local/arduino15/packages/chipkit/tools/pic32-tools/1.42-pic32gcc/bin/bin/../../lib/gcc/pic32mx/4.8.3/../../../../pic32mx/lib/size\libc.a(lib_a-strchr.o)
                0x9d01c788                strchr

.text.main_entry
                0x9d01c7c0       0x34
 .text.main_entry
                0x9d01c7c0       0x34 C:\Users\nukem419\AppData\Local\Temp\ccQDZXfk.o

.text._ZN4File9availableEv
                0x9d01c7f4       0x34
 .text._ZN4File9availableEv
                0x9d01c7f4       0x34 C:\Users\nukem419\AppData\Local\V.Micro\Arduino\Builds\IREC_2017\chipKIT_chipkit_pic32_fubarino_sd\SD\File.cpp.o
                0x9d01c7f4                File::available()

.text._ZN10Parameters10getParamIDEt
                0x9d01c828       0x34
 .text._ZN10Parameters10getParamIDEt
                0x9d01c828       0x34 C:\Users\nukem419\AppData\Local\V.Micro\Arduino\Builds\IREC_2017\chipKIT_chipkit_pic32_fubarino_sd\Parameters.cpp.o
                0x9d01c828                Parameters::getParamID(unsigned short)

.text.getTaskId
                0x9d01c85c       0x34
 .text.getTaskId
                0x9d01c85c       0x34 C:\Users\nukem419\AppData\Local\V.Micro\Arduino\Builds\IREC_2017\chipKIT_chipkit_pic32_fubarino_sd/core.a(task_manager.c.o)
                0x9d01c85c                getTaskId

.text._ZN6StringC2Ec
                0x9d01c890       0x34
 .text._ZN6StringC2Ec
                0x9d01c890       0x34 C:\Users\nukem419\AppData\Local\V.Micro\Arduino\Builds\IREC_2017\chipKIT_chipkit_pic32_fubarino_sd/core.a(WString.cpp.o)
                0x9d01c890                String::String(char)
                0x9d01c890                String::String(char)

.text._ZL12read_uleb128PKhPm
                0x9d01c8c4       0x34
 .text._ZL12read_uleb128PKhPm
                0x9d01c8c4       0x34 c:/users/nukem419/appdata/local/arduino15/packages/chipkit/tools/pic32-tools/1.42-pic32gcc/bin/bin/../../lib/gcc/pic32mx/4.8.3/../../../../pic32mx/lib/size\libsupc++.a(eh_personality.o)

.text.strtol    0x9d01c8f8       0x34
 .text.strtol   0x9d01c8f8       0x34 c:/users/nukem419/appdata/local/arduino15/packages/chipkit/tools/pic32-tools/1.42-pic32gcc/bin/bin/../../lib/gcc/pic32mx/4.8.3/../../../../pic32mx/lib/size\libc.a(lib_a-strtol.o)
                0x9d01c8f8                strtol

.text.__i2b     0x9d01c92c       0x34
 .text.__i2b    0x9d01c92c       0x34 c:/users/nukem419/appdata/local/arduino15/packages/chipkit/tools/pic32-tools/1.42-pic32gcc/bin/bin/../../lib/gcc/pic32mx/4.8.3/../../../../pic32mx/lib/size\libc.a(lib_a-mprec.o)
                0x9d01c92c                __i2b

.text._ZN4File5writeEh
                0x9d01c960       0x30
 .text._ZN4File5writeEh
                0x9d01c960       0x30 C:\Users\nukem419\AppData\Local\V.Micro\Arduino\Builds\IREC_2017\chipKIT_chipkit_pic32_fubarino_sd\SD\File.cpp.o
                0x9d01c960                File::write(unsigned char)

.text.setIntVector
                0x9d01c990       0x30
 .text.setIntVector
                0x9d01c990       0x30 C:\Users\nukem419\AppData\Local\V.Micro\Arduino\Builds\IREC_2017\chipKIT_chipkit_pic32_fubarino_sd/core.a(WSystem.c.o)
                0x9d01c990                setIntVector

.text.main      0x9d01c9c0       0x30
 .text.main     0x9d01c9c0       0x30 C:\Users\nukem419\AppData\Local\V.Micro\Arduino\Builds\IREC_2017\chipKIT_chipkit_pic32_fubarino_sd/core.a(main.cpp.o)
                0x9d01c9c0                main

.rodata         0x9d01c9f0       0x30
 .rodata        0x9d01c9f0       0x30 C:\Users\nukem419\AppData\Local\V.Micro\Arduino\Builds\IREC_2017\chipKIT_chipkit_pic32_fubarino_sd/core.a(Print.cpp.o)

.rodata.digital_pin_to_port_PGM.digital_pin_to_port_PGM
                0x9d01ca20       0x30
 .rodata.digital_pin_to_port_PGM.digital_pin_to_port_PGM
                0x9d01ca20       0x30 C:\Users\nukem419\AppData\Local\V.Micro\Arduino\Builds\IREC_2017\chipKIT_chipkit_pic32_fubarino_sd/core.a(pins_arduino.c.o)
                0x9d01ca20                digital_pin_to_port_PGM

.text.htinit.constprop.0
                0x9d01ca50       0x30
 .text.htinit.constprop.0
                0x9d01ca50       0x30 c:/users/nukem419/appdata/local/arduino15/packages/chipkit/tools/pic32-tools/1.42-pic32gcc/bin/bin/../../lib/gcc/pic32mx/4.8.3/../../../../pic32mx/lib/size\libc.a(lib_a-gdtoa-gethex.o)

.text._ZN7TwoWire5writeEh
                0x9d01ca80       0x2c
 .text._ZN7TwoWire5writeEh
                0x9d01ca80       0x2c C:\Users\nukem419\AppData\Local\V.Micro\Arduino\Builds\IREC_2017\chipKIT_chipkit_pic32_fubarino_sd\Wire\Wire.cpp.o
                0x9d01ca80                TwoWire::write(unsigned char)

.text._ZN9USBSerial9availableEv
                0x9d01caac       0x2c
 .text._ZN9USBSerial9availableEv
                0x9d01caac       0x2c C:\Users\nukem419\AppData\Local\V.Micro\Arduino\Builds\IREC_2017\chipKIT_chipkit_pic32_fubarino_sd/core.a(HardwareSerial.cpp.o)
                0x9d01caac                USBSerial::available()

.text._ZN9USBSerial5beginEm
                0x9d01cad8       0x2c
 .text._ZN9USBSerial5beginEm
                0x9d01cad8       0x2c C:\Users\nukem419\AppData\Local\V.Micro\Arduino\Builds\IREC_2017\chipKIT_chipkit_pic32_fubarino_sd/core.a(HardwareSerial.cpp.o)
                0x9d01cad8                USBSerial::begin(unsigned long)

.text._ZN10__cxxabiv117__class_type_infoD0Ev
                0x9d01cb04       0x2c
 .text._ZN10__cxxabiv117__class_type_infoD0Ev
                0x9d01cb04       0x2c c:/users/nukem419/appdata/local/arduino15/packages/chipkit/tools/pic32-tools/1.42-pic32gcc/bin/bin/../../lib/gcc/pic32mx/4.8.3/../../../../pic32mx/lib/size\libsupc++.a(class_type_info.o)
                0x9d01cb04                __cxxabiv1::__class_type_info::~__class_type_info()

.text._ZN10__cxxabiv120__si_class_type_infoD0Ev
                0x9d01cb30       0x2c
 .text._ZN10__cxxabiv120__si_class_type_infoD0Ev
                0x9d01cb30       0x2c c:/users/nukem419/appdata/local/arduino15/packages/chipkit/tools/pic32-tools/1.42-pic32gcc/bin/bin/../../lib/gcc/pic32mx/4.8.3/../../../../pic32mx/lib/size\libsupc++.a(si_class_type_info.o)
                0x9d01cb30                __cxxabiv1::__si_class_type_info::~__si_class_type_info()

.text.memcpy    0x9d01cb5c       0x2c
 .text.memcpy   0x9d01cb5c       0x2c c:/users/nukem419/appdata/local/arduino15/packages/chipkit/tools/pic32-tools/1.42-pic32gcc/bin/bin/../../lib/gcc/pic32mx/4.8.3/../../../../pic32mx/lib/size\libc.a(lib_a-memcpy.o)
                0x9d01cb5c                memcpy

.text.realloc   0x9d01cb88       0x2c
 .text.realloc  0x9d01cb88       0x2c c:/users/nukem419/appdata/local/arduino15/packages/chipkit/tools/pic32-tools/1.42-pic32gcc/bin/bin/../../lib/gcc/pic32mx/4.8.3/../../../../pic32mx/lib/size\libc.a(lib_a-realloc.o)
                0x9d01cb88                realloc

.text.strtod    0x9d01cbb4       0x2c
 .text.strtod   0x9d01cbb4       0x2c c:/users/nukem419/appdata/local/arduino15/packages/chipkit/tools/pic32-tools/1.42-pic32gcc/bin/bin/../../lib/gcc/pic32mx/4.8.3/../../../../pic32mx/lib/size\libc.a(lib_a-strtod.o)
                0x9d01cbb4                strtod

.text._Bfree    0x9d01cbe0       0x2c
 .text._Bfree   0x9d01cbe0       0x2c c:/users/nukem419/appdata/local/arduino15/packages/chipkit/tools/pic32-tools/1.42-pic32gcc/bin/bin/../../lib/gcc/pic32mx/4.8.3/../../../../pic32mx/lib/size\libc.a(lib_a-mprec.o)
                0x9d01cbe0                _Bfree

.text._stub_sbd_memlayout
                0x9d01cc0c       0x2c
 .text._stub_sbd_memlayout
                0x9d01cc0c       0x2c c:/users/nukem419/appdata/local/arduino15/packages/chipkit/tools/pic32-tools/1.42-pic32gcc/bin/bin/../../lib/gcc/pic32mx/4.8.3/../../../../pic32mx/lib/size\libpic32.a(sbrk.o)
                0x9d01cc0c                _sbd_memlayout
                0x9d01cc0c                _stub_sbd_memlayout

.text._ZN6SdFile5writeEh
                0x9d01cc38       0x28
 .text._ZN6SdFile5writeEh
                0x9d01cc38       0x28 C:\Users\nukem419\AppData\Local\V.Micro\Arduino\Builds\IREC_2017\chipKIT_chipkit_pic32_fubarino_sd\SD\utility\SdFile.cpp.o
                0x9d01cc38                SdFile::write(unsigned char)

.text._initTaskManager
                0x9d01cc60       0x28
 .text._initTaskManager
                0x9d01cc60       0x28 C:\Users\nukem419\AppData\Local\V.Micro\Arduino\Builds\IREC_2017\chipKIT_chipkit_pic32_fubarino_sd/core.a(task_manager.c.o)
                0x9d01cc60                _initTaskManager

.text._enableMultiVectorInterrupts
                0x9d01cc88       0x28
 .text._enableMultiVectorInterrupts
                0x9d01cc88       0x28 C:\Users\nukem419\AppData\Local\V.Micro\Arduino\Builds\IREC_2017\chipKIT_chipkit_pic32_fubarino_sd/core.a(WSystem.c.o)
                0x9d01cc88                _enableMultiVectorInterrupts

.text._ZN14HardwareSerial9availableEv
                0x9d01ccb0       0x28
 .text._ZN14HardwareSerial9availableEv
                0x9d01ccb0       0x28 C:\Users\nukem419\AppData\Local\V.Micro\Arduino\Builds\IREC_2017\chipKIT_chipkit_pic32_fubarino_sd/core.a(HardwareSerial.cpp.o)
                0x9d01ccb0                HardwareSerial::available()

.text._ZN9USBSerial4peekEv
                0x9d01ccd8       0x28
 .text._ZN9USBSerial4peekEv
                0x9d01ccd8       0x28 C:\Users\nukem419\AppData\Local\V.Micro\Arduino\Builds\IREC_2017\chipKIT_chipkit_pic32_fubarino_sd/core.a(HardwareSerial.cpp.o)
                0x9d01ccd8                USBSerial::peek()

.text._ZN9USBSerial5writeEh
                0x9d01cd00       0x28
 .text._ZN9USBSerial5writeEh
                0x9d01cd00       0x28 C:\Users\nukem419\AppData\Local\V.Micro\Arduino\Builds\IREC_2017\chipKIT_chipkit_pic32_fubarino_sd/core.a(HardwareSerial.cpp.o)
                0x9d01cd00                USBSerial::write(unsigned char)

.text._ZN6String6concatEc
                0x9d01cd28       0x28
 .text._ZN6String6concatEc
                0x9d01cd28       0x28 C:\Users\nukem419\AppData\Local\V.Micro\Arduino\Builds\IREC_2017\chipKIT_chipkit_pic32_fubarino_sd/core.a(WString.cpp.o)
                0x9d01cd28                String::concat(char)

.text._ZNK6String6charAtEj
                0x9d01cd50       0x28
 .text._ZNK6String6charAtEj
                0x9d01cd50       0x28 C:\Users\nukem419\AppData\Local\V.Micro\Arduino\Builds\IREC_2017\chipKIT_chipkit_pic32_fubarino_sd/core.a(WString.cpp.o)
                0x9d01cd50                String::charAt(unsigned int) const

.text._ZdlPv    0x9d01cd78       0x28
 .text._ZdlPv   0x9d01cd78       0x28 c:/users/nukem419/appdata/local/arduino15/packages/chipkit/tools/pic32-tools/1.42-pic32gcc/bin/bin/../../lib/gcc/pic32mx/4.8.3/../../../../pic32mx/lib/size\libsupc++.a(del_op.o)
                0x9d01cd78                operator delete(void*)

.rodata.tinytens.tinytens
                0x9d01cda0       0x28
 .rodata.tinytens.tinytens
                0x9d01cda0       0x28 c:/users/nukem419/appdata/local/arduino15/packages/chipkit/tools/pic32-tools/1.42-pic32gcc/bin/bin/../../lib/gcc/pic32mx/4.8.3/../../../../pic32mx/lib/size\libc.a(lib_a-strtod.o)

.rodata.__mprec_bigtens.__mprec_bigtens
                0x9d01cdc8       0x28
 .rodata.__mprec_bigtens.__mprec_bigtens
                0x9d01cdc8       0x28 c:/users/nukem419/appdata/local/arduino15/packages/chipkit/tools/pic32-tools/1.42-pic32gcc/bin/bin/../../lib/gcc/pic32mx/4.8.3/../../../../pic32mx/lib/size\libc.a(lib_a-mprec.o)
                0x9d01cdc8                __mprec_bigtens

.text._ZN4FileC2Ev
                0x9d01cdf0       0x24
 .text._ZN4FileC2Ev
                0x9d01cdf0       0x24 C:\Users\nukem419\AppData\Local\V.Micro\Arduino\Builds\IREC_2017\chipKIT_chipkit_pic32_fubarino_sd\SD\File.cpp.o
                0x9d01cdf0                File::File()
                0x9d01cdf0                File::File()

.text._ZN7Sd2Card9readBlockEmPh
                0x9d01ce14       0x24
 .text._ZN7Sd2Card9readBlockEmPh
                0x9d01ce14       0x24 C:\Users\nukem419\AppData\Local\V.Micro\Arduino\Builds\IREC_2017\chipKIT_chipkit_pic32_fubarino_sd\SD\utility\Sd2Card.cpp.o
                0x9d01ce14                Sd2Card::readBlock(unsigned long, unsigned char*)

.text._ZN14HardwareSerial5writeEh
                0x9d01ce38       0x24
 .text._ZN14HardwareSerial5writeEh
                0x9d01ce38       0x24 C:\Users\nukem419\AppData\Local\V.Micro\Arduino\Builds\IREC_2017\chipKIT_chipkit_pic32_fubarino_sd/core.a(HardwareSerial.cpp.o)
                0x9d01ce38                HardwareSerial::write(unsigned char)

.rodata         0x9d01ce5c       0x24
 .rodata        0x9d01ce5c       0x24 C:\Users\nukem419\AppData\Local\V.Micro\Arduino\Builds\IREC_2017\chipKIT_chipkit_pic32_fubarino_sd/core.a(HardwareSerial_cdcacm.c.o)

.rodata.port_to_tris_PGM.port_to_tris_PGM
                0x9d01ce80       0x24
 .rodata.port_to_tris_PGM.port_to_tris_PGM
                0x9d01ce80       0x24 C:\Users\nukem419\AppData\Local\V.Micro\Arduino\Builds\IREC_2017\chipKIT_chipkit_pic32_fubarino_sd/core.a(pins_arduino.c.o)
                0x9d01ce80                port_to_tris_PGM

.text._ZN10__cxxabiv117__class_type_infoD2Ev
                0x9d01cea4       0x24
 .text._ZN10__cxxabiv117__class_type_infoD2Ev
                0x9d01cea4       0x24 c:/users/nukem419/appdata/local/arduino15/packages/chipkit/tools/pic32-tools/1.42-pic32gcc/bin/bin/../../lib/gcc/pic32mx/4.8.3/../../../../pic32mx/lib/size\libsupc++.a(class_type_info.o)
                0x9d01cea4                __cxxabiv1::__class_type_info::~__class_type_info()
                0x9d01cea4                __cxxabiv1::__class_type_info::~__class_type_info()

.text._ZN10__cxxabiv120__si_class_type_infoD2Ev
                0x9d01cec8       0x24
 .text._ZN10__cxxabiv120__si_class_type_infoD2Ev
                0x9d01cec8       0x24 c:/users/nukem419/appdata/local/arduino15/packages/chipkit/tools/pic32-tools/1.42-pic32gcc/bin/bin/../../lib/gcc/pic32mx/4.8.3/../../../../pic32mx/lib/size\libsupc++.a(si_class_type_info.o)
                0x9d01cec8                __cxxabiv1::__si_class_type_info::~__si_class_type_info()
                0x9d01cec8                __cxxabiv1::__si_class_type_info::~__si_class_type_info()

.text._ZNSt9type_infoD0Ev
                0x9d01ceec       0x24
 .text._ZNSt9type_infoD0Ev
                0x9d01ceec       0x24 c:/users/nukem419/appdata/local/arduino15/packages/chipkit/tools/pic32-tools/1.42-pic32gcc/bin/bin/../../lib/gcc/pic32mx/4.8.3/../../../../pic32mx/lib/size\libsupc++.a(tinfo.o)
                0x9d01ceec                std::type_info::~type_info()

.text.malloc    0x9d01cf10       0x24
 .text.malloc   0x9d01cf10       0x24 c:/users/nukem419/appdata/local/arduino15/packages/chipkit/tools/pic32-tools/1.42-pic32gcc/bin/bin/../../lib/gcc/pic32mx/4.8.3/../../../../pic32mx/lib/size\libc.a(lib_a-malloc.o)
                0x9d01cf10                malloc

.text.free      0x9d01cf34       0x24
 .text.free     0x9d01cf34       0x24 c:/users/nukem419/appdata/local/arduino15/packages/chipkit/tools/pic32-tools/1.42-pic32gcc/bin/bin/../../lib/gcc/pic32mx/4.8.3/../../../../pic32mx/lib/size\libc.a(lib_a-malloc.o)
                0x9d01cf34                free

.text.memset    0x9d01cf58       0x24
 .text.memset   0x9d01cf58       0x24 c:/users/nukem419/appdata/local/arduino15/packages/chipkit/tools/pic32-tools/1.42-pic32gcc/bin/bin/../../lib/gcc/pic32mx/4.8.3/../../../../pic32mx/lib/size\libc.a(lib_a-memset.o)
                0x9d01cf58                memset

.text.raise     0x9d01cf7c       0x24
 .text.raise    0x9d01cf7c       0x24 c:/users/nukem419/appdata/local/arduino15/packages/chipkit/tools/pic32-tools/1.42-pic32gcc/bin/bin/../../lib/gcc/pic32mx/4.8.3/../../../../pic32mx/lib/size\libc.a(lib_a-signal.o)
                0x9d01cf7c                raise

.text.strcpy    0x9d01cfa0       0x24
 .text.strcpy   0x9d01cfa0       0x24 c:/users/nukem419/appdata/local/arduino15/packages/chipkit/tools/pic32-tools/1.42-pic32gcc/bin/bin/../../lib/gcc/pic32mx/4.8.3/../../../../pic32mx/lib/size\libc.a(lib_a-strcpy.o)
                0x9d01cfa0                strcpy

.text._ZN4FilecvbEv
                0x9d01cfc4       0x20
 .text._ZN4FilecvbEv
                0x9d01cfc4       0x20 C:\Users\nukem419\AppData\Local\V.Micro\Arduino\Builds\IREC_2017\chipKIT_chipkit_pic32_fubarino_sd\SD\File.cpp.o
                0x9d01cfc4                File::operator bool()

.text._ZN6BMP1809startTempEv
                0x9d01cfe4       0x20
 .text._ZN6BMP1809startTempEv
                0x9d01cfe4       0x20 C:\Users\nukem419\AppData\Local\V.Micro\Arduino\Builds\IREC_2017\chipKIT_chipkit_pic32_fubarino_sd\BMP180.cpp.o
                0x9d01cfe4                BMP180::startTemp()

.text._ZN6BMP18013startPressureEv
                0x9d01d004       0x20
 .text._ZN6BMP18013startPressureEv
                0x9d01d004       0x20 C:\Users\nukem419\AppData\Local\V.Micro\Arduino\Builds\IREC_2017\chipKIT_chipkit_pic32_fubarino_sd\BMP180.cpp.o
                0x9d01d004                BMP180::startPressure()

.rodata         0x9d01d028       0x20
 .rodata        0x9d01d028       0x20 C:\Users\nukem419\AppData\Local\V.Micro\Arduino\Builds\IREC_2017\chipKIT_chipkit_pic32_fubarino_sd\L3GD20TR.cpp.o

.text._ZN14HardwareSerial4peekEv
                0x9d01d048       0x20
 .text._ZN14HardwareSerial4peekEv
                0x9d01d048       0x20 C:\Users\nukem419\AppData\Local\V.Micro\Arduino\Builds\IREC_2017\chipKIT_chipkit_pic32_fubarino_sd/core.a(HardwareSerial.cpp.o)
                0x9d01d048                HardwareSerial::peek()

.rodata         0x9d01d068       0x20
 .rodata        0x9d01d068       0x20 c:/users/nukem419/appdata/local/arduino15/packages/chipkit/tools/pic32-tools/1.42-pic32gcc/bin/bin/../../lib/gcc/pic32mx/4.8.3/../../../../pic32mx/lib/size\libm.a(lib_a-s_scalbn.o)

.text.atol      0x9d01d088       0x20
 .text.atol     0x9d01d088       0x20 c:/users/nukem419/appdata/local/arduino15/packages/chipkit/tools/pic32-tools/1.42-pic32gcc/bin/bin/../../lib/gcc/pic32mx/4.8.3/../../../../pic32mx/lib/size\libc.a(lib_a-atol.o)
                0x9d01d088                atol

.text._ZN4File5flushEv
                0x9d01d0a8       0x1c
 .text._ZN4File5flushEv
                0x9d01d0a8       0x1c C:\Users\nukem419\AppData\Local\V.Micro\Arduino\Builds\IREC_2017\chipKIT_chipkit_pic32_fubarino_sd\SD\File.cpp.o
                0x9d01d0a8                File::flush()

.text._ZN4File4seekEm
                0x9d01d0c4       0x1c
 .text._ZN4File4seekEm
                0x9d01d0c4       0x1c C:\Users\nukem419\AppData\Local\V.Micro\Arduino\Builds\IREC_2017\chipKIT_chipkit_pic32_fubarino_sd\SD\File.cpp.o
                0x9d01d0c4                File::seek(unsigned long)

.text._Z15callback_removeR6SdFilePchPv
                0x9d01d0e0       0x1c
 .text._Z15callback_removeR6SdFilePchPv
                0x9d01d0e0       0x1c C:\Users\nukem419\AppData\Local\V.Micro\Arduino\Builds\IREC_2017\chipKIT_chipkit_pic32_fubarino_sd\SD\SD.cpp.o
                0x9d01d0e0                callback_remove(SdFile&, char*, unsigned char, void*)

.text._ZN7SDClass6removeEPc
                0x9d01d0fc       0x1c
 .text._ZN7SDClass6removeEPc
                0x9d01d0fc       0x1c C:\Users\nukem419\AppData\Local\V.Micro\Arduino\Builds\IREC_2017\chipKIT_chipkit_pic32_fubarino_sd\SD\SD.cpp.o
                0x9d01d0fc                SDClass::remove(char*)

.text._ZN6SdFile4syncEv
                0x9d01d118       0x1c
 .text._ZN6SdFile4syncEv
                0x9d01d118       0x1c C:\Users\nukem419\AppData\Local\V.Micro\Arduino\Builds\IREC_2017\chipKIT_chipkit_pic32_fubarino_sd\SD\utility\SdFile.cpp.o
                0x9d01d118                SdFile::sync()

.text._ZN6SdFile4openEPS_PKch
                0x9d01d134       0x1c
 .text._ZN6SdFile4openEPS_PKch
                0x9d01d134       0x1c C:\Users\nukem419\AppData\Local\V.Micro\Arduino\Builds\IREC_2017\chipKIT_chipkit_pic32_fubarino_sd\SD\utility\SdFile.cpp.o
                0x9d01d134                SdFile::open(SdFile*, char const*, unsigned char)

.text._ZN7TwoWire9availableEv
                0x9d01d150       0x1c
 .text._ZN7TwoWire9availableEv
                0x9d01d150       0x1c C:\Users\nukem419\AppData\Local\V.Micro\Arduino\Builds\IREC_2017\chipKIT_chipkit_pic32_fubarino_sd\Wire\Wire.cpp.o
                0x9d01d150                TwoWire::available()

.rodata         0x9d01d16c       0x1c
 .rodata        0x9d01d16c       0x1c C:\Users\nukem419\AppData\Local\V.Micro\Arduino\Builds\IREC_2017\chipKIT_chipkit_pic32_fubarino_sd\DataLogger.cpp.o

.text.restoreInterrupts
                0x9d01d188       0x1c
 .text.restoreInterrupts
                0x9d01d188       0x1c C:\Users\nukem419\AppData\Local\V.Micro\Arduino\Builds\IREC_2017\chipKIT_chipkit_pic32_fubarino_sd/core.a(WSystem.c.o)
                0x9d01d188                restoreInterrupts

.text.getPeripheralClock
                0x9d01d1a4       0x1c
 .text.getPeripheralClock
                0x9d01d1a4       0x1c C:\Users\nukem419\AppData\Local\V.Micro\Arduino\Builds\IREC_2017\chipKIT_chipkit_pic32_fubarino_sd/core.a(WSystem.c.o)
                0x9d01d1a4                getPeripheralClock

.text._ZN14HardwareSerial5flushEv
                0x9d01d1c0       0x1c
 .text._ZN14HardwareSerial5flushEv
                0x9d01d1c0       0x1c C:\Users\nukem419\AppData\Local\V.Micro\Arduino\Builds\IREC_2017\chipKIT_chipkit_pic32_fubarino_sd/core.a(HardwareSerial.cpp.o)
                0x9d01d1c0                HardwareSerial::flush()

.text._ZN5Print5printEmi
                0x9d01d1dc       0x1c
 .text._ZN5Print5printEmi
                0x9d01d1dc       0x1c C:\Users\nukem419\AppData\Local\V.Micro\Arduino\Builds\IREC_2017\chipKIT_chipkit_pic32_fubarino_sd/core.a(Print.cpp.o)
                0x9d01d1dc                Print::print(unsigned long, int)

.text._ZNK6String5toIntEv
                0x9d01d1f8       0x1c
 .text._ZNK6String5toIntEv
                0x9d01d1f8       0x1c C:\Users\nukem419\AppData\Local\V.Micro\Arduino\Builds\IREC_2017\chipKIT_chipkit_pic32_fubarino_sd/core.a(WString.cpp.o)
                0x9d01d1f8                String::toInt() const

.text._ZNK10__cxxabiv117__class_type_info20__do_find_public_srcElPKvPKS0_S2_
                0x9d01d214       0x1c
 .text._ZNK10__cxxabiv117__class_type_info20__do_find_public_srcElPKvPKS0_S2_
                0x9d01d214       0x1c c:/users/nukem419/appdata/local/arduino15/packages/chipkit/tools/pic32-tools/1.42-pic32gcc/bin/bin/../../lib/gcc/pic32mx/4.8.3/../../../../pic32mx/lib/size\libsupc++.a(class_type_info.o)
                0x9d01d214                __cxxabiv1::__class_type_info::__do_find_public_src(long, void const*, __cxxabiv1::__class_type_info const*, void const*) const

.text.copysign  0x9d01d230       0x1c
 .text.copysign
                0x9d01d230       0x1c c:/users/nukem419/appdata/local/arduino15/packages/chipkit/tools/pic32-tools/1.42-pic32gcc/bin/bin/../../lib/gcc/pic32mx/4.8.3/../../../../pic32mx/lib/size\libm.a(lib_a-s_copysign.o)
                0x9d01d230                copysign

.text.atof      0x9d01d24c       0x1c
 .text.atof     0x9d01d24c       0x1c c:/users/nukem419/appdata/local/arduino15/packages/chipkit/tools/pic32-tools/1.42-pic32gcc/bin/bin/../../lib/gcc/pic32mx/4.8.3/../../../../pic32mx/lib/size\libc.a(lib_a-atof.o)
                0x9d01d24c                atof

.text._getpid_r
                0x9d01d268       0x1c
 .text._getpid_r
                0x9d01d268       0x1c c:/users/nukem419/appdata/local/arduino15/packages/chipkit/tools/pic32-tools/1.42-pic32gcc/bin/bin/../../lib/gcc/pic32mx/4.8.3/../../../../pic32mx/lib/size\libc.a(lib_a-signalr.o)
                0x9d01d268                _getpid_r

.rodata         0x9d01d284       0x34
 .rodata        0x9d01d284       0x1c c:/users/nukem419/appdata/local/arduino15/packages/chipkit/tools/pic32-tools/1.42-pic32gcc/bin/bin/../../lib/gcc/pic32mx/4.8.3/../../../../pic32mx/lib/size\libc.a(lib_a-gdtoa-gethex.o)
 .rodata        0x9d01d2a0       0x18 C:\Users\nukem419\AppData\Local\V.Micro\Arduino\Builds\IREC_2017\chipKIT_chipkit_pic32_fubarino_sd\BMP180.cpp.o

.text._ZN5Print5printERK6String
                0x9d01d2b8       0x18
 .text._ZN5Print5printERK6String
                0x9d01d2b8       0x18 C:\Users\nukem419\AppData\Local\V.Micro\Arduino\Builds\IREC_2017\chipKIT_chipkit_pic32_fubarino_sd/core.a(Print.cpp.o)
                0x9d01d2b8                Print::print(String const&)

.rodata         0x9d01d2d0       0x18
 .rodata        0x9d01d2d0       0x18 C:\Users\nukem419\AppData\Local\V.Micro\Arduino\Builds\IREC_2017\chipKIT_chipkit_pic32_fubarino_sd/core.a(WString.cpp.o)

.text._ZN10__cxxabiv111__terminateEPFvvE
                0x9d01d2e8       0x18
 .text._ZN10__cxxabiv111__terminateEPFvvE
                0x9d01d2e8       0x18 c:/users/nukem419/appdata/local/arduino15/packages/chipkit/tools/pic32-tools/1.42-pic32gcc/bin/bin/../../lib/gcc/pic32mx/4.8.3/../../../../pic32mx/lib/size\libsupc++.a(eh_terminate.o)
                0x9d01d2e8                __cxxabiv1::__terminate(void (*)())

.text._ZN10__cxxabiv112__unexpectedEPFvvE
                0x9d01d300       0x18
 .text._ZN10__cxxabiv112__unexpectedEPFvvE
                0x9d01d300       0x18 c:/users/nukem419/appdata/local/arduino15/packages/chipkit/tools/pic32-tools/1.42-pic32gcc/bin/bin/../../lib/gcc/pic32mx/4.8.3/../../../../pic32mx/lib/size\libsupc++.a(eh_terminate.o)
                0x9d01d300                __cxxabiv1::__unexpected(void (*)())

.text.abort     0x9d01d318       0x18
 .text.abort    0x9d01d318       0x18 c:/users/nukem419/appdata/local/arduino15/packages/chipkit/tools/pic32-tools/1.42-pic32gcc/bin/bin/../../lib/gcc/pic32mx/4.8.3/../../../../pic32mx/lib/size\libc.a(lib_a-abort.o)
                0x9d01d318                abort

.text           0x9d01d330       0x30
 .text          0x9d01d330       0x18 c:/users/nukem419/appdata/local/arduino15/packages/chipkit/tools/pic32-tools/1.42-pic32gcc/bin/bin/../../lib/gcc/pic32mx/4.8.3/../../../../pic32mx/lib/size\libc.a(lib_a-strlen.o)
                0x9d01d330                strlen
 .text          0x9d01d348       0x18 c:/users/nukem419/appdata/local/arduino15/packages/chipkit/tools/pic32-tools/1.42-pic32gcc/bin/bin/../../lib/gcc/pic32mx/4.8.3/../../../../pic32mx/lib/size\libpic32.a(default-nmi-handler.o)
                0x9d01d348                _nmi_handler

.rodata         0x9d01d360       0x14
 .rodata        0x9d01d360       0x14 C:\Users\nukem419\AppData\Local\V.Micro\Arduino\Builds\IREC_2017\chipKIT_chipkit_pic32_fubarino_sd\IREC_2017.cpp.o

.text._ZN6StringC2ERKS_
                0x9d01d374       0x14
 .text._ZN6StringC2ERKS_
                0x9d01d374       0x14 C:\Users\nukem419\AppData\Local\V.Micro\Arduino\Builds\IREC_2017\chipKIT_chipkit_pic32_fubarino_sd/core.a(WString.cpp.o)
                0x9d01d374                String::String(String const&)
                0x9d01d374                String::String(String const&)

.rodata.cdcacm_device_descriptor.cdcacm_device_descriptor
                0x9d01d388       0x14
 .rodata.cdcacm_device_descriptor.cdcacm_device_descriptor
                0x9d01d388       0x14 C:\Users\nukem419\AppData\Local\V.Micro\Arduino\Builds\IREC_2017\chipKIT_chipkit_pic32_fubarino_sd/core.a(HardwareSerial_cdcacm.c.o)

.text._board_init
                0x9d01d39c       0x14
 .text._board_init
                0x9d01d39c       0x14 C:\Users\nukem419\AppData\Local\V.Micro\Arduino\Builds\IREC_2017\chipKIT_chipkit_pic32_fubarino_sd/core.a(pins_arduino.c.o)
                0x9d01d39c                _board_init

.text._ZSt9terminatev
                0x9d01d3b0       0x14
 .text._ZSt9terminatev
                0x9d01d3b0       0x14 c:/users/nukem419/appdata/local/arduino15/packages/chipkit/tools/pic32-tools/1.42-pic32gcc/bin/bin/../../lib/gcc/pic32mx/4.8.3/../../../../pic32mx/lib/size\libsupc++.a(eh_terminate.o)
                0x9d01d3b0                std::terminate()

.text._ZSt10unexpectedv
                0x9d01d3c4       0x14
 .text._ZSt10unexpectedv
                0x9d01d3c4       0x14 c:/users/nukem419/appdata/local/arduino15/packages/chipkit/tools/pic32-tools/1.42-pic32gcc/bin/bin/../../lib/gcc/pic32mx/4.8.3/../../../../pic32mx/lib/size\libsupc++.a(eh_terminate.o)
                0x9d01d3c4                std::unexpected()

.text.finite    0x9d01d3d8       0x14
 .text.finite   0x9d01d3d8       0x14 c:/users/nukem419/appdata/local/arduino15/packages/chipkit/tools/pic32-tools/1.42-pic32gcc/bin/bin/../../lib/gcc/pic32mx/4.8.3/../../../../pic32mx/lib/size\libm.a(lib_a-s_finite.o)
                0x9d01d3d8                finite

.text.nan       0x9d01d3ec       0x14
 .text.nan      0x9d01d3ec       0x14 c:/users/nukem419/appdata/local/arduino15/packages/chipkit/tools/pic32-tools/1.42-pic32gcc/bin/bin/../../lib/gcc/pic32mx/4.8.3/../../../../pic32mx/lib/size\libm.a(lib_a-s_nan.o)
                0x9d01d3ec                nan

.rodata         0x9d01d400       0x14
 .rodata        0x9d01d400       0x14 c:/users/nukem419/appdata/local/arduino15/packages/chipkit/tools/pic32-tools/1.42-pic32gcc/bin/bin/../../lib/gcc/pic32mx/4.8.3/../../../../pic32mx/lib/size\libc.a(lib_a-locale.o)

.text._ZN4FileD2Ev
                0x9d01d414       0x10
 .text._ZN4FileD2Ev
                0x9d01d414       0x10 C:\Users\nukem419\AppData\Local\V.Micro\Arduino\Builds\IREC_2017\chipKIT_chipkit_pic32_fubarino_sd\SD\File.cpp.o
                0x9d01d414                File::~File()
                0x9d01d414                File::~File()

.rodata         0x9d01d424       0x10
 .rodata        0x9d01d424       0x10 C:\Users\nukem419\AppData\Local\V.Micro\Arduino\Builds\IREC_2017\chipKIT_chipkit_pic32_fubarino_sd\SD\utility\SdFile.cpp.o

.text._ZN7TwoWire5writeEPhh
                0x9d01d434       0x10
 .text._ZN7TwoWire5writeEPhh
                0x9d01d434       0x10 C:\Users\nukem419\AppData\Local\V.Micro\Arduino\Builds\IREC_2017\chipKIT_chipkit_pic32_fubarino_sd\Wire\Wire.cpp.o
                0x9d01d434                TwoWire::write(unsigned char*, unsigned char)

.text._initCoreTimer
                0x9d01d444       0x10
 .text._initCoreTimer
                0x9d01d444       0x10 C:\Users\nukem419\AppData\Local\V.Micro\Arduino\Builds\IREC_2017\chipKIT_chipkit_pic32_fubarino_sd/core.a(WSystem.c.o)
                0x9d01d444                _initCoreTimer

.text._ZN9USBSerial5flushEv
                0x9d01d454       0x10
 .text._ZN9USBSerial5flushEv
                0x9d01d454       0x10 C:\Users\nukem419\AppData\Local\V.Micro\Arduino\Builds\IREC_2017\chipKIT_chipkit_pic32_fubarino_sd/core.a(HardwareSerial.cpp.o)
                0x9d01d454                USBSerial::flush()

.rodata         0x9d01d468       0x10
 .rodata        0x9d01d468       0x10 C:\Users\nukem419\AppData\Local\V.Micro\Arduino\Builds\IREC_2017\chipKIT_chipkit_pic32_fubarino_sd/core.a(Stream.cpp.o)

.text.usb_register
                0x9d01d478       0x10
 .text.usb_register
                0x9d01d478       0x10 C:\Users\nukem419\AppData\Local\V.Micro\Arduino\Builds\IREC_2017\chipKIT_chipkit_pic32_fubarino_sd/core.a(HardwareSerial_usb.c.o)
                0x9d01d478                usb_register

.text._ZNSt9type_infoD2Ev
                0x9d01d488       0x10
 .text._ZNSt9type_infoD2Ev
                0x9d01d488       0x10 c:/users/nukem419/appdata/local/arduino15/packages/chipkit/tools/pic32-tools/1.42-pic32gcc/bin/bin/../../lib/gcc/pic32mx/4.8.3/../../../../pic32mx/lib/size\libsupc++.a(tinfo.o)
                0x9d01d488                std::type_info::~type_info()
                0x9d01d488                std::type_info::~type_info()

.rodata.Zero.Zero
                0x9d01d498       0x10
 .rodata.Zero.Zero
                0x9d01d498       0x10 c:/users/nukem419/appdata/local/arduino15/packages/chipkit/tools/pic32-tools/1.42-pic32gcc/bin/bin/../../lib/gcc/pic32mx/4.8.3/../../../../pic32mx/lib/size\libm.a(lib_a-e_fmod.o)

.rodata.bp.bp   0x9d01d4a8       0x10
 .rodata.bp.bp  0x9d01d4a8       0x10 c:/users/nukem419/appdata/local/arduino15/packages/chipkit/tools/pic32-tools/1.42-pic32gcc/bin/bin/../../lib/gcc/pic32mx/4.8.3/../../../../pic32mx/lib/size\libm.a(lib_a-e_pow.o)

.rodata.dp_h.dp_h
                0x9d01d4b8       0x10
 .rodata.dp_h.dp_h
                0x9d01d4b8       0x10 c:/users/nukem419/appdata/local/arduino15/packages/chipkit/tools/pic32-tools/1.42-pic32gcc/bin/bin/../../lib/gcc/pic32mx/4.8.3/../../../../pic32mx/lib/size\libm.a(lib_a-e_pow.o)

.rodata.dp_l.dp_l
                0x9d01d4c8       0x10
 .rodata.dp_l.dp_l
                0x9d01d4c8       0x10 c:/users/nukem419/appdata/local/arduino15/packages/chipkit/tools/pic32-tools/1.42-pic32gcc/bin/bin/../../lib/gcc/pic32mx/4.8.3/../../../../pic32mx/lib/size\libm.a(lib_a-e_pow.o)

.text.fabs      0x9d01d4d8       0x10
 .text.fabs     0x9d01d4d8       0x10 c:/users/nukem419/appdata/local/arduino15/packages/chipkit/tools/pic32-tools/1.42-pic32gcc/bin/bin/../../lib/gcc/pic32mx/4.8.3/../../../../pic32mx/lib/size\libm.a(lib_a-s_fabs.o)
                0x9d01d4d8                fabs

.rodata.TWO52.TWO52
                0x9d01d4e8       0x10
 .rodata.TWO52.TWO52
                0x9d01d4e8       0x10 c:/users/nukem419/appdata/local/arduino15/packages/chipkit/tools/pic32-tools/1.42-pic32gcc/bin/bin/../../lib/gcc/pic32mx/4.8.3/../../../../pic32mx/lib/size\libm.a(lib_a-s_rint.o)

.text._ZN4File5writeEPKhm
                0x9d01d4f8        0xc
 .text._ZN4File5writeEPKhm
                0x9d01d4f8        0xc C:\Users\nukem419\AppData\Local\V.Micro\Arduino\Builds\IREC_2017\chipKIT_chipkit_pic32_fubarino_sd\SD\File.cpp.o
                0x9d01d4f8                File::write(unsigned char const*, unsigned long)

.text._GLOBAL__sub_I__ZN4DTWIC2EP7p32_i2chhhhhh
                0x9d01d504        0xc
 .text._GLOBAL__sub_I__ZN4DTWIC2EP7p32_i2chhhhhh
                0x9d01d504        0xc C:\Users\nukem419\AppData\Local\V.Micro\Arduino\Builds\IREC_2017\chipKIT_chipkit_pic32_fubarino_sd\Wire\Wire.cpp.o

.text.millis    0x9d01d510        0xc
 .text.millis   0x9d01d510        0xc C:\Users\nukem419\AppData\Local\V.Micro\Arduino\Builds\IREC_2017\chipKIT_chipkit_pic32_fubarino_sd/core.a(wiring.c.o)
                0x9d01d510                millis

.text.disableInterrupts
                0x9d01d51c        0xc
 .text.disableInterrupts
                0x9d01d51c        0xc C:\Users\nukem419\AppData\Local\V.Micro\Arduino\Builds\IREC_2017\chipKIT_chipkit_pic32_fubarino_sd/core.a(WSystem.c.o)
                0x9d01d51c                disableInterrupts

.text.readCoreTimer
                0x9d01d528        0xc
 .text.readCoreTimer
                0x9d01d528        0xc C:\Users\nukem419\AppData\Local\V.Micro\Arduino\Builds\IREC_2017\chipKIT_chipkit_pic32_fubarino_sd/core.a(WSystem.c.o)
                0x9d01d528                readCoreTimer

.text._ZN14HardwareSerial5purgeEv
                0x9d01d534        0xc
 .text._ZN14HardwareSerial5purgeEv
                0x9d01d534        0xc C:\Users\nukem419\AppData\Local\V.Micro\Arduino\Builds\IREC_2017\chipKIT_chipkit_pic32_fubarino_sd/core.a(HardwareSerial.cpp.o)
                0x9d01d534                HardwareSerial::purge()

.text._ZN5Print5printEdi
                0x9d01d540        0xc
 .text._ZN5Print5printEdi
                0x9d01d540        0xc C:\Users\nukem419\AppData\Local\V.Micro\Arduino\Builds\IREC_2017\chipKIT_chipkit_pic32_fubarino_sd/core.a(Print.cpp.o)
                0x9d01d540                Print::print(double, int)

.text._ZNK6String7indexOfEc
                0x9d01d54c        0xc
 .text._ZNK6String7indexOfEc
                0x9d01d54c        0xc C:\Users\nukem419\AppData\Local\V.Micro\Arduino\Builds\IREC_2017\chipKIT_chipkit_pic32_fubarino_sd/core.a(WString.cpp.o)
                0x9d01d54c                String::indexOf(char) const

.text.usb_device_descriptor
                0x9d01d558        0xc
 .text.usb_device_descriptor
                0x9d01d558        0xc C:\Users\nukem419\AppData\Local\V.Micro\Arduino\Builds\IREC_2017\chipKIT_chipkit_pic32_fubarino_sd/core.a(HardwareSerial_usb.c.o)
                0x9d01d558                usb_device_descriptor

.text.usb_configuration_descriptor
                0x9d01d564        0xc
 .text.usb_configuration_descriptor
                0x9d01d564        0xc C:\Users\nukem419\AppData\Local\V.Micro\Arduino\Builds\IREC_2017\chipKIT_chipkit_pic32_fubarino_sd/core.a(HardwareSerial_usb.c.o)
                0x9d01d564                usb_configuration_descriptor

.text.usb_string_descriptor
                0x9d01d570        0xc
 .text.usb_string_descriptor
                0x9d01d570        0xc C:\Users\nukem419\AppData\Local\V.Micro\Arduino\Builds\IREC_2017\chipKIT_chipkit_pic32_fubarino_sd/core.a(HardwareSerial_usb.c.o)
                0x9d01d570                usb_string_descriptor

.text.__cxa_get_globals
                0x9d01d57c        0xc
 .text.__cxa_get_globals
                0x9d01d57c        0xc c:/users/nukem419/appdata/local/arduino15/packages/chipkit/tools/pic32-tools/1.42-pic32gcc/bin/bin/../../lib/gcc/pic32mx/4.8.3/../../../../pic32mx/lib/size\libsupc++.a(eh_globals.o)
                0x9d01d57c                __cxa_get_globals

.text.__errno   0x9d01d588        0xc
 .text.__errno  0x9d01d588        0xc c:/users/nukem419/appdata/local/arduino15/packages/chipkit/tools/pic32-tools/1.42-pic32gcc/bin/bin/../../lib/gcc/pic32mx/4.8.3/../../../../pic32mx/lib/size\libc.a(lib_a-errno.o)
                0x9d01d588                __errno

.text._localeconv_r
                0x9d01d594        0xc
 .text._localeconv_r
                0x9d01d594        0xc c:/users/nukem419/appdata/local/arduino15/packages/chipkit/tools/pic32-tools/1.42-pic32gcc/bin/bin/../../lib/gcc/pic32mx/4.8.3/../../../../pic32mx/lib/size\libc.a(lib_a-locale.o)
                0x9d01d594                _localeconv_r

.rodata.p05.2611.p05
                0x9d01d5a0        0xc
 .rodata.p05.2611.p05
                0x9d01d5a0        0xc c:/users/nukem419/appdata/local/arduino15/packages/chipkit/tools/pic32-tools/1.42-pic32gcc/bin/bin/../../lib/gcc/pic32mx/4.8.3/../../../../pic32mx/lib/size\libc.a(lib_a-mprec.o)

.text._ZN7TwoWire15endTransmissionEv
                0x9d01d5ac        0x8
 .text._ZN7TwoWire15endTransmissionEv
                0x9d01d5ac        0x8 C:\Users\nukem419\AppData\Local\V.Micro\Arduino\Builds\IREC_2017\chipKIT_chipkit_pic32_fubarino_sd\Wire\Wire.cpp.o
                0x9d01d5ac                TwoWire::endTransmission()

.text._ZN6BMP180D2Ev
                0x9d01d5b4        0x8
 .text._ZN6BMP180D2Ev
                0x9d01d5b4        0x8 C:\Users\nukem419\AppData\Local\V.Micro\Arduino\Builds\IREC_2017\chipKIT_chipkit_pic32_fubarino_sd\BMP180.cpp.o
                0x9d01d5b4                BMP180::~BMP180()
                0x9d01d5b4                BMP180::~BMP180()

.text._ZN10DataLoggerD2Ev
                0x9d01d5bc        0x8
 .text._ZN10DataLoggerD2Ev
                0x9d01d5bc        0x8 C:\Users\nukem419\AppData\Local\V.Micro\Arduino\Builds\IREC_2017\chipKIT_chipkit_pic32_fubarino_sd\DataLogger.cpp.o
                0x9d01d5bc                DataLogger::~DataLogger()
                0x9d01d5bc                DataLogger::~DataLogger()

.text._ZN5EM506D2Ev
                0x9d01d5c4        0x8
 .text._ZN5EM506D2Ev
                0x9d01d5c4        0x8 C:\Users\nukem419\AppData\Local\V.Micro\Arduino\Builds\IREC_2017\chipKIT_chipkit_pic32_fubarino_sd\EM_506.cpp.o
                0x9d01d5c4                EM506::~EM506()
                0x9d01d5c4                EM506::~EM506()

.text._ZN9MEMS_GyroD2Ev
                0x9d01d5cc        0x8
 .text._ZN9MEMS_GyroD2Ev
                0x9d01d5cc        0x8 C:\Users\nukem419\AppData\Local\V.Micro\Arduino\Builds\IREC_2017\chipKIT_chipkit_pic32_fubarino_sd\L3GD20TR.cpp.o
                0x9d01d5cc                MEMS_Gyro::~MEMS_Gyro()
                0x9d01d5cc                MEMS_Gyro::~MEMS_Gyro()

.text._ZN10MEMS_AccelD2Ev
                0x9d01d5d4        0x8
 .text._ZN10MEMS_AccelD2Ev
                0x9d01d5d4        0x8 C:\Users\nukem419\AppData\Local\V.Micro\Arduino\Builds\IREC_2017\chipKIT_chipkit_pic32_fubarino_sd\LIS331HH.cpp.o
                0x9d01d5d4                MEMS_Accel::~MEMS_Accel()
                0x9d01d5d4                MEMS_Accel::~MEMS_Accel()

.text._ZN10Parameters8getCountEv
                0x9d01d5dc        0x8
 .text._ZN10Parameters8getCountEv
                0x9d01d5dc        0x8 C:\Users\nukem419\AppData\Local\V.Micro\Arduino\Builds\IREC_2017\chipKIT_chipkit_pic32_fubarino_sd\Parameters.cpp.o
                0x9d01d5dc                Parameters::getCount()

.text._Z15USBresetRoutinev
                0x9d01d5e4        0x8
 .text._Z15USBresetRoutinev
                0x9d01d5e4        0x8 C:\Users\nukem419\AppData\Local\V.Micro\Arduino\Builds\IREC_2017\chipKIT_chipkit_pic32_fubarino_sd/core.a(HardwareSerial.cpp.o)
                0x9d01d5e4                USBresetRoutine()

.text._ZN5Print5printEhi
                0x9d01d5ec        0x8
 .text._ZN5Print5printEhi
                0x9d01d5ec        0x8 C:\Users\nukem419\AppData\Local\V.Micro\Arduino\Builds\IREC_2017\chipKIT_chipkit_pic32_fubarino_sd/core.a(Print.cpp.o)
                0x9d01d5ec                Print::print(unsigned char, int)

.text._ZN6StringD2Ev
                0x9d01d5f4        0x8
 .text._ZN6StringD2Ev
                0x9d01d5f4        0x8 C:\Users\nukem419\AppData\Local\V.Micro\Arduino\Builds\IREC_2017\chipKIT_chipkit_pic32_fubarino_sd/core.a(WString.cpp.o)
                0x9d01d5f4                String::~String()
                0x9d01d5f4                String::~String()

.text.cdcacm_get_line_coding
                0x9d01d5fc        0x8
 .text.cdcacm_get_line_coding
                0x9d01d5fc        0x8 C:\Users\nukem419\AppData\Local\V.Micro\Arduino\Builds\IREC_2017\chipKIT_chipkit_pic32_fubarino_sd/core.a(HardwareSerial_cdcacm.c.o)
                0x9d01d5fc                cdcacm_get_line_coding

.text._ZNKSt9type_info14__is_pointer_pEv
                0x9d01d604        0x8
 .text._ZNKSt9type_info14__is_pointer_pEv
                0x9d01d604        0x8 c:/users/nukem419/appdata/local/arduino15/packages/chipkit/tools/pic32-tools/1.42-pic32gcc/bin/bin/../../lib/gcc/pic32mx/4.8.3/../../../../pic32mx/lib/size\libsupc++.a(tinfo.o)
                0x9d01d604                std::type_info::__is_pointer_p() const

.text._ZNKSt9type_info15__is_function_pEv
                0x9d01d60c        0x8
 .text._ZNKSt9type_info15__is_function_pEv
                0x9d01d60c        0x8 c:/users/nukem419/appdata/local/arduino15/packages/chipkit/tools/pic32-tools/1.42-pic32gcc/bin/bin/../../lib/gcc/pic32mx/4.8.3/../../../../pic32mx/lib/size\libsupc++.a(tinfo.o)
                0x9d01d60c                std::type_info::__is_function_p() const

.text._ZNKSt9type_info11__do_upcastEPKN10__cxxabiv117__class_type_infoEPPv
                0x9d01d614        0x8
 .text._ZNKSt9type_info11__do_upcastEPKN10__cxxabiv117__class_type_infoEPPv
                0x9d01d614        0x8 c:/users/nukem419/appdata/local/arduino15/packages/chipkit/tools/pic32-tools/1.42-pic32gcc/bin/bin/../../lib/gcc/pic32mx/4.8.3/../../../../pic32mx/lib/size\libsupc++.a(tinfo.o)
                0x9d01d614                std::type_info::__do_upcast(__cxxabiv1::__class_type_info const*, void**) const

.rodata         0x9d01d61c        0x8
 .rodata        0x9d01d61c        0x8 c:/users/nukem419/appdata/local/arduino15/packages/chipkit/tools/pic32-tools/1.42-pic32gcc/bin/bin/../../lib/gcc/pic32mx/4.8.3/../../../../pic32mx/lib/size\libm.a(lib_a-w_fmod.o)

.text.matherr   0x9d01d624        0x8
 .text.matherr  0x9d01d624        0x8 c:/users/nukem419/appdata/local/arduino15/packages/chipkit/tools/pic32-tools/1.42-pic32gcc/bin/bin/../../lib/gcc/pic32mx/4.8.3/../../../../pic32mx/lib/size\libm.a(lib_a-s_matherr.o)
                0x9d01d624                matherr

.rodata         0x9d01d630        0x8
 .rodata        0x9d01d630        0x8 c:/users/nukem419/appdata/local/arduino15/packages/chipkit/tools/pic32-tools/1.42-pic32gcc/bin/bin/../../lib/gcc/pic32mx/4.8.3/size\libgcc.a(floatunsidf.o)

.text.__malloc_lock
                0x9d01d638        0x8
 .text.__malloc_lock
                0x9d01d638        0x8 c:/users/nukem419/appdata/local/arduino15/packages/chipkit/tools/pic32-tools/1.42-pic32gcc/bin/bin/../../lib/gcc/pic32mx/4.8.3/../../../../pic32mx/lib/size\libc.a(lib_a-mlock.o)
                0x9d01d638                __malloc_lock

.text.__malloc_unlock
                0x9d01d640        0x8
 .text.__malloc_unlock
                0x9d01d640        0x8 c:/users/nukem419/appdata/local/arduino15/packages/chipkit/tools/pic32-tools/1.42-pic32gcc/bin/bin/../../lib/gcc/pic32mx/4.8.3/../../../../pic32mx/lib/size\libc.a(lib_a-mlock.o)
                0x9d01d640                __malloc_unlock

.text._on_reset
                0x9d01d648        0x8
 .text._on_reset
                0x9d01d648        0x8 c:/users/nukem419/appdata/local/arduino15/packages/chipkit/tools/pic32-tools/1.42-pic32gcc/bin/bin/../../lib/gcc/pic32mx/4.8.3/../../../../pic32mx/lib/size\libpic32.a(default-on-reset.o)
                0x9d01d648                _on_reset

.text._on_bootstrap
                0x9d01d650        0x8
 .text._on_bootstrap
                0x9d01d650        0x8 c:/users/nukem419/appdata/local/arduino15/packages/chipkit/tools/pic32-tools/1.42-pic32gcc/bin/bin/../../lib/gcc/pic32mx/4.8.3/../../../../pic32mx/lib/size\libpic32.a(default-on-bootstrap.o)
                0x9d01d650                _on_bootstrap

.text._exit     0x9d01d658        0x8
 .text._exit    0x9d01d658        0x8 c:/users/nukem419/appdata/local/arduino15/packages/chipkit/tools/pic32-tools/1.42-pic32gcc/bin/bin/../../lib/gcc/pic32mx/4.8.3/../../../../pic32mx/lib/size\libpic32.a(_exit.o)
                0x9d01d658                _exit

.text.kill      0x9d01d660        0x8
 .text.kill     0x9d01d660        0x8 c:/users/nukem419/appdata/local/arduino15/packages/chipkit/tools/pic32-tools/1.42-pic32gcc/bin/bin/../../lib/gcc/pic32mx/4.8.3/../../../../pic32mx/lib/size\libpic32.a(kill.o)
                0x9d01d660                kill

.text.getpid    0x9d01d668        0x8
 .text.getpid   0x9d01d668        0x8 c:/users/nukem419/appdata/local/arduino15/packages/chipkit/tools/pic32-tools/1.42-pic32gcc/bin/bin/../../lib/gcc/pic32mx/4.8.3/../../../../pic32mx/lib/size\libpic32.a(getpid.o)
                0x9d01d668                getpid

.rodata         0x9d01b564        0x4
 .rodata        0x9d01b564        0x4 C:\Users\nukem419\AppData\Local\V.Micro\Arduino\Builds\IREC_2017\chipKIT_chipkit_pic32_fubarino_sd\SD\SD.cpp.o

.rodata         0x9d01bf3c        0x4
 .rodata        0x9d01bf3c        0x4 c:/users/nukem419/appdata/local/arduino15/packages/chipkit/tools/pic32-tools/1.42-pic32gcc/bin/bin/../../lib/gcc/pic32mx/4.8.3/../../../../pic32mx/lib/size\libc.a(lib_a-impure.o)

.reset.startup  0x00000000        0x0
 .reset.startup
                0x00000000        0x0 C:\Users\nukem419\AppData\Local\Temp\ccQDZXfk.o
